EXPORTS 
	??_R0?AUnarrowing_error@gsl@@@8 	 DATA
	??_R0?AV?$_Iosb@H@std@@@8 	 DATA
	??_R0?AV?$_Ref_count@Ucse_observer_s@@@std@@@8 	 DATA
	??_R0?AV?$_Ref_count_obj@Vsingle_slave_observer@cse@@@std@@@8 	 DATA
	??_R0?AV?$basic_filebuf@DU?$char_traits@D@std@@@std@@@8 	 DATA
	??_R0?AV?$basic_ios@DU?$char_traits@D@std@@@std@@@8 	 DATA
	??_R0?AV?$basic_ofstream@DU?$char_traits@D@std@@@std@@@8 	 DATA
	??_R0?AV?$basic_ostream@DU?$char_traits@D@std@@@std@@@8 	 DATA
	??_R0?AV?$basic_streambuf@DU?$char_traits@D@std@@@std@@@8 	 DATA
	??_R0?AV_Generic_error_category@std@@@8 	 DATA
	??_R0?AV_Pad@std@@@8 	 DATA
	??_R0?AV_Ref_count_base@std@@@8 	 DATA
	??_R0?AV_System_error@std@@@8 	 DATA
	??_R0?AV_System_error_category@std@@@8 	 DATA
	??_R0?AVbad_cast@std@@@8 	 DATA
	??_R0?AVerror@cse@@@8 	 DATA
	??_R0?AVerror_category@std@@@8 	 DATA
	??_R0?AVexception@std@@@8 	 DATA
	??_R0?AVinvalid_argument@std@@@8 	 DATA
	??_R0?AVios_base@std@@@8 	 DATA
	??_R0?AVlogic_error@std@@@8 	 DATA
	??_R0?AVout_of_range@std@@@8 	 DATA
	??_R0?AVruntime_error@std@@@8 	 DATA
	??_R0?AVsystem_error@std@@@8 	 DATA
	?_Flag@?1???$_Immortalize@V_Generic_error_category@std@@@std@@YAAEAV_Generic_error_category@1@XZ@4PEAXEA 	 DATA
	?_Flag@?1???$_Immortalize@V_System_error_category@std@@@std@@YAAEAV_System_error_category@1@XZ@4PEAXEA 	 DATA
	?_Psave@?$_Facetptr@V?$codecvt@DDU_Mbstatet@@@std@@@std@@2PEBVfacet@locale@2@EB 	 DATA
	?_Stinit@?1??_Init@?$basic_filebuf@DU?$char_traits@D@std@@@std@@IEAAXPEAU_iobuf@@W4_Initfl@23@@Z@4U_Mbstatet@@A 	 DATA
	?_Storage@?1???$_Immortalize@V_Generic_error_category@std@@@std@@YAAEAV_Generic_error_category@1@XZ@4T?$_Align_type@N$0BA@@1@A 	 DATA
	?_Storage@?1???$_Immortalize@V_System_error_category@std@@@std@@YAAEAV_System_error_category@1@XZ@4T?$_Align_type@N$0BA@@1@A 	 DATA
	?g_lastErrorCode@?A0x2aa5cc5c@@3W4cse_errc@@A 	 DATA
	?g_lastErrorMessage@?A0x2aa5cc5c@@3V?$basic_string@DU?$char_traits@D@std@@V?$allocator@D@2@@std@@A 	 DATA
	??$?0$$V@?$_Compressed_pair@V?$allocator@D@std@@V?$_String_val@U?$_Simple_types@D@std@@@2@$00@std@@QEAA@U_Zero_then_variadic_args_t@1@@Z
	??$?0$$V@?$_Compressed_pair@V?$allocator@H@std@@V?$_Vector_val@U?$_Simple_types@H@std@@@2@$00@std@@QEAA@U_Zero_then_variadic_args_t@1@@Z
	??$?0$$V@?$_Compressed_pair@V?$allocator@I@std@@V?$_Vector_val@U?$_Simple_types@I@std@@@2@$00@std@@QEAA@U_Zero_then_variadic_args_t@1@@Z
	??$?0$$V@?$_Compressed_pair@V?$allocator@N@std@@V?$_Vector_val@U?$_Simple_types@N@std@@@2@$00@std@@QEAA@U_Zero_then_variadic_args_t@1@@Z
	??$?0$$V@?$_Compressed_pair@V?$allocator@U?$_Tree_node@U?$pair@$$CBJV?$vector@HV?$allocator@H@std@@@std@@@std@@PEAX@std@@@std@@V?$_Tree_val@U?$_Tree_simple_types@U?$pair@$$CBJV?$vector@HV?$allocator@H@std@@@std@@@std@@@std@@@2@$00@std@@QEAA@U_Zero_then_variadic_args_t@1@@Z
	??$?0$$V@?$_Compressed_pair@V?$allocator@U?$_Tree_node@U?$pair@$$CBJV?$vector@NV?$allocator@N@std@@@std@@@std@@PEAX@std@@@std@@V?$_Tree_val@U?$_Tree_simple_types@U?$pair@$$CBJV?$vector@NV?$allocator@N@std@@@std@@@std@@@std@@@2@$00@std@@QEAA@U_Zero_then_variadic_args_t@1@@Z
	??$?0$$V@?$_Compressed_pair@V?$allocator@V?$shared_ptr@Ucse_observer_s@@@std@@@std@@V?$_Vector_val@U?$_Simple_types@V?$shared_ptr@Ucse_observer_s@@@std@@@std@@@2@$00@std@@QEAA@U_Zero_then_variadic_args_t@1@@Z
	??$?0$$V@?$_Compressed_pair@V?$allocator@V?$shared_ptr@Vsingle_slave_observer@cse@@@std@@@std@@V?$_Vector_val@U?$_Simple_types@V?$shared_ptr@Vsingle_slave_observer@cse@@@std@@@std@@@2@$00@std@@QEAA@U_Zero_then_variadic_args_t@1@@Z
	??$?0$$V@?$_Compressed_pair@V?$allocator@V?$shared_ptr@Vslave@cse@@@std@@@std@@V?$_Vector_val@U?$_Simple_types@V?$shared_ptr@Vslave@cse@@@std@@@std@@@2@$00@std@@QEAA@U_Zero_then_variadic_args_t@1@@Z
	??$?0$$V@?$_Compressed_pair@V?$allocator@_W@std@@V?$_String_val@U?$_Simple_types@_W@std@@@2@$00@std@@QEAA@U_Zero_then_variadic_args_t@1@@Z
	??$?0AEAPEAUcse_execution_s@@@?$_Compressed_pair@U?$default_delete@Ucse_execution_s@@@std@@PEAUcse_execution_s@@$00@std@@QEAA@U_Zero_then_variadic_args_t@1@AEAPEAUcse_execution_s@@@Z
	??$?0AEAPEAUcse_observer_s@@@?$_Compressed_pair@U?$default_delete@Ucse_observer_s@@@std@@PEAUcse_observer_s@@$00@std@@QEAA@U_Zero_then_variadic_args_t@1@AEAPEAUcse_observer_s@@@Z
	??$?0AEAPEAUcse_slave_s@@@?$_Compressed_pair@U?$default_delete@Ucse_slave_s@@@std@@PEAUcse_slave_s@@$00@std@@QEAA@U_Zero_then_variadic_args_t@1@AEAPEAUcse_slave_s@@@Z
	??$?0AEAPEAV_Facet_base@std@@@?$_Compressed_pair@U?$default_delete@V_Facet_base@std@@@std@@PEAV_Facet_base@2@$00@std@@QEAA@U_Zero_then_variadic_args_t@1@AEAPEAV_Facet_base@1@@Z
	??$?0AEAV?$_Tree_iterator@V?$_Tree_val@U?$_Tree_simple_types@U?$pair@$$CBJV?$vector@HV?$allocator@H@std@@@std@@@std@@@std@@@std@@@std@@_N$0A@@?$pair@V?$_Tree_iterator@V?$_Tree_val@U?$_Tree_simple_types@U?$pair@$$CBJV?$vector@HV?$allocator@H@std@@@std@@@std@@@std@@@std@@@std@@_N@std@@QEAA@AEAV?$_Tree_iterator@V?$_Tree_val@U?$_Tree_simple_types@U?$pair@$$CBJV?$vector@HV?$allocator@H@std@@@std@@@std@@@std@@@std@@@1@$$QEA_N@Z
	??$?0AEAV?$_Tree_iterator@V?$_Tree_val@U?$_Tree_simple_types@U?$pair@$$CBJV?$vector@NV?$allocator@N@std@@@std@@@std@@@std@@@std@@@std@@_N$0A@@?$pair@V?$_Tree_iterator@V?$_Tree_val@U?$_Tree_simple_types@U?$pair@$$CBJV?$vector@NV?$allocator@N@std@@@std@@@std@@@std@@@std@@@std@@_N@std@@QEAA@AEAV?$_Tree_iterator@V?$_Tree_val@U?$_Tree_simple_types@U?$pair@$$CBJV?$vector@NV?$allocator@N@std@@@std@@@std@@@std@@@std@@@1@$$QEA_N@Z
	??$?0AEAV?$shared_ptr@Vslave@cse@@@std@@@?$_Ref_count_obj@Vsingle_slave_observer@cse@@@std@@QEAA@AEAV?$shared_ptr@Vslave@cse@@@1@@Z
	??$?0AEBJ$$Z$$V@?$pair@$$CBJV?$vector@HV?$allocator@H@std@@@std@@@std@@QEAA@Upiecewise_construct_t@1@V?$tuple@AEBJ@1@V?$tuple@$$V@1@@Z
	??$?0AEBJ$$Z$$V@?$pair@$$CBJV?$vector@NV?$allocator@N@std@@@std@@@std@@QEAA@Upiecewise_construct_t@1@V?$tuple@AEBJ@1@V?$tuple@$$V@1@@Z
	??$?0AEBJ$0A@@?$tuple@AEBJ@std@@QEAA@AEBJ@Z
	??$?0AEBJ@?$_Tuple_val@AEBJ@std@@QEAA@AEBJ@Z
	??$?0AEBU?$less@J@std@@U_Zero_then_variadic_args_t@1@@?$_Compressed_pair@U?$less@J@std@@V?$_Compressed_pair@V?$allocator@U?$_Tree_node@U?$pair@$$CBJV?$vector@HV?$allocator@H@std@@@std@@@std@@PEAX@std@@@std@@V?$_Tree_val@U?$_Tree_simple_types@U?$pair@$$CBJV?$vector@HV?$allocator@H@std@@@std@@@std@@@std@@@2@$00@2@$00@std@@QEAA@U_One_then_variadic_args_t@1@AEBU?$less@J@1@$$QEAU_Zero_then_variadic_args_t@1@@Z
	??$?0AEBU?$less@J@std@@U_Zero_then_variadic_args_t@1@@?$_Compressed_pair@U?$less@J@std@@V?$_Compressed_pair@V?$allocator@U?$_Tree_node@U?$pair@$$CBJV?$vector@NV?$allocator@N@std@@@std@@@std@@PEAX@std@@@std@@V?$_Tree_val@U?$_Tree_simple_types@U?$pair@$$CBJV?$vector@NV?$allocator@N@std@@@std@@@std@@@std@@@2@$00@2@$00@std@@QEAA@U_One_then_variadic_args_t@1@AEBU?$less@J@1@$$QEAU_Zero_then_variadic_args_t@1@@Z
	??$?0D@?$allocator@U_Container_proxy@std@@@std@@QEAA@AEBV?$allocator@D@1@@Z
	??$?0H@?$allocator@U_Container_proxy@std@@@std@@QEAA@AEBV?$allocator@H@1@@Z
	??$?0I$0?0X@?$span@$$CBI$0?0@gsl@@QEAA@AEBV?$span@I$0?0@1@@Z
	??$?0I@?$allocator@U_Container_proxy@std@@@std@@QEAA@AEBV?$allocator@I@1@@Z
	??$?0N@?$allocator@U_Container_proxy@std@@@std@@QEAA@AEBV?$allocator@N@1@@Z
	??$?0NX@?$duration@NU?$ratio@$00$00@std@@@chrono@std@@QEAA@AEBN@Z
	??$?0PEAUcse_execution_s@@@?$_Unique_ptr_base@Ucse_execution_s@@U?$default_delete@Ucse_execution_s@@@std@@@std@@QEAA@PEAUcse_execution_s@@@Z
	??$?0PEAUcse_observer_s@@@?$_Unique_ptr_base@Ucse_observer_s@@U?$default_delete@Ucse_observer_s@@@std@@@std@@QEAA@PEAUcse_observer_s@@@Z
	??$?0PEAUcse_slave_s@@@?$_Unique_ptr_base@Ucse_slave_s@@U?$default_delete@Ucse_slave_s@@@std@@@std@@QEAA@PEAUcse_slave_s@@@Z
	??$?0PEAV_Facet_base@std@@@?$_Unique_ptr_base@V_Facet_base@std@@U?$default_delete@V_Facet_base@std@@@2@@std@@QEAA@PEAV_Facet_base@1@@Z
	??$?0PEBD$0A@@?$optional@V?$basic_string@DU?$char_traits@D@std@@V?$allocator@D@2@@std@@@std@@QEAA@$$QEAPEBD@Z
	??$?0PEBD$0A@@path@filesystem@std@@QEAA@AEBQEBDW4format@012@@Z
	??$?0PEBD@?$_Non_trivial_copy@U?$_Optional_construct_base@V?$basic_string@DU?$char_traits@D@std@@V?$allocator@D@2@@std@@@std@@@std@@QEAA@Uin_place_t@1@$$QEAPEBD@Z
	??$?0PEBD@?$_Non_trivial_copy_assign@U?$_Optional_construct_base@V?$basic_string@DU?$char_traits@D@std@@V?$allocator@D@2@@std@@@std@@V?$basic_string@DU?$char_traits@D@std@@V?$allocator@D@2@@2@@std@@QEAA@Uin_place_t@1@$$QEAPEBD@Z
	??$?0PEBD@?$_Non_trivial_move@U?$_Optional_construct_base@V?$basic_string@DU?$char_traits@D@std@@V?$allocator@D@2@@std@@@std@@V?$basic_string@DU?$char_traits@D@std@@V?$allocator@D@2@@2@@std@@QEAA@Uin_place_t@1@$$QEAPEBD@Z
	??$?0PEBD@?$_Non_trivial_move_assign@U?$_Optional_construct_base@V?$basic_string@DU?$char_traits@D@std@@V?$allocator@D@2@@std@@@std@@V?$basic_string@DU?$char_traits@D@std@@V?$allocator@D@2@@2@@std@@QEAA@Uin_place_t@1@$$QEAPEBD@Z
	??$?0PEBD@?$_Optional_construct_base@V?$basic_string@DU?$char_traits@D@std@@V?$allocator@D@2@@std@@@std@@QEAA@Uin_place_t@1@$$QEAPEBD@Z
	??$?0PEBD@?$_Optional_destruct_base@V?$basic_string@DU?$char_traits@D@std@@V?$allocator@D@2@@std@@$0A@@std@@QEAA@Uin_place_t@1@$$QEAPEBD@Z
	??$?0U?$_Tree_node@U?$pair@$$CBJV?$vector@HV?$allocator@H@std@@@std@@@std@@PEAX@std@@@?$allocator@U_Container_proxy@std@@@std@@QEAA@AEBV?$allocator@U?$_Tree_node@U?$pair@$$CBJV?$vector@HV?$allocator@H@std@@@std@@@std@@PEAX@std@@@1@@Z
	??$?0U?$_Tree_node@U?$pair@$$CBJV?$vector@NV?$allocator@N@std@@@std@@@std@@PEAX@std@@@?$allocator@U_Container_proxy@std@@@std@@QEAA@AEBV?$allocator@U?$_Tree_node@U?$pair@$$CBJV?$vector@NV?$allocator@N@std@@@std@@@std@@PEAX@std@@@1@@Z
	??$?0U?$default_delete@Ucse_execution_s@@@std@@$0A@@?$unique_ptr@Ucse_execution_s@@U?$default_delete@Ucse_execution_s@@@std@@@std@@QEAA@PEAUcse_execution_s@@@Z
	??$?0U?$default_delete@Ucse_observer_s@@@std@@$0A@@?$unique_ptr@Ucse_observer_s@@U?$default_delete@Ucse_observer_s@@@std@@@std@@QEAA@PEAUcse_observer_s@@@Z
	??$?0U?$default_delete@Ucse_slave_s@@@std@@$0A@@?$unique_ptr@Ucse_slave_s@@U?$default_delete@Ucse_slave_s@@@std@@@std@@QEAA@PEAUcse_slave_s@@@Z
	??$?0U?$default_delete@V_Facet_base@std@@@std@@$0A@@?$unique_ptr@V_Facet_base@std@@U?$default_delete@V_Facet_base@std@@@2@@std@@QEAA@PEAV_Facet_base@1@@Z
	??$?0U?$integral_constant@_N$00@std@@@_Unused_parameter@std@@QEAA@$$QEAU?$integral_constant@_N$00@1@@Z
	??$?0U_Exact_args_t@std@@$0A@@?$tuple@$$V@std@@QEAA@U_Exact_args_t@1@@Z
	??$?0U_Exact_args_t@std@@AEBJ$$V$0A@@?$tuple@AEBJ@std@@QEAA@U_Exact_args_t@1@AEBJ@Z
	??$?0Ucse_observer_s@@$0A@@?$shared_ptr@Ucse_observer_s@@@std@@QEAA@PEAUcse_observer_s@@@Z
	??$?0Uvariable_description@cse@@@?$allocator@U_Container_proxy@std@@@std@@QEAA@AEBV?$allocator@Uvariable_description@cse@@@1@@Z
	??$?0V?$_Tree_iterator@V?$_Tree_val@U?$_Tree_simple_types@U?$pair@$$CBJV?$vector@HV?$allocator@H@std@@@std@@@std@@@std@@@std@@@std@@_N$0A@@?$pair@V?$_Tree_iterator@V?$_Tree_val@U?$_Tree_simple_types@U?$pair@$$CBJV?$vector@HV?$allocator@H@std@@@std@@@std@@@std@@@std@@@std@@_N@std@@QEAA@$$QEAV?$_Tree_iterator@V?$_Tree_val@U?$_Tree_simple_types@U?$pair@$$CBJV?$vector@HV?$allocator@H@std@@@std@@@std@@@std@@@std@@@1@$$QEA_N@Z
	??$?0V?$_Tree_iterator@V?$_Tree_val@U?$_Tree_simple_types@U?$pair@$$CBJV?$vector@NV?$allocator@N@std@@@std@@@std@@@std@@@std@@@std@@_N$0A@@?$pair@V?$_Tree_iterator@V?$_Tree_val@U?$_Tree_simple_types@U?$pair@$$CBJV?$vector@NV?$allocator@N@std@@@std@@@std@@@std@@@std@@@std@@_N@std@@QEAA@$$QEAV?$_Tree_iterator@V?$_Tree_val@U?$_Tree_simple_types@U?$pair@$$CBJV?$vector@NV?$allocator@N@std@@@std@@@std@@@std@@@std@@@1@$$QEA_N@Z
	??$?0V?$allocator@D@std@@$$V@?$_Compressed_pair@V?$allocator@D@std@@V?$_String_val@U?$_Simple_types@D@std@@@2@$00@std@@QEAA@U_One_then_variadic_args_t@1@$$QEAV?$allocator@D@1@@Z
	??$?0V?$allocator@D@std@@X@?$_String_alloc@U?$_String_base_types@DV?$allocator@D@std@@@std@@@std@@QEAA@$$QEAV?$allocator@D@1@@Z
	??$?0V?$allocator@_W@std@@$$V@?$_Compressed_pair@V?$allocator@_W@std@@V?$_String_val@U?$_Simple_types@_W@std@@@2@$00@std@@QEAA@U_One_then_variadic_args_t@1@$$QEAV?$allocator@_W@1@@Z
	??$?0V?$allocator@_W@std@@X@?$_String_alloc@U?$_String_base_types@_WV?$allocator@_W@std@@@std@@@std@@QEAA@$$QEAV?$allocator@_W@1@@Z
	??$?0V?$extent_type@$0?0@details@gsl@@@?$storage_type@V?$extent_type@$0?0@details@gsl@@@?$span@$$CBI$0?0@gsl@@QEAA@PEBIV?$extent_type@$0?0@details@2@@Z
	??$?0V?$shared_ptr@Ucse_observer_s@@@std@@@?$allocator@U_Container_proxy@std@@@std@@QEAA@AEBV?$allocator@V?$shared_ptr@Ucse_observer_s@@@std@@@1@@Z
	??$?0V?$shared_ptr@Vsingle_slave_observer@cse@@@std@@@?$allocator@U_Container_proxy@std@@@std@@QEAA@AEBV?$allocator@V?$shared_ptr@Vsingle_slave_observer@cse@@@std@@@1@@Z
	??$?0V?$shared_ptr@Vslave@cse@@@std@@@?$allocator@U_Container_proxy@std@@@std@@QEAA@AEBV?$allocator@V?$shared_ptr@Vslave@cse@@@std@@@1@@Z
	??$?0V?$tuple@AEBJ@std@@V?$tuple@$$V@1@$0A@$$Z$S@?$pair@$$CBJV?$vector@HV?$allocator@H@std@@@std@@@std@@QEAA@AEAV?$tuple@AEBJ@1@AEAV?$tuple@$$V@1@U?$integer_sequence@_K$0A@@1@U?$integer_sequence@_K$S@1@@Z
	??$?0V?$tuple@AEBJ@std@@V?$tuple@$$V@1@$0A@$$Z$S@?$pair@$$CBJV?$vector@NV?$allocator@N@std@@@std@@@std@@QEAA@AEAV?$tuple@AEBJ@1@AEAV?$tuple@$$V@1@U?$integer_sequence@_K$0A@@1@U?$integer_sequence@_K$S@1@@Z
	??$?0V?$vector@HV?$allocator@H@std@@@std@@X@?$span@H$0?0@gsl@@QEAA@AEAV?$vector@HV?$allocator@H@std@@@std@@@Z
	??$?0V?$vector@IV?$allocator@I@std@@@std@@X@?$span@I$0?0@gsl@@QEAA@AEAV?$vector@IV?$allocator@I@std@@@std@@@Z
	??$?0V?$vector@NV?$allocator@N@std@@@std@@X@?$span@N$0?0@gsl@@QEAA@AEAV?$vector@NV?$allocator@N@std@@@std@@@Z
	??$?0Vslave_instance@fmi@cse@@$0A@@?$shared_ptr@Vslave@cse@@@std@@QEAA@$$QEAV?$shared_ptr@Vslave_instance@fmi@cse@@@1@@Z
	??$?0W4errc@cse@@$0A@@error_condition@std@@QEAA@W4errc@cse@@@Z
	??$?0_J@?$storage_type@V?$extent_type@$0?0@details@gsl@@@?$span@$$CBH$0?0@gsl@@QEAA@PEBH_J@Z
	??$?0_J@?$storage_type@V?$extent_type@$0?0@details@gsl@@@?$span@$$CBI$0?0@gsl@@QEAA@PEBI_J@Z
	??$?0_J@?$storage_type@V?$extent_type@$0?0@details@gsl@@@?$span@$$CBN$0?0@gsl@@QEAA@PEBN_J@Z
	??$?0_J@?$storage_type@V?$extent_type@$0?0@details@gsl@@@?$span@D$0?0@gsl@@QEAA@PEAD_J@Z
	??$?0_J@?$storage_type@V?$extent_type@$0?0@details@gsl@@@?$span@H$0?0@gsl@@QEAA@PEAH_J@Z
	??$?0_J@?$storage_type@V?$extent_type@$0?0@details@gsl@@@?$span@I$0?0@gsl@@QEAA@PEAI_J@Z
	??$?0_J@?$storage_type@V?$extent_type@$0?0@details@gsl@@@?$span@N$0?0@gsl@@QEAA@PEAN_J@Z
	??$?0_JU?$ratio@$00$00@std@@X@?$duration@_JU?$ratio@$00$0DLJKMKAA@@std@@@chrono@std@@QEAA@AEBV?$duration@_JU?$ratio@$00$00@std@@@12@@Z
	??$?0_JU?$ratio@$00$0JIJGIA@@std@@X@?$duration@_JU?$ratio@$00$0DLJKMKAA@@std@@@chrono@std@@QEAA@AEBV?$duration@_JU?$ratio@$00$0JIJGIA@@std@@@12@@Z
	??$?0_JX@?$duration@_JU?$ratio@$00$00@std@@@chrono@std@@QEAA@AEB_J@Z
	??$?0_JX@?$duration@_JU?$ratio@$00$0DLJKMKAA@@std@@@chrono@std@@QEAA@AEB_J@Z
	??$?0_JX@?$duration@_JU?$ratio@$00$0JIJGIA@@std@@@chrono@std@@QEAA@AEB_J@Z
	??$?0_W@?$allocator@U_Container_proxy@std@@@std@@QEAA@AEBV?$allocator@_W@1@@Z
	??$?4Vslave_instance@fmi@cse@@@?$shared_ptr@Vslave@cse@@@std@@QEAAAEAV01@$$QEAV?$shared_ptr@Vslave_instance@fmi@cse@@@1@@Z
	??$?6U?$char_traits@D@std@@@std@@YAAEAV?$basic_ostream@DU?$char_traits@D@std@@@0@AEAV10@PEBD@Z
	??$?9DD@std@@YA_NAEBV?$allocator@D@0@0@Z
	??$?CVfmu@fmi@cse@@$0A@@?$shared_ptr@Vfmu@fmi@cse@@@std@@QEBAPEAVfmu@fmi@cse@@XZ
	??$?CVimporter@fmi@cse@@$0A@@?$shared_ptr@Vimporter@fmi@cse@@@std@@QEBAPEAVimporter@fmi@cse@@XZ
	??$?CVsingle_slave_observer@cse@@$0A@@?$shared_ptr@Vsingle_slave_observer@cse@@@std@@QEBAPEAVsingle_slave_observer@cse@@XZ
	??$?CVslave@cse@@$0A@@?$shared_ptr@Vslave@cse@@@std@@QEBAPEAVslave@cse@@XZ
	??$?MNU?$ratio@$00$00@std@@NU01@@chrono@std@@YA_NAEBV?$duration@NU?$ratio@$00$00@std@@@01@0@Z
	??$?NNU?$ratio@$00$00@std@@NU01@@chrono@std@@YA_NAEBV?$duration@NU?$ratio@$00$00@std@@@01@0@Z
	??$_Adl_verify_range@V?$_Vector_const_iterator@V?$_Vector_val@U?$_Simple_types@I@std@@@std@@@std@@V12@@std@@YAXAEBV?$_Vector_const_iterator@V?$_Vector_val@U?$_Simple_types@I@std@@@std@@@0@0@Z
	??$_Allocate@$0BA@U_Default_allocate_traits@std@@$0A@@std@@YAPEAX_K@Z
	??$_Allocate_manually_vector_aligned@U_Default_allocate_traits@std@@@std@@YAPEAX_K@Z
	??$_Buy_if_not_node@AEAU?$pair@$$CBJV?$vector@HV?$allocator@H@std@@@std@@@std@@@?$_Tree@V?$_Tmap_traits@JV?$vector@HV?$allocator@H@std@@@std@@U?$less@J@2@V?$allocator@U?$pair@$$CBJV?$vector@HV?$allocator@H@std@@@std@@@std@@@2@$0A@@std@@@std@@IEAAPEAU?$_Tree_node@U?$pair@$$CBJV?$vector@HV?$allocator@H@std@@@std@@@std@@PEAX@1@PEAU21@AEAU?$pair@$$CBJV?$vector@HV?$allocator@H@std@@@std@@@1@@Z
	??$_Buy_if_not_node@AEAU?$pair@$$CBJV?$vector@NV?$allocator@N@std@@@std@@@std@@@?$_Tree@V?$_Tmap_traits@JV?$vector@NV?$allocator@N@std@@@std@@U?$less@J@2@V?$allocator@U?$pair@$$CBJV?$vector@NV?$allocator@N@std@@@std@@@std@@@2@$0A@@std@@@std@@IEAAPEAU?$_Tree_node@U?$pair@$$CBJV?$vector@NV?$allocator@N@std@@@std@@@std@@PEAX@1@PEAU21@AEAU?$pair@$$CBJV?$vector@NV?$allocator@N@std@@@std@@@1@@Z
	??$_Buynode@AEBUpiecewise_construct_t@std@@V?$tuple@AEBJ@2@V?$tuple@$$V@2@@?$_Tree_comp_alloc@V?$_Tmap_traits@JV?$vector@HV?$allocator@H@std@@@std@@U?$less@J@2@V?$allocator@U?$pair@$$CBJV?$vector@HV?$allocator@H@std@@@std@@@std@@@2@$0A@@std@@@std@@QEAAPEAU?$_Tree_node@U?$pair@$$CBJV?$vector@HV?$allocator@H@std@@@std@@@std@@PEAX@1@AEBUpiecewise_construct_t@1@$$QEAV?$tuple@AEBJ@1@$$QEAV?$tuple@$$V@1@@Z
	??$_Buynode@AEBUpiecewise_construct_t@std@@V?$tuple@AEBJ@2@V?$tuple@$$V@2@@?$_Tree_comp_alloc@V?$_Tmap_traits@JV?$vector@NV?$allocator@N@std@@@std@@U?$less@J@2@V?$allocator@U?$pair@$$CBJV?$vector@NV?$allocator@N@std@@@std@@@std@@@2@$0A@@std@@@std@@QEAAPEAU?$_Tree_node@U?$pair@$$CBJV?$vector@NV?$allocator@N@std@@@std@@@std@@PEAX@1@AEBUpiecewise_construct_t@1@$$QEAV?$tuple@AEBJ@1@$$QEAV?$tuple@$$V@1@@Z
	??$_Const_cast@$$CBI@std@@YAPEAIPEBI@Z
	??$_Convert_Source_to_wide@PEBDU_Normal_conversion@filesystem@std@@@filesystem@std@@YA?AV?$basic_string@_WU?$char_traits@_W@std@@V?$allocator@_W@2@@1@AEBQEBDU_Normal_conversion@01@@Z
	??$_Convert_size@_K@std@@YA_K_K@Z
	??$_Convert_stringoid_to_wide@U_Normal_conversion@filesystem@std@@@filesystem@std@@YA?AV?$basic_string@_WU?$char_traits@_W@std@@V?$allocator@_W@2@@1@V?$basic_string_view@DU?$char_traits@D@std@@@1@U_Normal_conversion@01@@Z
	??$_Copy_construct_from@Vsingle_slave_observer@cse@@@?$_Ptr_base@Vsingle_slave_observer@cse@@@std@@IEAAXAEBV?$shared_ptr@Vsingle_slave_observer@cse@@@1@@Z
	??$_Copy_construct_from@Vslave@cse@@@?$_Ptr_base@Vslave@cse@@@std@@IEAAXAEBV?$shared_ptr@Vslave@cse@@@1@@Z
	??$_Copy_memmove@PEAHPEAH@std@@YAPEAHPEAH00@Z
	??$_Copy_memmove@PEAIPEAI@std@@YAPEAIPEAI00@Z
	??$_Copy_memmove@PEANPEAN@std@@YAPEANPEAN00@Z
	??$_Deallocate@$0BA@$0A@@std@@YAXPEAX_K@Z
	??$_Deallocate_plain@V?$allocator@U_Container_proxy@std@@@std@@$0A@@std@@YAXAEAV?$allocator@U_Container_proxy@std@@@0@QEAU_Container_proxy@0@@Z
	??$_Debug_lt_pred@AEAU?$less@J@std@@AEBJAEBJ@std@@YA_NAEAU?$less@J@0@AEBJ1@Z
	??$_Debug_lt_pred@AEBU?$less@J@std@@AEBJAEBJ@std@@YA_NAEBU?$less@J@0@AEBJ1@Z
	??$_Destroy_in_place@V?$basic_string@DU?$char_traits@D@std@@V?$allocator@D@2@@std@@@std@@YAXAEAV?$basic_string@DU?$char_traits@D@std@@V?$allocator@D@2@@0@@Z
	??$_Destroy_range1@V?$allocator@H@std@@@std@@YAXPEAH0AEAV?$allocator@H@0@U?$integral_constant@_N$00@0@@Z
	??$_Destroy_range1@V?$allocator@I@std@@@std@@YAXPEAI0AEAV?$allocator@I@0@U?$integral_constant@_N$00@0@@Z
	??$_Destroy_range1@V?$allocator@N@std@@@std@@YAXPEAN0AEAV?$allocator@N@0@U?$integral_constant@_N$00@0@@Z
	??$_Destroy_range1@V?$allocator@Uvariable_description@cse@@@std@@@std@@YAXPEAUvariable_description@cse@@0AEAV?$allocator@Uvariable_description@cse@@@0@U?$integral_constant@_N$0A@@0@@Z
	??$_Destroy_range1@V?$allocator@V?$shared_ptr@Ucse_observer_s@@@std@@@std@@@std@@YAXPEAV?$shared_ptr@Ucse_observer_s@@@0@0AEAV?$allocator@V?$shared_ptr@Ucse_observer_s@@@std@@@0@U?$integral_constant@_N$0A@@0@@Z
	??$_Destroy_range1@V?$allocator@V?$shared_ptr@Vsingle_slave_observer@cse@@@std@@@std@@@std@@YAXPEAV?$shared_ptr@Vsingle_slave_observer@cse@@@0@0AEAV?$allocator@V?$shared_ptr@Vsingle_slave_observer@cse@@@std@@@0@U?$integral_constant@_N$0A@@0@@Z
	??$_Destroy_range1@V?$allocator@V?$shared_ptr@Vslave@cse@@@std@@@std@@@std@@YAXPEAV?$shared_ptr@Vslave@cse@@@0@0AEAV?$allocator@V?$shared_ptr@Vslave@cse@@@std@@@0@U?$integral_constant@_N$0A@@0@@Z
	??$_Destroy_range@V?$allocator@H@std@@@std@@YAXPEAH0AEAV?$allocator@H@0@@Z
	??$_Destroy_range@V?$allocator@I@std@@@std@@YAXPEAI0AEAV?$allocator@I@0@@Z
	??$_Destroy_range@V?$allocator@N@std@@@std@@YAXPEAN0AEAV?$allocator@N@0@@Z
	??$_Destroy_range@V?$allocator@Uvariable_description@cse@@@std@@@std@@YAXPEAUvariable_description@cse@@0AEAV?$allocator@Uvariable_description@cse@@@0@@Z
	??$_Destroy_range@V?$allocator@V?$shared_ptr@Ucse_observer_s@@@std@@@std@@@std@@YAXPEAV?$shared_ptr@Ucse_observer_s@@@0@0AEAV?$allocator@V?$shared_ptr@Ucse_observer_s@@@std@@@0@@Z
	??$_Destroy_range@V?$allocator@V?$shared_ptr@Vsingle_slave_observer@cse@@@std@@@std@@@std@@YAXPEAV?$shared_ptr@Vsingle_slave_observer@cse@@@0@0AEAV?$allocator@V?$shared_ptr@Vsingle_slave_observer@cse@@@std@@@0@@Z
	??$_Destroy_range@V?$allocator@V?$shared_ptr@Vslave@cse@@@std@@@std@@@std@@YAXPEAV?$shared_ptr@Vslave@cse@@@0@0AEAV?$allocator@V?$shared_ptr@Vslave@cse@@@std@@@0@@Z
	??$_Emplace_back@V?$shared_ptr@Ucse_observer_s@@@std@@@?$_Uninitialized_backout_al@PEAV?$shared_ptr@Ucse_observer_s@@@std@@V?$allocator@V?$shared_ptr@Ucse_observer_s@@@std@@@2@@std@@QEAAX$$QEAV?$shared_ptr@Ucse_observer_s@@@1@@Z
	??$_Emplace_back@V?$shared_ptr@Vsingle_slave_observer@cse@@@std@@@?$_Uninitialized_backout_al@PEAV?$shared_ptr@Vsingle_slave_observer@cse@@@std@@V?$allocator@V?$shared_ptr@Vsingle_slave_observer@cse@@@std@@@2@@std@@QEAAX$$QEAV?$shared_ptr@Vsingle_slave_observer@cse@@@1@@Z
	??$_Emplace_back@V?$shared_ptr@Vslave@cse@@@std@@@?$_Uninitialized_backout_al@PEAV?$shared_ptr@Vslave@cse@@@std@@V?$allocator@V?$shared_ptr@Vslave@cse@@@std@@@2@@std@@QEAAX$$QEAV?$shared_ptr@Vslave@cse@@@1@@Z
	??$_Emplace_back_with_unused_capacity@AEBI@?$vector@IV?$allocator@I@std@@@std@@AEAAAEAIAEBI@Z
	??$_Emplace_back_with_unused_capacity@AEBV?$shared_ptr@Vsingle_slave_observer@cse@@@std@@@?$vector@V?$shared_ptr@Vsingle_slave_observer@cse@@@std@@V?$allocator@V?$shared_ptr@Vsingle_slave_observer@cse@@@std@@@2@@std@@AEAAAEAV?$shared_ptr@Vsingle_slave_observer@cse@@@1@AEBV21@@Z
	??$_Emplace_back_with_unused_capacity@AEBV?$shared_ptr@Vslave@cse@@@std@@@?$vector@V?$shared_ptr@Vslave@cse@@@std@@V?$allocator@V?$shared_ptr@Vslave@cse@@@std@@@2@@std@@AEAAAEAV?$shared_ptr@Vslave@cse@@@1@AEBV21@@Z
	??$_Emplace_back_with_unused_capacity@V?$shared_ptr@Ucse_observer_s@@@std@@@?$vector@V?$shared_ptr@Ucse_observer_s@@@std@@V?$allocator@V?$shared_ptr@Ucse_observer_s@@@std@@@2@@std@@AEAAAEAV?$shared_ptr@Ucse_observer_s@@@1@$$QEAV21@@Z
	??$_Emplace_reallocate@AEBI@?$vector@IV?$allocator@I@std@@@std@@QEAAPEAIQEAIAEBI@Z
	??$_Emplace_reallocate@AEBV?$shared_ptr@Vsingle_slave_observer@cse@@@std@@@?$vector@V?$shared_ptr@Vsingle_slave_observer@cse@@@std@@V?$allocator@V?$shared_ptr@Vsingle_slave_observer@cse@@@std@@@2@@std@@QEAAPEAV?$shared_ptr@Vsingle_slave_observer@cse@@@1@QEAV21@AEBV21@@Z
	??$_Emplace_reallocate@AEBV?$shared_ptr@Vslave@cse@@@std@@@?$vector@V?$shared_ptr@Vslave@cse@@@std@@V?$allocator@V?$shared_ptr@Vslave@cse@@@std@@@2@@std@@QEAAPEAV?$shared_ptr@Vslave@cse@@@1@QEAV21@AEBV21@@Z
	??$_Emplace_reallocate@V?$shared_ptr@Ucse_observer_s@@@std@@@?$vector@V?$shared_ptr@Ucse_observer_s@@@std@@V?$allocator@V?$shared_ptr@Ucse_observer_s@@@std@@@2@@std@@QEAAPEAV?$shared_ptr@Ucse_observer_s@@@1@QEAV21@$$QEAV21@@Z
	??$_Enable_shared_from_this1@Ucse_observer_s@@U1@@std@@YAXAEBV?$shared_ptr@Ucse_observer_s@@@0@PEAUcse_observer_s@@U?$integral_constant@_N$0A@@0@@Z
	??$_Enable_shared_from_this1@Vsingle_slave_observer@cse@@V12@@std@@YAXAEBV?$shared_ptr@Vsingle_slave_observer@cse@@@0@PEAVsingle_slave_observer@cse@@U?$integral_constant@_N$0A@@0@@Z
	??$_Enable_shared_from_this@Ucse_observer_s@@U1@@std@@YAXAEBV?$shared_ptr@Ucse_observer_s@@@0@PEAUcse_observer_s@@@Z
	??$_Enable_shared_from_this@Vsingle_slave_observer@cse@@V12@@std@@YAXAEBV?$shared_ptr@Vsingle_slave_observer@cse@@@0@PEAVsingle_slave_observer@cse@@@Z
	??$_Fgetc@D@std@@YA_NAEADPEAU_iobuf@@@Z
	??$_Find_unchecked1@PEBII@std@@YAPEBIPEBIQEBIAEBIU?$integral_constant@_N$0A@@0@@Z
	??$_Find_unchecked@PEBII@std@@YAPEBIQEBI0AEBI@Z
	??$_Fputc@D@std@@YA_NDPEAU_iobuf@@@Z
	??$_Freenode0@V?$allocator@U?$_Tree_node@U?$pair@$$CBJV?$vector@HV?$allocator@H@std@@@std@@@std@@PEAX@std@@@std@@@?$_Tree_node@U?$pair@$$CBJV?$vector@HV?$allocator@H@std@@@std@@@std@@PEAX@std@@SAXAEAV?$allocator@U?$_Tree_node@U?$pair@$$CBJV?$vector@HV?$allocator@H@std@@@std@@@std@@PEAX@std@@@1@PEAU01@@Z
	??$_Freenode0@V?$allocator@U?$_Tree_node@U?$pair@$$CBJV?$vector@NV?$allocator@N@std@@@std@@@std@@PEAX@std@@@std@@@?$_Tree_node@U?$pair@$$CBJV?$vector@NV?$allocator@N@std@@@std@@@std@@PEAX@std@@SAXAEAV?$allocator@U?$_Tree_node@U?$pair@$$CBJV?$vector@NV?$allocator@N@std@@@std@@@std@@PEAX@std@@@1@PEAU01@@Z
	??$_Get_size_of_n@$00@std@@YA_K_K@Z
	??$_Get_size_of_n@$01@std@@YA_K_K@Z
	??$_Get_size_of_n@$03@std@@YA_K_K@Z
	??$_Get_size_of_n@$07@std@@YA_K_K@Z
	??$_Get_size_of_n@$0BA@@std@@YA_K_K@Z
	??$_Get_size_of_n@$0EI@@std@@YA_K_K@Z
	??$_Get_unwrapped@H@std@@YAPEAHQEAH@Z
	??$_Get_unwrapped@I@std@@YAPEAIQEAI@Z
	??$_Get_unwrapped@N@std@@YAPEANQEAN@Z
	??$_Get_unwrapped@V?$_Vector_const_iterator@V?$_Vector_val@U?$_Simple_types@I@std@@@std@@@std@@$0A@@std@@YAPEBIAEBV?$_Vector_const_iterator@V?$_Vector_val@U?$_Simple_types@I@std@@@std@@@0@@Z
	??$_Get_unwrapped@V?$shared_ptr@Ucse_observer_s@@@std@@@std@@YAPEAV?$shared_ptr@Ucse_observer_s@@@0@QEAV10@@Z
	??$_Get_unwrapped@V?$shared_ptr@Vsingle_slave_observer@cse@@@std@@@std@@YAPEAV?$shared_ptr@Vsingle_slave_observer@cse@@@0@QEAV10@@Z
	??$_Get_unwrapped@V?$shared_ptr@Vslave@cse@@@std@@@std@@YAPEAV?$shared_ptr@Vslave@cse@@@0@QEAV10@@Z
	??$_Get_unwrapped_n@H_J$0A@@std@@YAPEAHQEAH_J@Z
	??$_Get_unwrapped_n@I_J$0A@@std@@YAPEAIQEAI_J@Z
	??$_Get_unwrapped_n@N_J$0A@@std@@YAPEANQEAN_J@Z
	??$_Get_unwrapped_n@V?$shared_ptr@Ucse_observer_s@@@std@@_J$0A@@std@@YAPEAV?$shared_ptr@Ucse_observer_s@@@0@QEAV10@_J@Z
	??$_Get_unwrapped_n@V?$shared_ptr@Vsingle_slave_observer@cse@@@std@@_J$0A@@std@@YAPEAV?$shared_ptr@Vsingle_slave_observer@cse@@@0@QEAV10@_J@Z
	??$_Get_unwrapped_n@V?$shared_ptr@Vslave@cse@@@std@@_J$0A@@std@@YAPEAV?$shared_ptr@Vslave@cse@@@0@QEAV10@_J@Z
	??$_Get_unwrapped_unverified@$$CBD@std@@YAPEBDQEBD@Z
	??$_Getvals@_W@?$time_get@DV?$istreambuf_iterator@DU?$char_traits@D@std@@@std@@@std@@IEAAX_WAEBV_Locinfo@1@@Z
	??$_Getvals@_W@?$time_get@_WV?$istreambuf_iterator@_WU?$char_traits@_W@std@@@std@@@std@@IEAAX_WAEBV_Locinfo@1@@Z
	??$_Idl_distance@PEAHPEAH@std@@YA_JAEBQEAH0@Z
	??$_Idl_distance@PEAIPEAI@std@@YA_JAEBQEAI0@Z
	??$_Idl_distance@PEANPEAN@std@@YA_JAEBQEAN0@Z
	??$_Idl_distance@PEAV?$shared_ptr@Ucse_observer_s@@@std@@PEAV12@@std@@YA_JAEBQEAV?$shared_ptr@Ucse_observer_s@@@0@0@Z
	??$_Idl_distance@PEAV?$shared_ptr@Vsingle_slave_observer@cse@@@std@@PEAV12@@std@@YA_JAEBQEAV?$shared_ptr@Vsingle_slave_observer@cse@@@0@0@Z
	??$_Idl_distance@PEAV?$shared_ptr@Vslave@cse@@@std@@PEAV12@@std@@YA_JAEBQEAV?$shared_ptr@Vslave@cse@@@0@0@Z
	??$_Immortalize@V_Generic_error_category@std@@@std@@YAAEAV_Generic_error_category@0@XZ
	??$_Immortalize@V_System_error_category@std@@@std@@YAAEAV_System_error_category@0@XZ
	??$_Immortalize_impl@V_Generic_error_category@std@@@std@@YAHPEAX0PEAPEAX@Z
	??$_Immortalize_impl@V_System_error_category@std@@@std@@YAHPEAX0PEAPEAX@Z
	??$_Insert_at@AEAU?$pair@$$CBJV?$vector@HV?$allocator@H@std@@@std@@@std@@PEAU?$_Tree_node@U?$pair@$$CBJV?$vector@HV?$allocator@H@std@@@std@@@std@@PEAX@2@@?$_Tree@V?$_Tmap_traits@JV?$vector@HV?$allocator@H@std@@@std@@U?$less@J@2@V?$allocator@U?$pair@$$CBJV?$vector@HV?$allocator@H@std@@@std@@@std@@@2@$0A@@std@@@std@@IEAA?AV?$_Tree_iterator@V?$_Tree_val@U?$_Tree_simple_types@U?$pair@$$CBJV?$vector@HV?$allocator@H@std@@@std@@@std@@@std@@@std@@@1@_NPEAU?$_Tree_node@U?$pair@$$CBJV?$vector@HV?$allocator@H@std@@@std@@@std@@PEAX@1@AEAU?$pair@$$CBJV?$vector@HV?$allocator@H@std@@@std@@@1@1@Z
	??$_Insert_at@AEAU?$pair@$$CBJV?$vector@NV?$allocator@N@std@@@std@@@std@@PEAU?$_Tree_node@U?$pair@$$CBJV?$vector@NV?$allocator@N@std@@@std@@@std@@PEAX@2@@?$_Tree@V?$_Tmap_traits@JV?$vector@NV?$allocator@N@std@@@std@@U?$less@J@2@V?$allocator@U?$pair@$$CBJV?$vector@NV?$allocator@N@std@@@std@@@std@@@2@$0A@@std@@@std@@IEAA?AV?$_Tree_iterator@V?$_Tree_val@U?$_Tree_simple_types@U?$pair@$$CBJV?$vector@NV?$allocator@N@std@@@std@@@std@@@std@@@std@@@1@_NPEAU?$_Tree_node@U?$pair@$$CBJV?$vector@NV?$allocator@N@std@@@std@@@std@@PEAX@1@AEAU?$pair@$$CBJV?$vector@NV?$allocator@N@std@@@std@@@1@1@Z
	??$_Insert_hint@AEAU?$pair@$$CBJV?$vector@HV?$allocator@H@std@@@std@@@std@@PEAU?$_Tree_node@U?$pair@$$CBJV?$vector@HV?$allocator@H@std@@@std@@@std@@PEAX@2@@?$_Tree@V?$_Tmap_traits@JV?$vector@HV?$allocator@H@std@@@std@@U?$less@J@2@V?$allocator@U?$pair@$$CBJV?$vector@HV?$allocator@H@std@@@std@@@std@@@2@$0A@@std@@@std@@IEAA?AV?$_Tree_iterator@V?$_Tree_val@U?$_Tree_simple_types@U?$pair@$$CBJV?$vector@HV?$allocator@H@std@@@std@@@std@@@std@@@std@@@1@V?$_Tree_const_iterator@V?$_Tree_val@U?$_Tree_simple_types@U?$pair@$$CBJV?$vector@HV?$allocator@H@std@@@std@@@std@@@std@@@std@@@1@AEAU?$pair@$$CBJV?$vector@HV?$allocator@H@std@@@std@@@1@PEAU?$_Tree_node@U?$pair@$$CBJV?$vector@HV?$allocator@H@std@@@std@@@std@@PEAX@1@@Z
	??$_Insert_hint@AEAU?$pair@$$CBJV?$vector@NV?$allocator@N@std@@@std@@@std@@PEAU?$_Tree_node@U?$pair@$$CBJV?$vector@NV?$allocator@N@std@@@std@@@std@@PEAX@2@@?$_Tree@V?$_Tmap_traits@JV?$vector@NV?$allocator@N@std@@@std@@U?$less@J@2@V?$allocator@U?$pair@$$CBJV?$vector@NV?$allocator@N@std@@@std@@@std@@@2@$0A@@std@@@std@@IEAA?AV?$_Tree_iterator@V?$_Tree_val@U?$_Tree_simple_types@U?$pair@$$CBJV?$vector@NV?$allocator@N@std@@@std@@@std@@@std@@@std@@@1@V?$_Tree_const_iterator@V?$_Tree_val@U?$_Tree_simple_types@U?$pair@$$CBJV?$vector@NV?$allocator@N@std@@@std@@@std@@@std@@@std@@@1@AEAU?$pair@$$CBJV?$vector@NV?$allocator@N@std@@@std@@@1@PEAU?$_Tree_node@U?$pair@$$CBJV?$vector@NV?$allocator@N@std@@@std@@@std@@PEAX@1@@Z
	??$_Insert_nohint@AEAU?$pair@$$CBJV?$vector@HV?$allocator@H@std@@@std@@@std@@PEAU?$_Tree_node@U?$pair@$$CBJV?$vector@HV?$allocator@H@std@@@std@@@std@@PEAX@2@@?$_Tree@V?$_Tmap_traits@JV?$vector@HV?$allocator@H@std@@@std@@U?$less@J@2@V?$allocator@U?$pair@$$CBJV?$vector@HV?$allocator@H@std@@@std@@@std@@@2@$0A@@std@@@std@@IEAA?AU?$pair@V?$_Tree_iterator@V?$_Tree_val@U?$_Tree_simple_types@U?$pair@$$CBJV?$vector@HV?$allocator@H@std@@@std@@@std@@@std@@@std@@@std@@_N@1@_NAEAU?$pair@$$CBJV?$vector@HV?$allocator@H@std@@@std@@@1@PEAU?$_Tree_node@U?$pair@$$CBJV?$vector@HV?$allocator@H@std@@@std@@@std@@PEAX@1@@Z
	??$_Insert_nohint@AEAU?$pair@$$CBJV?$vector@NV?$allocator@N@std@@@std@@@std@@PEAU?$_Tree_node@U?$pair@$$CBJV?$vector@NV?$allocator@N@std@@@std@@@std@@PEAX@2@@?$_Tree@V?$_Tmap_traits@JV?$vector@NV?$allocator@N@std@@@std@@U?$less@J@2@V?$allocator@U?$pair@$$CBJV?$vector@NV?$allocator@N@std@@@std@@@std@@@2@$0A@@std@@@std@@IEAA?AU?$pair@V?$_Tree_iterator@V?$_Tree_val@U?$_Tree_simple_types@U?$pair@$$CBJV?$vector@NV?$allocator@N@std@@@std@@@std@@@std@@@std@@@std@@_N@1@_NAEAU?$pair@$$CBJV?$vector@NV?$allocator@N@std@@@std@@@1@PEAU?$_Tree_node@U?$pair@$$CBJV?$vector@NV?$allocator@N@std@@@std@@@std@@PEAX@1@@Z
	??$_Kfn@$$CBJV?$vector@HV?$allocator@H@std@@@std@@@?$_Tmap_traits@JV?$vector@HV?$allocator@H@std@@@std@@U?$less@J@2@V?$allocator@U?$pair@$$CBJV?$vector@HV?$allocator@H@std@@@std@@@std@@@2@$0A@@std@@SAAEBJAEBU?$pair@$$CBJV?$vector@HV?$allocator@H@std@@@std@@@1@@Z
	??$_Kfn@$$CBJV?$vector@NV?$allocator@N@std@@@std@@@?$_Tmap_traits@JV?$vector@NV?$allocator@N@std@@@std@@U?$less@J@2@V?$allocator@U?$pair@$$CBJV?$vector@NV?$allocator@N@std@@@std@@@std@@@2@$0A@@std@@SAAEBJAEBU?$pair@$$CBJV?$vector@NV?$allocator@N@std@@@std@@@1@@Z
	??$_Lbound@J@?$_Tree@V?$_Tmap_traits@JV?$vector@HV?$allocator@H@std@@@std@@U?$less@J@2@V?$allocator@U?$pair@$$CBJV?$vector@HV?$allocator@H@std@@@std@@@std@@@2@$0A@@std@@@std@@IEBAPEAU?$_Tree_node@U?$pair@$$CBJV?$vector@HV?$allocator@H@std@@@std@@@std@@PEAX@1@AEBJ@Z
	??$_Lbound@J@?$_Tree@V?$_Tmap_traits@JV?$vector@NV?$allocator@N@std@@@std@@U?$less@J@2@V?$allocator@U?$pair@$$CBJV?$vector@NV?$allocator@N@std@@@std@@@std@@@2@$0A@@std@@@std@@IEBAPEAU?$_Tree_node@U?$pair@$$CBJV?$vector@NV?$allocator@N@std@@@std@@@std@@PEAX@1@AEBJ@Z
	??$_Maklocstr@D@std@@YAPEADPEBDPEADAEBU_Cvtvec@@@Z
	??$_Maklocstr@_W@std@@YAPEA_WPEBDPEA_WAEBU_Cvtvec@@@Z
	??$_Max_value@_K@std@@YAAEB_KAEB_K0@Z
	??$_Min_value@_K@std@@YAAEB_KAEB_K0@Z
	??$_Move_construct_from@Ucse_observer_s@@@?$_Ptr_base@Ucse_observer_s@@@std@@IEAAX$$QEAV01@@Z
	??$_Move_construct_from@Vsingle_slave_observer@cse@@@?$_Ptr_base@Vsingle_slave_observer@cse@@@std@@IEAAX$$QEAV01@@Z
	??$_Move_construct_from@Vslave@cse@@@?$_Ptr_base@Vslave@cse@@@std@@IEAAX$$QEAV01@@Z
	??$_Move_construct_from@Vslave_instance@fmi@cse@@@?$_Ptr_base@Vslave@cse@@@std@@IEAAX$$QEAV?$_Ptr_base@Vslave_instance@fmi@cse@@@1@@Z
	??$_Operator_arrow@AEAV?$_Tree_const_iterator@V?$_Tree_val@U?$_Tree_simple_types@U?$pair@$$CBJV?$vector@HV?$allocator@H@std@@@std@@@std@@@std@@@std@@@std@@@std@@YAPEBU?$pair@$$CBJV?$vector@HV?$allocator@H@std@@@std@@@0@AEAV?$_Tree_const_iterator@V?$_Tree_val@U?$_Tree_simple_types@U?$pair@$$CBJV?$vector@HV?$allocator@H@std@@@std@@@std@@@std@@@std@@@0@U?$integral_constant@_N$0A@@0@@Z
	??$_Operator_arrow@AEAV?$_Tree_const_iterator@V?$_Tree_val@U?$_Tree_simple_types@U?$pair@$$CBJV?$vector@NV?$allocator@N@std@@@std@@@std@@@std@@@std@@@std@@@std@@YAPEBU?$pair@$$CBJV?$vector@NV?$allocator@N@std@@@std@@@0@AEAV?$_Tree_const_iterator@V?$_Tree_val@U?$_Tree_simple_types@U?$pair@$$CBJV?$vector@NV?$allocator@N@std@@@std@@@std@@@std@@@std@@@0@U?$integral_constant@_N$0A@@0@@Z
	??$_Pocma@V?$allocator@D@std@@@std@@YAXAEAV?$allocator@D@0@0@Z
	??$_Pocma@V?$allocator@D@std@@@std@@YAXAEAV?$allocator@D@0@0U?$integral_constant@_N$00@0@@Z
	??$_Ptr_move_cat@HH@std@@YA?AU_Really_trivial_ptr_iterator_tag@0@AEBQEAH0@Z
	??$_Ptr_move_cat@II@std@@YA?AU_Really_trivial_ptr_iterator_tag@0@AEBQEAI0@Z
	??$_Ptr_move_cat@NN@std@@YA?AU_Really_trivial_ptr_iterator_tag@0@AEBQEAN0@Z
	??$_Ptr_move_cat@V?$shared_ptr@Ucse_observer_s@@@std@@V12@@std@@YA?AU_General_ptr_iterator_tag@0@AEBQEAV?$shared_ptr@Ucse_observer_s@@@0@0@Z
	??$_Ptr_move_cat@V?$shared_ptr@Vsingle_slave_observer@cse@@@std@@V12@@std@@YA?AU_General_ptr_iterator_tag@0@AEBQEAV?$shared_ptr@Vsingle_slave_observer@cse@@@0@0@Z
	??$_Ptr_move_cat@V?$shared_ptr@Vslave@cse@@@std@@V12@@std@@YA?AU_General_ptr_iterator_tag@0@AEBQEAV?$shared_ptr@Vslave@cse@@@0@0@Z
	??$_Reallocate_for@V<lambda_138c3d7c38c85abb84c7fc7bfe5747b7>@@D@?$basic_string@DU?$char_traits@D@std@@V?$allocator@D@2@@std@@QEAAAEAV01@_KV<lambda_138c3d7c38c85abb84c7fc7bfe5747b7>@@D@Z
	??$_Reallocate_for@V<lambda_66f57f934f28d61049862f64df852ff0>@@PEBD@?$basic_string@DU?$char_traits@D@std@@V?$allocator@D@2@@std@@QEAAAEAV01@_KV<lambda_66f57f934f28d61049862f64df852ff0>@@PEBD@Z
	??$_Reallocate_grow_by@V<lambda_319d5e083f45f90dcdce5dce53cbb275>@@D@?$basic_string@DU?$char_traits@D@std@@V?$allocator@D@2@@std@@QEAAAEAV01@_KV<lambda_319d5e083f45f90dcdce5dce53cbb275>@@D@Z
	??$_Reallocate_grow_by@V<lambda_65e615be2a453ca0576c979606f46740>@@PEBD_K@?$basic_string@DU?$char_traits@D@std@@V?$allocator@D@2@@std@@QEAAAEAV01@_KV<lambda_65e615be2a453ca0576c979606f46740>@@PEBD_K@Z
	??$_Reallocate_grow_by@V<lambda_a3050a43f3157934f354774ab3dd2e02>@@_K_W@?$basic_string@_WU?$char_traits@_W@std@@V?$allocator@_W@2@@std@@QEAAAEAV01@_KV<lambda_a3050a43f3157934f354774ab3dd2e02>@@_K_W@Z
	??$_Reallocate_grow_by@V<lambda_e1befb086ad3257e3f042a63030725f7>@@_KD@?$basic_string@DU?$char_traits@D@std@@V?$allocator@D@2@@std@@QEAAAEAV01@_KV<lambda_e1befb086ad3257e3f042a63030725f7>@@_KD@Z
	??$_Refancy@PEAD$0A@@std@@YAPEADPEAD@Z
	??$_Resize@V<lambda_2a778761999fc28b0a098902444dd25e>@@@?$vector@NV?$allocator@N@std@@@std@@AEAAX_KV<lambda_2a778761999fc28b0a098902444dd25e>@@@Z
	??$_Resize@V<lambda_9d4f0376838c6e4b6a263e96e2e67082>@@@?$vector@HV?$allocator@H@std@@@std@@AEAAX_KV<lambda_9d4f0376838c6e4b6a263e96e2e67082>@@@Z
	??$_Seek_wrapped@H@std@@YAXAEAPEAHQEAH@Z
	??$_Seek_wrapped@I@std@@YAXAEAPEAIQEAI@Z
	??$_Seek_wrapped@N@std@@YAXAEAPEANQEAN@Z
	??$_Seek_wrapped@V?$_Vector_const_iterator@V?$_Vector_val@U?$_Simple_types@I@std@@@std@@@std@@PEBI@std@@YAXAEAV?$_Vector_const_iterator@V?$_Vector_val@U?$_Simple_types@I@std@@@std@@@0@AEBQEBI@Z
	??$_Seek_wrapped@V?$shared_ptr@Ucse_observer_s@@@std@@@std@@YAXAEAPEAV?$shared_ptr@Ucse_observer_s@@@0@QEAV10@@Z
	??$_Seek_wrapped@V?$shared_ptr@Vsingle_slave_observer@cse@@@std@@@std@@YAXAEAPEAV?$shared_ptr@Vsingle_slave_observer@cse@@@0@QEAV10@@Z
	??$_Seek_wrapped@V?$shared_ptr@Vslave@cse@@@std@@@std@@YAXAEAPEAV?$shared_ptr@Vslave@cse@@@0@QEAV10@@Z
	??$_Set_ptr_rep_and_enable_shared@Ucse_observer_s@@@?$shared_ptr@Ucse_observer_s@@@std@@AEAAXPEAUcse_observer_s@@PEAV_Ref_count_base@1@@Z
	??$_Set_ptr_rep_and_enable_shared@Vsingle_slave_observer@cse@@@?$shared_ptr@Vsingle_slave_observer@cse@@@std@@AEAAXPEAVsingle_slave_observer@cse@@PEAV_Ref_count_base@1@@Z
	??$_Setp@Ucse_observer_s@@@?$shared_ptr@Ucse_observer_s@@@std@@AEAAXPEAUcse_observer_s@@U?$integral_constant@_N$0A@@1@@Z
	??$_Stringoid_from_Source@PEBD@filesystem@std@@YA?AV?$basic_string_view@DU?$char_traits@D@std@@@1@AEBQEBD@Z
	??$_To_xtime@NU?$ratio@$00$00@std@@@std@@YA?AUxtime@@AEBV?$duration@NU?$ratio@$00$00@std@@@chrono@0@@Z
	??$_Try_emplace@AEBJ$$V@?$map@JV?$vector@HV?$allocator@H@std@@@std@@U?$less@J@2@V?$allocator@U?$pair@$$CBJV?$vector@HV?$allocator@H@std@@@std@@@std@@@2@@std@@QEAA?AU?$pair@V?$_Tree_iterator@V?$_Tree_val@U?$_Tree_simple_types@U?$pair@$$CBJV?$vector@HV?$allocator@H@std@@@std@@@std@@@std@@@std@@@std@@_N@1@AEBJ@Z
	??$_Try_emplace@AEBJ$$V@?$map@JV?$vector@NV?$allocator@N@std@@@std@@U?$less@J@2@V?$allocator@U?$pair@$$CBJV?$vector@NV?$allocator@N@std@@@std@@@std@@@2@@std@@QEAA?AU?$pair@V?$_Tree_iterator@V?$_Tree_val@U?$_Tree_simple_types@U?$pair@$$CBJV?$vector@NV?$allocator@N@std@@@std@@@std@@@std@@@std@@@std@@_N@1@AEBJ@Z
	??$_Unfancy@$$CBD@std@@YAPEBDPEBD@Z
	??$_Unfancy@D@std@@YAPEADPEAD@Z
	??$_Unfancy@I@std@@YAPEAIPEAI@Z
	??$_Unfancy@U_Container_proxy@std@@@std@@YAPEAU_Container_proxy@0@PEAU10@@Z
	??$_Unfancy@Uvariable_description@cse@@@std@@YAPEAUvariable_description@cse@@PEAU12@@Z
	??$_Unfancy@V?$shared_ptr@Ucse_observer_s@@@std@@@std@@YAPEAV?$shared_ptr@Ucse_observer_s@@@0@PEAV10@@Z
	??$_Unfancy@V?$shared_ptr@Vsingle_slave_observer@cse@@@std@@@std@@YAPEAV?$shared_ptr@Vsingle_slave_observer@cse@@@0@PEAV10@@Z
	??$_Unfancy@V?$shared_ptr@Vslave@cse@@@std@@@std@@YAPEAV?$shared_ptr@Vslave@cse@@@0@PEAV10@@Z
	??$_Unfancy@_W@std@@YAPEA_WPEA_W@Z
	??$_Unfancy_maybe_null@H@std@@YAPEAHPEAH@Z
	??$_Unfancy_maybe_null@I@std@@YAPEAIPEAI@Z
	??$_Unfancy_maybe_null@N@std@@YAPEANPEAN@Z
	??$_Ungetc@D@std@@YA_NAEBDPEAU_iobuf@@@Z
	??$_Uninitialized_move@PEAHPEAHV?$allocator@H@std@@@std@@YAPEAHQEAH0PEAHAEAV?$allocator@H@0@@Z
	??$_Uninitialized_move@PEAIPEAIV?$allocator@I@std@@@std@@YAPEAIQEAI0PEAIAEAV?$allocator@I@0@@Z
	??$_Uninitialized_move@PEANPEANV?$allocator@N@std@@@std@@YAPEANQEAN0PEANAEAV?$allocator@N@0@@Z
	??$_Uninitialized_move@PEAV?$shared_ptr@Ucse_observer_s@@@std@@PEAV12@V?$allocator@V?$shared_ptr@Ucse_observer_s@@@std@@@2@@std@@YAPEAV?$shared_ptr@Ucse_observer_s@@@0@QEAV10@0PEAV10@AEAV?$allocator@V?$shared_ptr@Ucse_observer_s@@@std@@@0@@Z
	??$_Uninitialized_move@PEAV?$shared_ptr@Vsingle_slave_observer@cse@@@std@@PEAV12@V?$allocator@V?$shared_ptr@Vsingle_slave_observer@cse@@@std@@@2@@std@@YAPEAV?$shared_ptr@Vsingle_slave_observer@cse@@@0@QEAV10@0PEAV10@AEAV?$allocator@V?$shared_ptr@Vsingle_slave_observer@cse@@@std@@@0@@Z
	??$_Uninitialized_move@PEAV?$shared_ptr@Vslave@cse@@@std@@PEAV12@V?$allocator@V?$shared_ptr@Vslave@cse@@@std@@@2@@std@@YAPEAV?$shared_ptr@Vslave@cse@@@0@QEAV10@0PEAV10@AEAV?$allocator@V?$shared_ptr@Vslave@cse@@@std@@@0@@Z
	??$_Uninitialized_move_al_unchecked@HHV?$allocator@H@std@@@std@@YAPEAHQEAH00AEAV?$allocator@H@0@U_Really_trivial_ptr_iterator_tag@0@U?$integral_constant@_N$00@0@@Z
	??$_Uninitialized_move_al_unchecked@IIV?$allocator@I@std@@@std@@YAPEAIQEAI00AEAV?$allocator@I@0@U_Really_trivial_ptr_iterator_tag@0@U?$integral_constant@_N$00@0@@Z
	??$_Uninitialized_move_al_unchecked@NNV?$allocator@N@std@@@std@@YAPEANQEAN00AEAV?$allocator@N@0@U_Really_trivial_ptr_iterator_tag@0@U?$integral_constant@_N$00@0@@Z
	??$_Uninitialized_move_al_unchecked@PEAV?$shared_ptr@Ucse_observer_s@@@std@@PEAV12@V?$allocator@V?$shared_ptr@Ucse_observer_s@@@std@@@2@@std@@YAPEAV?$shared_ptr@Ucse_observer_s@@@0@PEAV10@QEAV10@1AEAV?$allocator@V?$shared_ptr@Ucse_observer_s@@@std@@@0@U_General_ptr_iterator_tag@0@U_Unused_parameter@0@@Z
	??$_Uninitialized_move_al_unchecked@PEAV?$shared_ptr@Vsingle_slave_observer@cse@@@std@@PEAV12@V?$allocator@V?$shared_ptr@Vsingle_slave_observer@cse@@@std@@@2@@std@@YAPEAV?$shared_ptr@Vsingle_slave_observer@cse@@@0@PEAV10@QEAV10@1AEAV?$allocator@V?$shared_ptr@Vsingle_slave_observer@cse@@@std@@@0@U_General_ptr_iterator_tag@0@U_Unused_parameter@0@@Z
	??$_Uninitialized_move_al_unchecked@PEAV?$shared_ptr@Vslave@cse@@@std@@PEAV12@V?$allocator@V?$shared_ptr@Vslave@cse@@@std@@@2@@std@@YAPEAV?$shared_ptr@Vslave@cse@@@0@PEAV10@QEAV10@1AEAV?$allocator@V?$shared_ptr@Vslave@cse@@@std@@@0@U_General_ptr_iterator_tag@0@U_Unused_parameter@0@@Z
	??$_Uninitialized_value_construct_n1@PEAH_KV?$allocator@H@std@@@std@@YAPEAHPEAH_KAEAV?$allocator@H@0@U?$integral_constant@_N$00@0@@Z
	??$_Uninitialized_value_construct_n1@PEAN_KV?$allocator@N@std@@@std@@YAPEANPEAN_KAEAV?$allocator@N@0@U?$integral_constant@_N$00@0@@Z
	??$_Uninitialized_value_construct_n@PEAH_KV?$allocator@H@std@@@std@@YAPEAHPEAH_KAEAV?$allocator@H@0@@Z
	??$_Uninitialized_value_construct_n@PEAN_KV?$allocator@N@std@@@std@@YAPEANPEAN_KAEAV?$allocator@N@0@@Z
	??$_Zero_range@PEAH@std@@YAPEAHQEAH0@Z
	??$_Zero_range@PEAN@std@@YAPEANQEAN0@Z
	??$addressof@$$CBN@std@@YAPEBNAEBN@Z
	??$addressof@$$CBU?$pair@$$CBJV?$vector@HV?$allocator@H@std@@@std@@@std@@@std@@YAPEBU?$pair@$$CBJV?$vector@HV?$allocator@H@std@@@std@@@0@AEBU10@@Z
	??$addressof@$$CBU?$pair@$$CBJV?$vector@NV?$allocator@N@std@@@std@@@std@@@std@@YAPEBU?$pair@$$CBJV?$vector@NV?$allocator@N@std@@@std@@@0@AEBU10@@Z
	??$addressof@$$CBV?$_Tree_val@U?$_Tree_simple_types@U?$pair@$$CBJV?$vector@HV?$allocator@H@std@@@std@@@std@@@std@@@std@@@std@@YAPEBV?$_Tree_val@U?$_Tree_simple_types@U?$pair@$$CBJV?$vector@HV?$allocator@H@std@@@std@@@std@@@std@@@0@AEBV10@@Z
	??$addressof@$$CBV?$_Tree_val@U?$_Tree_simple_types@U?$pair@$$CBJV?$vector@NV?$allocator@N@std@@@std@@@std@@@std@@@std@@@std@@YAPEBV?$_Tree_val@U?$_Tree_simple_types@U?$pair@$$CBJV?$vector@NV?$allocator@N@std@@@std@@@std@@@std@@@0@AEBV10@@Z
	??$addressof@$$CBV?$_Vector_val@U?$_Simple_types@I@std@@@std@@@std@@YAPEBV?$_Vector_val@U?$_Simple_types@I@std@@@0@AEBV10@@Z
	??$addressof@$$CBV?$codecvt@DDU_Mbstatet@@@std@@@std@@YAPEBV?$codecvt@DDU_Mbstatet@@@0@AEBV10@@Z
	??$addressof@$$CBW4cse_execution_state@@@std@@YAPEBW4cse_execution_state@@AEBW41@@Z
	??$addressof@N@std@@YAPEANAEAN@Z
	??$addressof@PEAD@std@@YAPEAPEADAEAPEAD@Z
	??$addressof@PEAU?$_Tree_node@U?$pair@$$CBJV?$vector@HV?$allocator@H@std@@@std@@@std@@PEAX@std@@@std@@YAPEAPEAU?$_Tree_node@U?$pair@$$CBJV?$vector@HV?$allocator@H@std@@@std@@@std@@PEAX@0@AEAPEAU10@@Z
	??$addressof@PEAU?$_Tree_node@U?$pair@$$CBJV?$vector@NV?$allocator@N@std@@@std@@@std@@PEAX@std@@@std@@YAPEAPEAU?$_Tree_node@U?$pair@$$CBJV?$vector@NV?$allocator@N@std@@@std@@@std@@PEAX@0@AEAPEAU10@@Z
	??$addressof@PEA_W@std@@YAPEAPEA_WAEAPEA_W@Z
	??$addressof@U?$pair@$$CBJV?$vector@HV?$allocator@H@std@@@std@@@std@@@std@@YAPEAU?$pair@$$CBJV?$vector@HV?$allocator@H@std@@@std@@@0@AEAU10@@Z
	??$addressof@U?$pair@$$CBJV?$vector@NV?$allocator@N@std@@@std@@@std@@@std@@YAPEAU?$pair@$$CBJV?$vector@NV?$allocator@N@std@@@std@@@0@AEAU10@@Z
	??$addressof@V?$_String_val@U?$_Simple_types@D@std@@@std@@@std@@YAPEAV?$_String_val@U?$_Simple_types@D@std@@@0@AEAV10@@Z
	??$addressof@V?$_String_val@U?$_Simple_types@_W@std@@@std@@@std@@YAPEAV?$_String_val@U?$_Simple_types@_W@std@@@0@AEAV10@@Z
	??$addressof@V?$_Tree_val@U?$_Tree_simple_types@U?$pair@$$CBJV?$vector@HV?$allocator@H@std@@@std@@@std@@@std@@@std@@@std@@YAPEAV?$_Tree_val@U?$_Tree_simple_types@U?$pair@$$CBJV?$vector@HV?$allocator@H@std@@@std@@@std@@@std@@@0@AEAV10@@Z
	??$addressof@V?$_Tree_val@U?$_Tree_simple_types@U?$pair@$$CBJV?$vector@NV?$allocator@N@std@@@std@@@std@@@std@@@std@@@std@@YAPEAV?$_Tree_val@U?$_Tree_simple_types@U?$pair@$$CBJV?$vector@NV?$allocator@N@std@@@std@@@std@@@std@@@0@AEAV10@@Z
	??$addressof@V?$_Vector_val@U?$_Simple_types@H@std@@@std@@@std@@YAPEAV?$_Vector_val@U?$_Simple_types@H@std@@@0@AEAV10@@Z
	??$addressof@V?$_Vector_val@U?$_Simple_types@I@std@@@std@@@std@@YAPEAV?$_Vector_val@U?$_Simple_types@I@std@@@0@AEAV10@@Z
	??$addressof@V?$_Vector_val@U?$_Simple_types@N@std@@@std@@@std@@YAPEAV?$_Vector_val@U?$_Simple_types@N@std@@@0@AEAV10@@Z
	??$addressof@V?$_Vector_val@U?$_Simple_types@V?$shared_ptr@Ucse_observer_s@@@std@@@std@@@std@@@std@@YAPEAV?$_Vector_val@U?$_Simple_types@V?$shared_ptr@Ucse_observer_s@@@std@@@std@@@0@AEAV10@@Z
	??$addressof@V?$_Vector_val@U?$_Simple_types@V?$shared_ptr@Vsingle_slave_observer@cse@@@std@@@std@@@std@@@std@@YAPEAV?$_Vector_val@U?$_Simple_types@V?$shared_ptr@Vsingle_slave_observer@cse@@@std@@@std@@@0@AEAV10@@Z
	??$addressof@V?$_Vector_val@U?$_Simple_types@V?$shared_ptr@Vslave@cse@@@std@@@std@@@std@@@std@@YAPEAV?$_Vector_val@U?$_Simple_types@V?$shared_ptr@Vslave@cse@@@std@@@std@@@0@AEAV10@@Z
	??$addressof@V?$basic_filebuf@DU?$char_traits@D@std@@@std@@@std@@YAPEAV?$basic_filebuf@DU?$char_traits@D@std@@@0@AEAV10@@Z
	??$addressof@V?$basic_ofstream@DU?$char_traits@D@std@@@std@@@std@@YAPEAV?$basic_ofstream@DU?$char_traits@D@std@@@0@AEAV10@@Z
	??$addressof@V?$basic_string@DU?$char_traits@D@std@@V?$allocator@D@2@@std@@@std@@YAPEAV?$basic_string@DU?$char_traits@D@std@@V?$allocator@D@2@@0@AEAV10@@Z
	??$addressof@W4cse_execution_state@@@std@@YAPEAW4cse_execution_state@@AEAW41@@Z
	??$construct@IAEBI@?$_Default_allocator_traits@V?$allocator@I@std@@@std@@SAXAEAV?$allocator@I@1@QEAIAEBI@Z
	??$construct@PEADAEBQEAD@?$_Default_allocator_traits@V?$allocator@D@std@@@std@@SAXAEAV?$allocator@D@1@QEAPEADAEBQEAD@Z
	??$construct@PEAU?$_Tree_node@U?$pair@$$CBJV?$vector@HV?$allocator@H@std@@@std@@@std@@PEAX@std@@AEAPEAU12@@?$_Default_allocator_traits@V?$allocator@U?$_Tree_node@U?$pair@$$CBJV?$vector@HV?$allocator@H@std@@@std@@@std@@PEAX@std@@@std@@@std@@SAXAEAV?$allocator@U?$_Tree_node@U?$pair@$$CBJV?$vector@HV?$allocator@H@std@@@std@@@std@@PEAX@std@@@1@QEAPEAU?$_Tree_node@U?$pair@$$CBJV?$vector@HV?$allocator@H@std@@@std@@@std@@PEAX@1@AEAPEAU31@@Z
	??$construct@PEAU?$_Tree_node@U?$pair@$$CBJV?$vector@NV?$allocator@N@std@@@std@@@std@@PEAX@std@@AEAPEAU12@@?$_Default_allocator_traits@V?$allocator@U?$_Tree_node@U?$pair@$$CBJV?$vector@NV?$allocator@N@std@@@std@@@std@@PEAX@std@@@std@@@std@@SAXAEAV?$allocator@U?$_Tree_node@U?$pair@$$CBJV?$vector@NV?$allocator@N@std@@@std@@@std@@PEAX@std@@@1@QEAPEAU?$_Tree_node@U?$pair@$$CBJV?$vector@NV?$allocator@N@std@@@std@@@std@@PEAX@1@AEAPEAU31@@Z
	??$construct@PEA_WAEBQEA_W@?$_Default_allocator_traits@V?$allocator@_W@std@@@std@@SAXAEAV?$allocator@_W@1@QEAPEA_WAEBQEA_W@Z
	??$construct@U?$pair@$$CBJV?$vector@HV?$allocator@H@std@@@std@@@std@@AEBUpiecewise_construct_t@2@V?$tuple@AEBJ@2@V?$tuple@$$V@2@@?$_Default_allocator_traits@V?$allocator@U?$_Tree_node@U?$pair@$$CBJV?$vector@HV?$allocator@H@std@@@std@@@std@@PEAX@std@@@std@@@std@@SAXAEAV?$allocator@U?$_Tree_node@U?$pair@$$CBJV?$vector@HV?$allocator@H@std@@@std@@@std@@PEAX@std@@@1@QEAU?$pair@$$CBJV?$vector@HV?$allocator@H@std@@@std@@@1@AEBUpiecewise_construct_t@1@$$QEAV?$tuple@AEBJ@1@$$QEAV?$tuple@$$V@1@@Z
	??$construct@U?$pair@$$CBJV?$vector@NV?$allocator@N@std@@@std@@@std@@AEBUpiecewise_construct_t@2@V?$tuple@AEBJ@2@V?$tuple@$$V@2@@?$_Default_allocator_traits@V?$allocator@U?$_Tree_node@U?$pair@$$CBJV?$vector@NV?$allocator@N@std@@@std@@@std@@PEAX@std@@@std@@@std@@SAXAEAV?$allocator@U?$_Tree_node@U?$pair@$$CBJV?$vector@NV?$allocator@N@std@@@std@@@std@@PEAX@std@@@1@QEAU?$pair@$$CBJV?$vector@NV?$allocator@N@std@@@std@@@1@AEBUpiecewise_construct_t@1@$$QEAV?$tuple@AEBJ@1@$$QEAV?$tuple@$$V@1@@Z
	??$construct@U_Container_proxy@std@@U12@@?$_Default_allocator_traits@V?$allocator@U_Container_proxy@std@@@std@@@std@@SAXAEAV?$allocator@U_Container_proxy@std@@@1@QEAU_Container_proxy@1@$$QEAU31@@Z
	??$construct@V?$shared_ptr@Ucse_observer_s@@@std@@V12@@?$_Default_allocator_traits@V?$allocator@V?$shared_ptr@Ucse_observer_s@@@std@@@std@@@std@@SAXAEAV?$allocator@V?$shared_ptr@Ucse_observer_s@@@std@@@1@QEAV?$shared_ptr@Ucse_observer_s@@@1@$$QEAV31@@Z
	??$construct@V?$shared_ptr@Vsingle_slave_observer@cse@@@std@@AEBV12@@?$_Default_allocator_traits@V?$allocator@V?$shared_ptr@Vsingle_slave_observer@cse@@@std@@@std@@@std@@SAXAEAV?$allocator@V?$shared_ptr@Vsingle_slave_observer@cse@@@std@@@1@QEAV?$shared_ptr@Vsingle_slave_observer@cse@@@1@AEBV31@@Z
	??$construct@V?$shared_ptr@Vsingle_slave_observer@cse@@@std@@V12@@?$_Default_allocator_traits@V?$allocator@V?$shared_ptr@Vsingle_slave_observer@cse@@@std@@@std@@@std@@SAXAEAV?$allocator@V?$shared_ptr@Vsingle_slave_observer@cse@@@std@@@1@QEAV?$shared_ptr@Vsingle_slave_observer@cse@@@1@$$QEAV31@@Z
	??$construct@V?$shared_ptr@Vslave@cse@@@std@@AEBV12@@?$_Default_allocator_traits@V?$allocator@V?$shared_ptr@Vslave@cse@@@std@@@std@@@std@@SAXAEAV?$allocator@V?$shared_ptr@Vslave@cse@@@std@@@1@QEAV?$shared_ptr@Vslave@cse@@@1@AEBV31@@Z
	??$construct@V?$shared_ptr@Vslave@cse@@@std@@V12@@?$_Default_allocator_traits@V?$allocator@V?$shared_ptr@Vslave@cse@@@std@@@std@@@std@@SAXAEAV?$allocator@V?$shared_ptr@Vslave@cse@@@std@@@1@QEAV?$shared_ptr@Vslave@cse@@@1@$$QEAV31@@Z
	??$destroy@PEAD@?$_Default_allocator_traits@V?$allocator@D@std@@@std@@SAXAEAV?$allocator@D@1@QEAPEAD@Z
	??$destroy@PEAU?$_Tree_node@U?$pair@$$CBJV?$vector@HV?$allocator@H@std@@@std@@@std@@PEAX@std@@@?$_Default_allocator_traits@V?$allocator@U?$_Tree_node@U?$pair@$$CBJV?$vector@HV?$allocator@H@std@@@std@@@std@@PEAX@std@@@std@@@std@@SAXAEAV?$allocator@U?$_Tree_node@U?$pair@$$CBJV?$vector@HV?$allocator@H@std@@@std@@@std@@PEAX@std@@@1@QEAPEAU?$_Tree_node@U?$pair@$$CBJV?$vector@HV?$allocator@H@std@@@std@@@std@@PEAX@1@@Z
	??$destroy@PEAU?$_Tree_node@U?$pair@$$CBJV?$vector@NV?$allocator@N@std@@@std@@@std@@PEAX@std@@@?$_Default_allocator_traits@V?$allocator@U?$_Tree_node@U?$pair@$$CBJV?$vector@NV?$allocator@N@std@@@std@@@std@@PEAX@std@@@std@@@std@@SAXAEAV?$allocator@U?$_Tree_node@U?$pair@$$CBJV?$vector@NV?$allocator@N@std@@@std@@@std@@PEAX@std@@@1@QEAPEAU?$_Tree_node@U?$pair@$$CBJV?$vector@NV?$allocator@N@std@@@std@@@std@@PEAX@1@@Z
	??$destroy@PEA_W@?$_Default_allocator_traits@V?$allocator@_W@std@@@std@@SAXAEAV?$allocator@_W@1@QEAPEA_W@Z
	??$destroy@U?$pair@$$CBJV?$vector@HV?$allocator@H@std@@@std@@@std@@@?$_Default_allocator_traits@V?$allocator@U?$_Tree_node@U?$pair@$$CBJV?$vector@HV?$allocator@H@std@@@std@@@std@@PEAX@std@@@std@@@std@@SAXAEAV?$allocator@U?$_Tree_node@U?$pair@$$CBJV?$vector@HV?$allocator@H@std@@@std@@@std@@PEAX@std@@@1@QEAU?$pair@$$CBJV?$vector@HV?$allocator@H@std@@@std@@@1@@Z
	??$destroy@U?$pair@$$CBJV?$vector@NV?$allocator@N@std@@@std@@@std@@@?$_Default_allocator_traits@V?$allocator@U?$_Tree_node@U?$pair@$$CBJV?$vector@NV?$allocator@N@std@@@std@@@std@@PEAX@std@@@std@@@std@@SAXAEAV?$allocator@U?$_Tree_node@U?$pair@$$CBJV?$vector@NV?$allocator@N@std@@@std@@@std@@PEAX@std@@@1@QEAU?$pair@$$CBJV?$vector@NV?$allocator@N@std@@@std@@@1@@Z
	??$destroy@U_Container_proxy@std@@@?$_Default_allocator_traits@V?$allocator@U_Container_proxy@std@@@std@@@std@@SAXAEAV?$allocator@U_Container_proxy@std@@@1@QEAU_Container_proxy@1@@Z
	??$destroy@Uvariable_description@cse@@@?$_Default_allocator_traits@V?$allocator@Uvariable_description@cse@@@std@@@std@@SAXAEAV?$allocator@Uvariable_description@cse@@@1@QEAUvariable_description@cse@@@Z
	??$destroy@V?$shared_ptr@Ucse_observer_s@@@std@@@?$_Default_allocator_traits@V?$allocator@V?$shared_ptr@Ucse_observer_s@@@std@@@std@@@std@@SAXAEAV?$allocator@V?$shared_ptr@Ucse_observer_s@@@std@@@1@QEAV?$shared_ptr@Ucse_observer_s@@@1@@Z
	??$destroy@V?$shared_ptr@Vsingle_slave_observer@cse@@@std@@@?$_Default_allocator_traits@V?$allocator@V?$shared_ptr@Vsingle_slave_observer@cse@@@std@@@std@@@std@@SAXAEAV?$allocator@V?$shared_ptr@Vsingle_slave_observer@cse@@@std@@@1@QEAV?$shared_ptr@Vsingle_slave_observer@cse@@@1@@Z
	??$destroy@V?$shared_ptr@Vslave@cse@@@std@@@?$_Default_allocator_traits@V?$allocator@V?$shared_ptr@Vslave@cse@@@std@@@std@@@std@@SAXAEAV?$allocator@V?$shared_ptr@Vslave@cse@@@std@@@1@QEAV?$shared_ptr@Vslave@cse@@@1@@Z
	??$duration_cast@V?$duration@_JU?$ratio@$00$00@std@@@chrono@std@@_JU?$ratio@$00$0DLJKMKAA@@3@X@chrono@std@@YA?AV?$duration@_JU?$ratio@$00$00@std@@@01@AEBV?$duration@_JU?$ratio@$00$0DLJKMKAA@@std@@@01@@Z
	??$duration_cast@V?$duration@_JU?$ratio@$00$0DLJKMKAA@@std@@@chrono@std@@NU?$ratio@$00$00@3@X@chrono@std@@YA?AV?$duration@_JU?$ratio@$00$0DLJKMKAA@@std@@@01@AEBV?$duration@NU?$ratio@$00$00@std@@@01@@Z
	??$duration_cast@V?$duration@_JU?$ratio@$00$0DLJKMKAA@@std@@@chrono@std@@_JU?$ratio@$00$00@3@X@chrono@std@@YA?AV?$duration@_JU?$ratio@$00$0DLJKMKAA@@std@@@01@AEBV?$duration@_JU?$ratio@$00$00@std@@@01@@Z
	??$duration_cast@V?$duration@_JU?$ratio@$00$0DLJKMKAA@@std@@@chrono@std@@_JU?$ratio@$00$0JIJGIA@@3@X@chrono@std@@YA?AV?$duration@_JU?$ratio@$00$0DLJKMKAA@@std@@@01@AEBV?$duration@_JU?$ratio@$00$0JIJGIA@@std@@@01@@Z
	??$emplace_back@AEBI@?$vector@IV?$allocator@I@std@@@std@@QEAAAEAIAEBI@Z
	??$emplace_back@AEBV?$shared_ptr@Vsingle_slave_observer@cse@@@std@@@?$vector@V?$shared_ptr@Vsingle_slave_observer@cse@@@std@@V?$allocator@V?$shared_ptr@Vsingle_slave_observer@cse@@@std@@@2@@std@@QEAAAEAV?$shared_ptr@Vsingle_slave_observer@cse@@@1@AEBV21@@Z
	??$emplace_back@AEBV?$shared_ptr@Vslave@cse@@@std@@@?$vector@V?$shared_ptr@Vslave@cse@@@std@@V?$allocator@V?$shared_ptr@Vslave@cse@@@std@@@2@@std@@QEAAAEAV?$shared_ptr@Vslave@cse@@@1@AEBV21@@Z
	??$emplace_back@V?$shared_ptr@Ucse_observer_s@@@std@@@?$vector@V?$shared_ptr@Ucse_observer_s@@@std@@V?$allocator@V?$shared_ptr@Ucse_observer_s@@@std@@@2@@std@@QEAAAEAV?$shared_ptr@Ucse_observer_s@@@1@$$QEAV21@@Z
	??$emplace_hint@AEBUpiecewise_construct_t@std@@V?$tuple@AEBJ@2@V?$tuple@$$V@2@@?$_Tree@V?$_Tmap_traits@JV?$vector@HV?$allocator@H@std@@@std@@U?$less@J@2@V?$allocator@U?$pair@$$CBJV?$vector@HV?$allocator@H@std@@@std@@@std@@@2@$0A@@std@@@std@@QEAA?AV?$_Tree_iterator@V?$_Tree_val@U?$_Tree_simple_types@U?$pair@$$CBJV?$vector@HV?$allocator@H@std@@@std@@@std@@@std@@@std@@@1@V?$_Tree_const_iterator@V?$_Tree_val@U?$_Tree_simple_types@U?$pair@$$CBJV?$vector@HV?$allocator@H@std@@@std@@@std@@@std@@@std@@@1@AEBUpiecewise_construct_t@1@$$QEAV?$tuple@AEBJ@1@$$QEAV?$tuple@$$V@1@@Z
	??$emplace_hint@AEBUpiecewise_construct_t@std@@V?$tuple@AEBJ@2@V?$tuple@$$V@2@@?$_Tree@V?$_Tmap_traits@JV?$vector@NV?$allocator@N@std@@@std@@U?$less@J@2@V?$allocator@U?$pair@$$CBJV?$vector@NV?$allocator@N@std@@@std@@@std@@@2@$0A@@std@@@std@@QEAA?AV?$_Tree_iterator@V?$_Tree_val@U?$_Tree_simple_types@U?$pair@$$CBJV?$vector@NV?$allocator@N@std@@@std@@@std@@@std@@@std@@@1@V?$_Tree_const_iterator@V?$_Tree_val@U?$_Tree_simple_types@U?$pair@$$CBJV?$vector@NV?$allocator@N@std@@@std@@@std@@@std@@@std@@@1@AEBUpiecewise_construct_t@1@$$QEAV?$tuple@AEBJ@1@$$QEAV?$tuple@$$V@1@@Z
	??$find@V?$_Vector_const_iterator@V?$_Vector_val@U?$_Simple_types@I@std@@@std@@@std@@I@std@@YA?AV?$_Vector_const_iterator@V?$_Vector_val@U?$_Simple_types@I@std@@@std@@@0@V10@V10@AEBI@Z
	??$forward@AEAPEAU?$_Tree_node@U?$pair@$$CBJV?$vector@HV?$allocator@H@std@@@std@@@std@@PEAX@std@@@std@@YAAEAPEAU?$_Tree_node@U?$pair@$$CBJV?$vector@HV?$allocator@H@std@@@std@@@std@@PEAX@0@AEAPEAU10@@Z
	??$forward@AEAPEAU?$_Tree_node@U?$pair@$$CBJV?$vector@NV?$allocator@N@std@@@std@@@std@@PEAX@std@@@std@@YAAEAPEAU?$_Tree_node@U?$pair@$$CBJV?$vector@NV?$allocator@N@std@@@std@@@std@@PEAX@0@AEAPEAU10@@Z
	??$forward@AEAPEAUcse_execution_s@@@std@@YAAEAPEAUcse_execution_s@@AEAPEAU1@@Z
	??$forward@AEAPEAUcse_observer_s@@@std@@YAAEAPEAUcse_observer_s@@AEAPEAU1@@Z
	??$forward@AEAPEAUcse_slave_s@@@std@@YAAEAPEAUcse_slave_s@@AEAPEAU1@@Z
	??$forward@AEAPEAV_Facet_base@std@@@std@@YAAEAPEAV_Facet_base@0@AEAPEAV10@@Z
	??$forward@AEAU?$pair@$$CBJV?$vector@HV?$allocator@H@std@@@std@@@std@@@std@@YAAEAU?$pair@$$CBJV?$vector@HV?$allocator@H@std@@@std@@@0@AEAU10@@Z
	??$forward@AEAU?$pair@$$CBJV?$vector@NV?$allocator@N@std@@@std@@@std@@@std@@YAAEAU?$pair@$$CBJV?$vector@NV?$allocator@N@std@@@std@@@0@AEAU10@@Z
	??$forward@AEAV?$_Tree_const_iterator@V?$_Tree_val@U?$_Tree_simple_types@U?$pair@$$CBJV?$vector@HV?$allocator@H@std@@@std@@@std@@@std@@@std@@@std@@@std@@YAAEAV?$_Tree_const_iterator@V?$_Tree_val@U?$_Tree_simple_types@U?$pair@$$CBJV?$vector@HV?$allocator@H@std@@@std@@@std@@@std@@@std@@@0@AEAV10@@Z
	??$forward@AEAV?$_Tree_const_iterator@V?$_Tree_val@U?$_Tree_simple_types@U?$pair@$$CBJV?$vector@NV?$allocator@N@std@@@std@@@std@@@std@@@std@@@std@@@std@@YAAEAV?$_Tree_const_iterator@V?$_Tree_val@U?$_Tree_simple_types@U?$pair@$$CBJV?$vector@NV?$allocator@N@std@@@std@@@std@@@std@@@std@@@0@AEAV10@@Z
	??$forward@AEAV?$_Tree_iterator@V?$_Tree_val@U?$_Tree_simple_types@U?$pair@$$CBJV?$vector@HV?$allocator@H@std@@@std@@@std@@@std@@@std@@@std@@@std@@YAAEAV?$_Tree_iterator@V?$_Tree_val@U?$_Tree_simple_types@U?$pair@$$CBJV?$vector@HV?$allocator@H@std@@@std@@@std@@@std@@@std@@@0@AEAV10@@Z
	??$forward@AEAV?$_Tree_iterator@V?$_Tree_val@U?$_Tree_simple_types@U?$pair@$$CBJV?$vector@NV?$allocator@N@std@@@std@@@std@@@std@@@std@@@std@@@std@@YAAEAV?$_Tree_iterator@V?$_Tree_val@U?$_Tree_simple_types@U?$pair@$$CBJV?$vector@NV?$allocator@N@std@@@std@@@std@@@std@@@std@@@0@AEAV10@@Z
	??$forward@AEAV?$shared_ptr@Vslave@cse@@@std@@@std@@YAAEAV?$shared_ptr@Vslave@cse@@@0@AEAV10@@Z
	??$forward@AEA_K@std@@YAAEA_KAEA_K@Z
	??$forward@AEBI@std@@YAAEBIAEBI@Z
	??$forward@AEBJ@std@@YAAEBJAEBJ@Z
	??$forward@AEBQEAD@std@@YAAEBQEADAEBQEAD@Z
	??$forward@AEBQEA_W@std@@YAAEBQEA_WAEBQEA_W@Z
	??$forward@AEBU?$less@J@std@@@std@@YAAEBU?$less@J@0@AEBU10@@Z
	??$forward@AEBUpiecewise_construct_t@std@@@std@@YAAEBUpiecewise_construct_t@0@AEBU10@@Z
	??$forward@AEBV?$shared_ptr@Vsingle_slave_observer@cse@@@std@@@std@@YAAEBV?$shared_ptr@Vsingle_slave_observer@cse@@@0@AEBV10@@Z
	??$forward@AEBV?$shared_ptr@Vslave@cse@@@std@@@std@@YAAEBV?$shared_ptr@Vslave@cse@@@0@AEBV10@@Z
	??$forward@PEBD@std@@YA$$QEAPEBDAEAPEBD@Z
	??$forward@U_Container_proxy@std@@@std@@YA$$QEAU_Container_proxy@0@AEAU10@@Z
	??$forward@U_Zero_then_variadic_args_t@std@@@std@@YA$$QEAU_Zero_then_variadic_args_t@0@AEAU10@@Z
	??$forward@V?$_Tree_iterator@V?$_Tree_val@U?$_Tree_simple_types@U?$pair@$$CBJV?$vector@HV?$allocator@H@std@@@std@@@std@@@std@@@std@@@std@@@std@@YA$$QEAV?$_Tree_iterator@V?$_Tree_val@U?$_Tree_simple_types@U?$pair@$$CBJV?$vector@HV?$allocator@H@std@@@std@@@std@@@std@@@std@@@0@AEAV10@@Z
	??$forward@V?$_Tree_iterator@V?$_Tree_val@U?$_Tree_simple_types@U?$pair@$$CBJV?$vector@NV?$allocator@N@std@@@std@@@std@@@std@@@std@@@std@@@std@@YA$$QEAV?$_Tree_iterator@V?$_Tree_val@U?$_Tree_simple_types@U?$pair@$$CBJV?$vector@NV?$allocator@N@std@@@std@@@std@@@std@@@std@@@0@AEAV10@@Z
	??$forward@V?$allocator@D@std@@@std@@YA$$QEAV?$allocator@D@0@AEAV10@@Z
	??$forward@V?$allocator@_W@std@@@std@@YA$$QEAV?$allocator@_W@0@AEAV10@@Z
	??$forward@V?$basic_string@DU?$char_traits@D@std@@V?$allocator@D@2@@std@@@std@@YA$$QEAV?$basic_string@DU?$char_traits@D@std@@V?$allocator@D@2@@0@AEAV10@@Z
	??$forward@V?$shared_ptr@Ucse_observer_s@@@std@@@std@@YA$$QEAV?$shared_ptr@Ucse_observer_s@@@0@AEAV10@@Z
	??$forward@V?$shared_ptr@Vsingle_slave_observer@cse@@@std@@@std@@YA$$QEAV?$shared_ptr@Vsingle_slave_observer@cse@@@0@AEAV10@@Z
	??$forward@V?$shared_ptr@Vslave@cse@@@std@@@std@@YA$$QEAV?$shared_ptr@Vslave@cse@@@0@AEAV10@@Z
	??$forward@V?$tuple@$$V@std@@@std@@YA$$QEAV?$tuple@$$V@0@AEAV10@@Z
	??$forward@V?$tuple@AEBJ@std@@@std@@YA$$QEAV?$tuple@AEBJ@0@AEAV10@@Z
	??$forward@_N@std@@YA$$QEA_NAEA_N@Z
	??$forward_as_tuple@$$V@std@@YA?AV?$tuple@$$V@0@XZ
	??$forward_as_tuple@AEBJ@std@@YA?AV?$tuple@AEBJ@0@AEBJ@Z
	??$get@$0A@AEBJ@std@@YAAEBJ$$QEAV?$tuple@AEBJ@0@@Z
	??$make_shared@Vsingle_slave_observer@cse@@AEAV?$shared_ptr@Vslave@cse@@@std@@@std@@YA?AV?$shared_ptr@Vsingle_slave_observer@cse@@@0@AEAV?$shared_ptr@Vslave@cse@@@0@@Z
	??$make_span@$$CBH@gsl@@YA?AV?$span@$$CBH$0?0@0@PEBH_J@Z
	??$make_span@$$CBI@gsl@@YA?AV?$span@$$CBI$0?0@0@PEBI_J@Z
	??$make_span@$$CBN@gsl@@YA?AV?$span@$$CBN$0?0@0@PEBN_J@Z
	??$make_span@D@gsl@@YA?AV?$span@D$0?0@0@PEAD_J@Z
	??$make_span@V?$vector@HV?$allocator@H@std@@@std@@@gsl@@YA?AV?$span@H$0?0@0@AEAV?$vector@HV?$allocator@H@std@@@std@@@Z
	??$make_span@V?$vector@IV?$allocator@I@std@@@std@@@gsl@@YA?AV?$span@I$0?0@0@AEAV?$vector@IV?$allocator@I@std@@@std@@@Z
	??$make_span@V?$vector@NV?$allocator@N@std@@@std@@@gsl@@YA?AV?$span@N$0?0@0@AEAV?$vector@NV?$allocator@N@std@@@std@@@Z
	??$make_unique@Ucse_execution_s@@$$V$0A@@std@@YA?AV?$unique_ptr@Ucse_execution_s@@U?$default_delete@Ucse_execution_s@@@std@@@0@XZ
	??$make_unique@Ucse_observer_s@@$$V$0A@@std@@YA?AV?$unique_ptr@Ucse_observer_s@@U?$default_delete@Ucse_observer_s@@@std@@@0@XZ
	??$make_unique@Ucse_slave_s@@$$V$0A@@std@@YA?AV?$unique_ptr@Ucse_slave_s@@U?$default_delete@Ucse_slave_s@@@std@@@0@XZ
	??$move@AEAD@std@@YA$$QEADAEAD@Z
	??$move@AEAPEAD@std@@YA$$QEAPEADAEAPEAD@Z
	??$move@AEAPEAV_Ref_count_base@std@@@std@@YA$$QEAPEAV_Ref_count_base@0@AEAPEAV10@@Z
	??$move@AEAPEAVlocale@std@@@std@@YA$$QEAPEAVlocale@0@AEAPEAV10@@Z
	??$move@AEAPEAVslave@cse@@@std@@YA$$QEAPEAVslave@cse@@AEAPEAV12@@Z
	??$move@AEAV?$allocator@D@std@@@std@@YA$$QEAV?$allocator@D@0@AEAV10@@Z
	??$move@AEAV?$allocator@_W@std@@@std@@YA$$QEAV?$allocator@_W@0@AEAV10@@Z
	??$move@AEAV?$basic_ofstream@DU?$char_traits@D@std@@@std@@@std@@YA$$QEAV?$basic_ofstream@DU?$char_traits@D@std@@@0@AEAV10@@Z
	??$move@AEAV?$basic_string@DU?$char_traits@D@std@@V?$allocator@D@2@@std@@@std@@YA$$QEAV?$basic_string@DU?$char_traits@D@std@@V?$allocator@D@2@@0@AEAV10@@Z
	??$move@AEAV?$basic_string@_WU?$char_traits@_W@std@@V?$allocator@_W@2@@std@@@std@@YA$$QEAV?$basic_string@_WU?$char_traits@_W@std@@V?$allocator@_W@2@@0@AEAV10@@Z
	??$move@AEAV?$optional@V?$basic_string@DU?$char_traits@D@std@@V?$allocator@D@2@@std@@@std@@@std@@YA$$QEAV?$optional@V?$basic_string@DU?$char_traits@D@std@@V?$allocator@D@2@@std@@@0@AEAV10@@Z
	??$move@AEAV?$shared_ptr@Ucse_observer_s@@@std@@@std@@YA$$QEAV?$shared_ptr@Ucse_observer_s@@@0@AEAV10@@Z
	??$move@AEAV?$shared_ptr@Vsingle_slave_observer@cse@@@std@@@std@@YA$$QEAV?$shared_ptr@Vsingle_slave_observer@cse@@@0@AEAV10@@Z
	??$move@AEAV?$shared_ptr@Vslave@cse@@@std@@@std@@YA$$QEAV?$shared_ptr@Vslave@cse@@@0@AEAV10@@Z
	??$move@AEAV?$shared_ptr@Vslave_instance@fmi@cse@@@std@@@std@@YA$$QEAV?$shared_ptr@Vslave_instance@fmi@cse@@@0@AEAV10@@Z
	??$move@AEAV?$tuple@AEBJ@std@@@std@@YA$$QEAV?$tuple@AEBJ@0@AEAV10@@Z
	??$narrow@_J_K@gsl@@YA_J_K@Z
	??$narrow_cast@_JAEA_K@gsl@@YA_JAEA_K@Z
	??$sleep_for@NU?$ratio@$00$00@std@@@this_thread@std@@YAXAEBV?$duration@NU?$ratio@$00$00@std@@@chrono@1@@Z
	??$swap@DX@std@@YAXAEAD0@Z
	??$swap@PEADX@std@@YAXAEAPEAD0@Z
	??$swap@PEAV_Ref_count_base@std@@X@std@@YAXAEAPEAV_Ref_count_base@0@0@Z
	??$swap@PEAVlocale@std@@X@std@@YAXAEAPEAVlocale@0@0@Z
	??$swap@PEAVslave@cse@@X@std@@YAXAEAPEAVslave@cse@@0@Z
	??$throw_exception@Unarrowing_error@gsl@@@details@gsl@@YAX$$QEAUnarrowing_error@1@@Z
	??$try_emplace@$$V@?$map@JV?$vector@HV?$allocator@H@std@@@std@@U?$less@J@2@V?$allocator@U?$pair@$$CBJV?$vector@HV?$allocator@H@std@@@std@@@std@@@2@@std@@QEAA?AU?$pair@V?$_Tree_iterator@V?$_Tree_val@U?$_Tree_simple_types@U?$pair@$$CBJV?$vector@HV?$allocator@H@std@@@std@@@std@@@std@@@std@@@std@@_N@1@AEBJ@Z
	??$try_emplace@$$V@?$map@JV?$vector@NV?$allocator@N@std@@@std@@U?$less@J@2@V?$allocator@U?$pair@$$CBJV?$vector@NV?$allocator@N@std@@@std@@@std@@@2@@std@@QEAA?AU?$pair@V?$_Tree_iterator@V?$_Tree_val@U?$_Tree_simple_types@U?$pair@$$CBJV?$vector@NV?$allocator@N@std@@@std@@@std@@@std@@@std@@@std@@_N@1@AEBJ@Z
	??$use_facet@V?$codecvt@DDU_Mbstatet@@@std@@@std@@YAAEBV?$codecvt@DDU_Mbstatet@@@0@AEBVlocale@0@@Z
	??$value_or@V?$basic_string@DU?$char_traits@D@std@@V?$allocator@D@2@@std@@@?$optional@V?$basic_string@DU?$char_traits@D@std@@V?$allocator@D@2@@std@@@std@@QEHAA?AV?$basic_string@DU?$char_traits@D@std@@V?$allocator@D@2@@1@$$QEAV21@@Z
	??0<lambda_2a778761999fc28b0a098902444dd25e>@@QEAA@QEAV?$vector@NV?$allocator@N@std@@@std@@@Z
	??0<lambda_9d4f0376838c6e4b6a263e96e2e67082>@@QEAA@QEAV?$vector@HV?$allocator@H@std@@@std@@@Z
	??0?$_Ptr_base@Ucse_observer_s@@@std@@IEAA@XZ
	??0?$_Ptr_base@Vsingle_slave_observer@cse@@@std@@IEAA@XZ
	??0?$_Ptr_base@Vslave@cse@@@std@@IEAA@XZ
	??0?$_Ref_count@Ucse_observer_s@@@std@@QEAA@PEAUcse_observer_s@@@Z
	??0?$_String_alloc@U?$_String_base_types@DV?$allocator@D@std@@@std@@@std@@QEAA@XZ
	??0?$_String_alloc@U?$_String_base_types@_WV?$allocator@_W@std@@@std@@@std@@QEAA@XZ
	??0?$_String_const_iterator@V?$_String_val@U?$_Simple_types@D@std@@@std@@@std@@QEAA@PEBDPEBU_Container_base12@1@@Z
	??0?$_String_iterator@V?$_String_val@U?$_Simple_types@D@std@@@std@@@std@@QEAA@PEADPEBU_Container_base12@1@@Z
	??0?$_String_val@U?$_Simple_types@D@std@@@std@@QEAA@XZ
	??0?$_String_val@U?$_Simple_types@_W@std@@@std@@QEAA@XZ
	??0?$_Tree@V?$_Tmap_traits@JV?$vector@HV?$allocator@H@std@@@std@@U?$less@J@2@V?$allocator@U?$pair@$$CBJV?$vector@HV?$allocator@H@std@@@std@@@std@@@2@$0A@@std@@@std@@QEAA@AEBU?$less@J@1@@Z
	??0?$_Tree@V?$_Tmap_traits@JV?$vector@NV?$allocator@N@std@@@std@@U?$less@J@2@V?$allocator@U?$pair@$$CBJV?$vector@NV?$allocator@N@std@@@std@@@std@@@2@$0A@@std@@@std@@QEAA@AEBU?$less@J@1@@Z
	??0?$_Tree_comp_alloc@V?$_Tmap_traits@JV?$vector@HV?$allocator@H@std@@@std@@U?$less@J@2@V?$allocator@U?$pair@$$CBJV?$vector@HV?$allocator@H@std@@@std@@@std@@@2@$0A@@std@@@std@@QEAA@AEBU?$less@J@1@@Z
	??0?$_Tree_comp_alloc@V?$_Tmap_traits@JV?$vector@NV?$allocator@N@std@@@std@@U?$less@J@2@V?$allocator@U?$pair@$$CBJV?$vector@NV?$allocator@N@std@@@std@@@std@@@2@$0A@@std@@@std@@QEAA@AEBU?$less@J@1@@Z
	??0?$_Tree_const_iterator@V?$_Tree_val@U?$_Tree_simple_types@U?$pair@$$CBJV?$vector@HV?$allocator@H@std@@@std@@@std@@@std@@@std@@@std@@QEAA@$$QEAV01@@Z
	??0?$_Tree_const_iterator@V?$_Tree_val@U?$_Tree_simple_types@U?$pair@$$CBJV?$vector@HV?$allocator@H@std@@@std@@@std@@@std@@@std@@@std@@QEAA@AEBV01@@Z
	??0?$_Tree_const_iterator@V?$_Tree_val@U?$_Tree_simple_types@U?$pair@$$CBJV?$vector@HV?$allocator@H@std@@@std@@@std@@@std@@@std@@@std@@QEAA@PEAU?$_Tree_node@U?$pair@$$CBJV?$vector@HV?$allocator@H@std@@@std@@@std@@PEAX@1@PEBV?$_Tree_val@U?$_Tree_simple_types@U?$pair@$$CBJV?$vector@HV?$allocator@H@std@@@std@@@std@@@std@@@1@@Z
	??0?$_Tree_const_iterator@V?$_Tree_val@U?$_Tree_simple_types@U?$pair@$$CBJV?$vector@HV?$allocator@H@std@@@std@@@std@@@std@@@std@@@std@@QEAA@XZ
	??0?$_Tree_const_iterator@V?$_Tree_val@U?$_Tree_simple_types@U?$pair@$$CBJV?$vector@NV?$allocator@N@std@@@std@@@std@@@std@@@std@@@std@@QEAA@$$QEAV01@@Z
	??0?$_Tree_const_iterator@V?$_Tree_val@U?$_Tree_simple_types@U?$pair@$$CBJV?$vector@NV?$allocator@N@std@@@std@@@std@@@std@@@std@@@std@@QEAA@AEBV01@@Z
	??0?$_Tree_const_iterator@V?$_Tree_val@U?$_Tree_simple_types@U?$pair@$$CBJV?$vector@NV?$allocator@N@std@@@std@@@std@@@std@@@std@@@std@@QEAA@PEAU?$_Tree_node@U?$pair@$$CBJV?$vector@NV?$allocator@N@std@@@std@@@std@@PEAX@1@PEBV?$_Tree_val@U?$_Tree_simple_types@U?$pair@$$CBJV?$vector@NV?$allocator@N@std@@@std@@@std@@@std@@@1@@Z
	??0?$_Tree_const_iterator@V?$_Tree_val@U?$_Tree_simple_types@U?$pair@$$CBJV?$vector@NV?$allocator@N@std@@@std@@@std@@@std@@@std@@@std@@QEAA@XZ
	??0?$_Tree_iterator@V?$_Tree_val@U?$_Tree_simple_types@U?$pair@$$CBJV?$vector@HV?$allocator@H@std@@@std@@@std@@@std@@@std@@@std@@QEAA@$$QEAV01@@Z
	??0?$_Tree_iterator@V?$_Tree_val@U?$_Tree_simple_types@U?$pair@$$CBJV?$vector@HV?$allocator@H@std@@@std@@@std@@@std@@@std@@@std@@QEAA@AEBV01@@Z
	??0?$_Tree_iterator@V?$_Tree_val@U?$_Tree_simple_types@U?$pair@$$CBJV?$vector@HV?$allocator@H@std@@@std@@@std@@@std@@@std@@@std@@QEAA@PEAU?$_Tree_node@U?$pair@$$CBJV?$vector@HV?$allocator@H@std@@@std@@@std@@PEAX@1@PEBV?$_Tree_val@U?$_Tree_simple_types@U?$pair@$$CBJV?$vector@HV?$allocator@H@std@@@std@@@std@@@std@@@1@@Z
	??0?$_Tree_iterator@V?$_Tree_val@U?$_Tree_simple_types@U?$pair@$$CBJV?$vector@NV?$allocator@N@std@@@std@@@std@@@std@@@std@@@std@@QEAA@$$QEAV01@@Z
	??0?$_Tree_iterator@V?$_Tree_val@U?$_Tree_simple_types@U?$pair@$$CBJV?$vector@NV?$allocator@N@std@@@std@@@std@@@std@@@std@@@std@@QEAA@AEBV01@@Z
	??0?$_Tree_iterator@V?$_Tree_val@U?$_Tree_simple_types@U?$pair@$$CBJV?$vector@NV?$allocator@N@std@@@std@@@std@@@std@@@std@@@std@@QEAA@PEAU?$_Tree_node@U?$pair@$$CBJV?$vector@NV?$allocator@N@std@@@std@@@std@@PEAX@1@PEBV?$_Tree_val@U?$_Tree_simple_types@U?$pair@$$CBJV?$vector@NV?$allocator@N@std@@@std@@@std@@@std@@@1@@Z
	??0?$_Tree_unchecked_const_iterator@V?$_Tree_val@U?$_Tree_simple_types@U?$pair@$$CBJV?$vector@HV?$allocator@H@std@@@std@@@std@@@std@@@std@@U_Iterator_base12@2@@std@@QEAA@$$QEAV01@@Z
	??0?$_Tree_unchecked_const_iterator@V?$_Tree_val@U?$_Tree_simple_types@U?$pair@$$CBJV?$vector@HV?$allocator@H@std@@@std@@@std@@@std@@@std@@U_Iterator_base12@2@@std@@QEAA@AEBV01@@Z
	??0?$_Tree_unchecked_const_iterator@V?$_Tree_val@U?$_Tree_simple_types@U?$pair@$$CBJV?$vector@HV?$allocator@H@std@@@std@@@std@@@std@@@std@@U_Iterator_base12@2@@std@@QEAA@PEAU?$_Tree_node@U?$pair@$$CBJV?$vector@HV?$allocator@H@std@@@std@@@std@@PEAX@1@PEBV?$_Tree_val@U?$_Tree_simple_types@U?$pair@$$CBJV?$vector@HV?$allocator@H@std@@@std@@@std@@@std@@@1@@Z
	??0?$_Tree_unchecked_const_iterator@V?$_Tree_val@U?$_Tree_simple_types@U?$pair@$$CBJV?$vector@HV?$allocator@H@std@@@std@@@std@@@std@@@std@@U_Iterator_base12@2@@std@@QEAA@XZ
	??0?$_Tree_unchecked_const_iterator@V?$_Tree_val@U?$_Tree_simple_types@U?$pair@$$CBJV?$vector@NV?$allocator@N@std@@@std@@@std@@@std@@@std@@U_Iterator_base12@2@@std@@QEAA@$$QEAV01@@Z
	??0?$_Tree_unchecked_const_iterator@V?$_Tree_val@U?$_Tree_simple_types@U?$pair@$$CBJV?$vector@NV?$allocator@N@std@@@std@@@std@@@std@@@std@@U_Iterator_base12@2@@std@@QEAA@AEBV01@@Z
	??0?$_Tree_unchecked_const_iterator@V?$_Tree_val@U?$_Tree_simple_types@U?$pair@$$CBJV?$vector@NV?$allocator@N@std@@@std@@@std@@@std@@@std@@U_Iterator_base12@2@@std@@QEAA@PEAU?$_Tree_node@U?$pair@$$CBJV?$vector@NV?$allocator@N@std@@@std@@@std@@PEAX@1@PEBV?$_Tree_val@U?$_Tree_simple_types@U?$pair@$$CBJV?$vector@NV?$allocator@N@std@@@std@@@std@@@std@@@1@@Z
	??0?$_Tree_unchecked_const_iterator@V?$_Tree_val@U?$_Tree_simple_types@U?$pair@$$CBJV?$vector@NV?$allocator@N@std@@@std@@@std@@@std@@@std@@U_Iterator_base12@2@@std@@QEAA@XZ
	??0?$_Tree_val@U?$_Tree_simple_types@U?$pair@$$CBJV?$vector@HV?$allocator@H@std@@@std@@@std@@@std@@@std@@QEAA@XZ
	??0?$_Tree_val@U?$_Tree_simple_types@U?$pair@$$CBJV?$vector@NV?$allocator@N@std@@@std@@@std@@@std@@@std@@QEAA@XZ
	??0?$_Uninitialized_backout_al@PEAV?$shared_ptr@Ucse_observer_s@@@std@@V?$allocator@V?$shared_ptr@Ucse_observer_s@@@std@@@2@@std@@QEAA@PEAV?$shared_ptr@Ucse_observer_s@@@1@AEAV?$allocator@V?$shared_ptr@Ucse_observer_s@@@std@@@1@@Z
	??0?$_Uninitialized_backout_al@PEAV?$shared_ptr@Vsingle_slave_observer@cse@@@std@@V?$allocator@V?$shared_ptr@Vsingle_slave_observer@cse@@@std@@@2@@std@@QEAA@PEAV?$shared_ptr@Vsingle_slave_observer@cse@@@1@AEAV?$allocator@V?$shared_ptr@Vsingle_slave_observer@cse@@@std@@@1@@Z
	??0?$_Uninitialized_backout_al@PEAV?$shared_ptr@Vslave@cse@@@std@@V?$allocator@V?$shared_ptr@Vslave@cse@@@std@@@2@@std@@QEAA@PEAV?$shared_ptr@Vslave@cse@@@1@AEAV?$allocator@V?$shared_ptr@Vslave@cse@@@std@@@1@@Z
	??0?$_Vector_alloc@U?$_Vec_base_types@HV?$allocator@H@std@@@std@@@std@@QEAA@XZ
	??0?$_Vector_alloc@U?$_Vec_base_types@IV?$allocator@I@std@@@std@@@std@@QEAA@XZ
	??0?$_Vector_alloc@U?$_Vec_base_types@NV?$allocator@N@std@@@std@@@std@@QEAA@XZ
	??0?$_Vector_alloc@U?$_Vec_base_types@V?$shared_ptr@Ucse_observer_s@@@std@@V?$allocator@V?$shared_ptr@Ucse_observer_s@@@std@@@2@@std@@@std@@QEAA@XZ
	??0?$_Vector_alloc@U?$_Vec_base_types@V?$shared_ptr@Vsingle_slave_observer@cse@@@std@@V?$allocator@V?$shared_ptr@Vsingle_slave_observer@cse@@@std@@@2@@std@@@std@@QEAA@XZ
	??0?$_Vector_alloc@U?$_Vec_base_types@V?$shared_ptr@Vslave@cse@@@std@@V?$allocator@V?$shared_ptr@Vslave@cse@@@std@@@2@@std@@@std@@QEAA@XZ
	??0?$_Vector_const_iterator@V?$_Vector_val@U?$_Simple_types@I@std@@@std@@@std@@QEAA@$$QEAV01@@Z
	??0?$_Vector_const_iterator@V?$_Vector_val@U?$_Simple_types@I@std@@@std@@@std@@QEAA@PEAIPEBU_Container_base12@1@@Z
	??0?$_Vector_val@U?$_Simple_types@H@std@@@std@@QEAA@XZ
	??0?$_Vector_val@U?$_Simple_types@I@std@@@std@@QEAA@XZ
	??0?$_Vector_val@U?$_Simple_types@N@std@@@std@@QEAA@XZ
	??0?$_Vector_val@U?$_Simple_types@V?$shared_ptr@Ucse_observer_s@@@std@@@std@@@std@@QEAA@XZ
	??0?$_Vector_val@U?$_Simple_types@V?$shared_ptr@Vsingle_slave_observer@cse@@@std@@@std@@@std@@QEAA@XZ
	??0?$_Vector_val@U?$_Simple_types@V?$shared_ptr@Vslave@cse@@@std@@@std@@@std@@QEAA@XZ
	??0?$allocator@D@std@@QEAA@XZ
	??0?$allocator@H@std@@QEAA@XZ
	??0?$allocator@I@std@@QEAA@XZ
	??0?$allocator@N@std@@QEAA@XZ
	??0?$allocator@U?$_Tree_node@U?$pair@$$CBJV?$vector@HV?$allocator@H@std@@@std@@@std@@PEAX@std@@@std@@QEAA@XZ
	??0?$allocator@U?$_Tree_node@U?$pair@$$CBJV?$vector@NV?$allocator@N@std@@@std@@@std@@PEAX@std@@@std@@QEAA@XZ
	??0?$allocator@V?$shared_ptr@Ucse_observer_s@@@std@@@std@@QEAA@XZ
	??0?$allocator@V?$shared_ptr@Vsingle_slave_observer@cse@@@std@@@std@@QEAA@XZ
	??0?$allocator@V?$shared_ptr@Vslave@cse@@@std@@@std@@QEAA@XZ
	??0?$allocator@_W@std@@QEAA@XZ
	??0?$atomic@_N@std@@QEAA@_N@Z
	??0?$basic_filebuf@DU?$char_traits@D@std@@@std@@QEAA@PEAU_iobuf@@@Z
	??0?$basic_ofstream@DU?$char_traits@D@std@@@std@@QEAA@PEBDHH@Z
	??0?$basic_ofstream@DU?$char_traits@D@std@@@std@@QEAA@XZ
	??0?$basic_string@DU?$char_traits@D@std@@V?$allocator@D@2@@std@@QEAA@$$QEAV01@@Z
	??0?$basic_string@DU?$char_traits@D@std@@V?$allocator@D@2@@std@@QEAA@AEBV01@@Z
	??0?$basic_string@DU?$char_traits@D@std@@V?$allocator@D@2@@std@@QEAA@QEBD@Z
	??0?$basic_string@DU?$char_traits@D@std@@V?$allocator@D@2@@std@@QEAA@XZ
	??0?$basic_string@DU?$char_traits@D@std@@V?$allocator@D@2@@std@@QEAA@_KD@Z
	??0?$basic_string@_WU?$char_traits@_W@std@@V?$allocator@_W@2@@std@@QEAA@$$QEAV01@@Z
	??0?$basic_string@_WU?$char_traits@_W@std@@V?$allocator@_W@2@@std@@QEAA@XZ
	??0?$basic_string_view@DU?$char_traits@D@std@@@std@@QEAA@QEBD@Z
	??0?$extent_type@$0?0@details@gsl@@QEAA@_J@Z
	??0?$fpos@U_Mbstatet@@@std@@QEAA@U_Mbstatet@@_J@Z
	??0?$fpos@U_Mbstatet@@@std@@QEAA@_J@Z
	??0?$lock_guard@Vmutex@std@@@std@@QEAA@AEAVmutex@1@@Z
	??0?$map@JV?$vector@HV?$allocator@H@std@@@std@@U?$less@J@2@V?$allocator@U?$pair@$$CBJV?$vector@HV?$allocator@H@std@@@std@@@std@@@2@@std@@QEAA@XZ
	??0?$map@JV?$vector@NV?$allocator@N@std@@@std@@U?$less@J@2@V?$allocator@U?$pair@$$CBJV?$vector@NV?$allocator@N@std@@@std@@@std@@@2@@std@@QEAA@XZ
	??0?$reverse_iterator@V?$_Tree_const_iterator@V?$_Tree_val@U?$_Tree_simple_types@U?$pair@$$CBJV?$vector@HV?$allocator@H@std@@@std@@@std@@@std@@@std@@@std@@@std@@QEAA@V?$_Tree_const_iterator@V?$_Tree_val@U?$_Tree_simple_types@U?$pair@$$CBJV?$vector@HV?$allocator@H@std@@@std@@@std@@@std@@@std@@@1@@Z
	??0?$reverse_iterator@V?$_Tree_const_iterator@V?$_Tree_val@U?$_Tree_simple_types@U?$pair@$$CBJV?$vector@NV?$allocator@N@std@@@std@@@std@@@std@@@std@@@std@@@std@@QEAA@V?$_Tree_const_iterator@V?$_Tree_val@U?$_Tree_simple_types@U?$pair@$$CBJV?$vector@NV?$allocator@N@std@@@std@@@std@@@std@@@std@@@1@@Z
	??0?$shared_ptr@Ucse_observer_s@@@std@@QEAA@$$QEAV01@@Z
	??0?$shared_ptr@Vsingle_slave_observer@cse@@@std@@QEAA@$$QEAV01@@Z
	??0?$shared_ptr@Vsingle_slave_observer@cse@@@std@@QEAA@AEBV01@@Z
	??0?$shared_ptr@Vsingle_slave_observer@cse@@@std@@QEAA@XZ
	??0?$shared_ptr@Vslave@cse@@@std@@QEAA@$$QEAV01@@Z
	??0?$shared_ptr@Vslave@cse@@@std@@QEAA@AEBV01@@Z
	??0?$shared_ptr@Vslave@cse@@@std@@QEAA@XZ
	??0?$span@$$CBH$0?0@gsl@@QEAA@PEBH_J@Z
	??0?$span@$$CBI$0?0@gsl@@QEAA@PEBI_J@Z
	??0?$span@$$CBN$0?0@gsl@@QEAA@PEBN_J@Z
	??0?$span@D$0?0@gsl@@QEAA@PEAD_J@Z
	??0?$span@H$0?0@gsl@@QEAA@PEAH_J@Z
	??0?$span@I$0?0@gsl@@QEAA@PEAI_J@Z
	??0?$span@N$0?0@gsl@@QEAA@PEAN_J@Z
	??0?$time_point@Usystem_clock@chrono@std@@V?$duration@_JU?$ratio@$00$0JIJGIA@@std@@@23@@chrono@std@@QEAA@AEBV?$duration@_JU?$ratio@$00$0JIJGIA@@std@@@12@@Z
	??0?$tuple@$$V@std@@QEAA@AEBV01@@Z
	??0?$tuple@$$V@std@@QEAA@XZ
	??0?$tuple@AEBJ@std@@QEAA@$$QEAV01@@Z
	??0?$vector@HV?$allocator@H@std@@@std@@QEAA@XZ
	??0?$vector@IV?$allocator@I@std@@@std@@QEAA@XZ
	??0?$vector@NV?$allocator@N@std@@@std@@QEAA@XZ
	??0?$vector@V?$shared_ptr@Ucse_observer_s@@@std@@V?$allocator@V?$shared_ptr@Ucse_observer_s@@@std@@@2@@std@@QEAA@XZ
	??0?$vector@V?$shared_ptr@Vsingle_slave_observer@cse@@@std@@V?$allocator@V?$shared_ptr@Vsingle_slave_observer@cse@@@std@@@2@@std@@QEAA@XZ
	??0?$vector@V?$shared_ptr@Vslave@cse@@@std@@V?$allocator@V?$shared_ptr@Vslave@cse@@@std@@@2@@std@@QEAA@XZ
	??0_Auto_cnd@std@@QEAA@PEAU_Cnd_internal_imp_t@@@Z
	??0_Auto_mtx@std@@QEAA@PEAU_Mtx_internal_imp_t@@@Z
	??0_Bxty@?$_String_val@U?$_Simple_types@D@std@@@std@@QEAA@XZ
	??0_Bxty@?$_String_val@U?$_Simple_types@_W@std@@@std@@QEAA@XZ
	??0_Container_base12@std@@QEAA@XZ
	??0_Container_proxy@std@@QEAA@XZ
	??0_Generic_error_category@std@@QEAA@XZ
	??0_Iterator_base12@std@@QEAA@AEBU01@@Z
	??0_Iterator_base12@std@@QEAA@XZ
	??0_Mutex_base@std@@QEAA@H@Z
	??0_Pad@std@@QEAA@XZ
	??0_Ref_count_base@std@@IEAA@XZ
	??0_Sentry_base@?$basic_ostream@DU?$char_traits@D@std@@@std@@QEAA@AEAV12@@Z
	??0_System_error@std@@IEAA@Verror_code@1@AEBV?$basic_string@DU?$char_traits@D@std@@V?$allocator@D@2@@1@@Z
	??0_System_error@std@@QEAA@AEBV01@@Z
	??0_System_error_category@std@@QEAA@XZ
	??0bad_cast@std@@QEAA@AEBV01@@Z
	??0bad_cast@std@@QEAA@XZ
	??0cse_execution_s@@QEAA@XZ
	??0cse_observer_s@@QEAA@XZ
	??0cse_slave_s@@QEAA@XZ
	??0error_category@std@@QEAA@XZ
	??0error_code@std@@QEAA@HAEBVerror_category@1@@Z
	??0error_condition@std@@QEAA@HAEBVerror_category@1@@Z
	??0exception@std@@QEAA@AEBV01@@Z
	??0exception@std@@QEAA@QEBD@Z
	??0exception@std@@QEAA@QEBDH@Z
	??0exception@std@@QEAA@XZ
	??0id@thread@std@@AEAA@I@Z
	??0logic_error@std@@QEAA@AEBV01@@Z
	??0logic_error@std@@QEAA@PEBD@Z
	??0mutex@std@@QEAA@XZ
	??0narrowing_error@gsl@@QEAA@XZ
	??0out_of_range@std@@QEAA@AEBV01@@Z
	??0out_of_range@std@@QEAA@PEBD@Z
	??0runtime_error@std@@QEAA@AEBV01@@Z
	??0runtime_error@std@@QEAA@AEBV?$basic_string@DU?$char_traits@D@std@@V?$allocator@D@2@@1@@Z
	??0runtime_error@std@@QEAA@PEBD@Z
	??0sentry@?$basic_ostream@DU?$char_traits@D@std@@@std@@QEAA@AEAV12@@Z
	??0single_slave_logger@cse@@QEAA@PEADH@Z
	??0single_slave_observer@cse@@QEAA@V?$shared_ptr@Vslave@cse@@@std@@@Z
	??0system_error@std@@QEAA@AEBV01@@Z
	??0system_error@std@@QEAA@Verror_code@1@@Z
	??0thread@std@@QEAA@XZ
	??1?$_Compressed_pair@V?$allocator@D@std@@V?$_String_val@U?$_Simple_types@D@std@@@2@$00@std@@QEAA@XZ
	??1?$_Compressed_pair@V?$allocator@_W@std@@V?$_String_val@U?$_Simple_types@_W@std@@@2@$00@std@@QEAA@XZ
	??1?$_Non_trivial_copy@U?$_Optional_construct_base@V?$basic_string@DU?$char_traits@D@std@@V?$allocator@D@2@@std@@@std@@@std@@QEAA@XZ
	??1?$_Non_trivial_copy_assign@U?$_Optional_construct_base@V?$basic_string@DU?$char_traits@D@std@@V?$allocator@D@2@@std@@@std@@V?$basic_string@DU?$char_traits@D@std@@V?$allocator@D@2@@2@@std@@QEAA@XZ
	??1?$_Non_trivial_move@U?$_Optional_construct_base@V?$basic_string@DU?$char_traits@D@std@@V?$allocator@D@2@@std@@@std@@V?$basic_string@DU?$char_traits@D@std@@V?$allocator@D@2@@2@@std@@QEAA@XZ
	??1?$_Non_trivial_move_assign@U?$_Optional_construct_base@V?$basic_string@DU?$char_traits@D@std@@V?$allocator@D@2@@std@@@std@@V?$basic_string@DU?$char_traits@D@std@@V?$allocator@D@2@@2@@std@@QEAA@XZ
	??1?$_Optional_construct_base@V?$basic_string@DU?$char_traits@D@std@@V?$allocator@D@2@@std@@@std@@QEAA@XZ
	??1?$_Optional_destruct_base@V?$basic_string@DU?$char_traits@D@std@@V?$allocator@D@2@@std@@$0A@@std@@QEAA@XZ
	??1?$_Ref_count@Ucse_observer_s@@@std@@UEAA@XZ
	??1?$_Ref_count_obj@Vsingle_slave_observer@cse@@@std@@UEAA@XZ
	??1?$_String_alloc@U?$_String_base_types@DV?$allocator@D@std@@@std@@@std@@QEAA@XZ
	??1?$_String_alloc@U?$_String_base_types@_WV?$allocator@_W@std@@@std@@@std@@QEAA@XZ
	??1?$_String_const_iterator@V?$_String_val@U?$_Simple_types@D@std@@@std@@@std@@QEAA@XZ
	??1?$_String_iterator@V?$_String_val@U?$_Simple_types@D@std@@@std@@@std@@QEAA@XZ
	??1?$_String_val@U?$_Simple_types@D@std@@@std@@QEAA@XZ
	??1?$_String_val@U?$_Simple_types@_W@std@@@std@@QEAA@XZ
	??1?$_Tree@V?$_Tmap_traits@JV?$vector@HV?$allocator@H@std@@@std@@U?$less@J@2@V?$allocator@U?$pair@$$CBJV?$vector@HV?$allocator@H@std@@@std@@@std@@@2@$0A@@std@@@std@@QEAA@XZ
	??1?$_Tree@V?$_Tmap_traits@JV?$vector@NV?$allocator@N@std@@@std@@U?$less@J@2@V?$allocator@U?$pair@$$CBJV?$vector@NV?$allocator@N@std@@@std@@@std@@@2@$0A@@std@@@std@@QEAA@XZ
	??1?$_Tree_comp_alloc@V?$_Tmap_traits@JV?$vector@HV?$allocator@H@std@@@std@@U?$less@J@2@V?$allocator@U?$pair@$$CBJV?$vector@HV?$allocator@H@std@@@std@@@std@@@2@$0A@@std@@@std@@QEAA@XZ
	??1?$_Tree_comp_alloc@V?$_Tmap_traits@JV?$vector@NV?$allocator@N@std@@@std@@U?$less@J@2@V?$allocator@U?$pair@$$CBJV?$vector@NV?$allocator@N@std@@@std@@@std@@@2@$0A@@std@@@std@@QEAA@XZ
	??1?$_Tree_const_iterator@V?$_Tree_val@U?$_Tree_simple_types@U?$pair@$$CBJV?$vector@HV?$allocator@H@std@@@std@@@std@@@std@@@std@@@std@@QEAA@XZ
	??1?$_Tree_const_iterator@V?$_Tree_val@U?$_Tree_simple_types@U?$pair@$$CBJV?$vector@NV?$allocator@N@std@@@std@@@std@@@std@@@std@@@std@@QEAA@XZ
	??1?$_Tree_iterator@V?$_Tree_val@U?$_Tree_simple_types@U?$pair@$$CBJV?$vector@HV?$allocator@H@std@@@std@@@std@@@std@@@std@@@std@@QEAA@XZ
	??1?$_Tree_iterator@V?$_Tree_val@U?$_Tree_simple_types@U?$pair@$$CBJV?$vector@NV?$allocator@N@std@@@std@@@std@@@std@@@std@@@std@@QEAA@XZ
	??1?$_Tree_unchecked_const_iterator@V?$_Tree_val@U?$_Tree_simple_types@U?$pair@$$CBJV?$vector@HV?$allocator@H@std@@@std@@@std@@@std@@@std@@U_Iterator_base12@2@@std@@QEAA@XZ
	??1?$_Tree_unchecked_const_iterator@V?$_Tree_val@U?$_Tree_simple_types@U?$pair@$$CBJV?$vector@NV?$allocator@N@std@@@std@@@std@@@std@@@std@@U_Iterator_base12@2@@std@@QEAA@XZ
	??1?$_Uninitialized_backout_al@PEAV?$shared_ptr@Ucse_observer_s@@@std@@V?$allocator@V?$shared_ptr@Ucse_observer_s@@@std@@@2@@std@@QEAA@XZ
	??1?$_Uninitialized_backout_al@PEAV?$shared_ptr@Vsingle_slave_observer@cse@@@std@@V?$allocator@V?$shared_ptr@Vsingle_slave_observer@cse@@@std@@@2@@std@@QEAA@XZ
	??1?$_Uninitialized_backout_al@PEAV?$shared_ptr@Vslave@cse@@@std@@V?$allocator@V?$shared_ptr@Vslave@cse@@@std@@@2@@std@@QEAA@XZ
	??1?$_Vector_alloc@U?$_Vec_base_types@HV?$allocator@H@std@@@std@@@std@@QEAA@XZ
	??1?$_Vector_alloc@U?$_Vec_base_types@IV?$allocator@I@std@@@std@@@std@@QEAA@XZ
	??1?$_Vector_alloc@U?$_Vec_base_types@NV?$allocator@N@std@@@std@@@std@@QEAA@XZ
	??1?$_Vector_alloc@U?$_Vec_base_types@Uvariable_description@cse@@V?$allocator@Uvariable_description@cse@@@std@@@std@@@std@@QEAA@XZ
	??1?$_Vector_alloc@U?$_Vec_base_types@V?$shared_ptr@Ucse_observer_s@@@std@@V?$allocator@V?$shared_ptr@Ucse_observer_s@@@std@@@2@@std@@@std@@QEAA@XZ
	??1?$_Vector_alloc@U?$_Vec_base_types@V?$shared_ptr@Vsingle_slave_observer@cse@@@std@@V?$allocator@V?$shared_ptr@Vsingle_slave_observer@cse@@@std@@@2@@std@@@std@@QEAA@XZ
	??1?$_Vector_alloc@U?$_Vec_base_types@V?$shared_ptr@Vslave@cse@@@std@@V?$allocator@V?$shared_ptr@Vslave@cse@@@std@@@2@@std@@@std@@QEAA@XZ
	??1?$_Vector_const_iterator@V?$_Vector_val@U?$_Simple_types@I@std@@@std@@@std@@QEAA@XZ
	??1?$basic_filebuf@DU?$char_traits@D@std@@@std@@UEAA@XZ
	??1?$basic_ofstream@DU?$char_traits@D@std@@@std@@UEAA@XZ
	??1?$basic_string@DU?$char_traits@D@std@@V?$allocator@D@2@@std@@QEAA@XZ
	??1?$basic_string@_WU?$char_traits@_W@std@@V?$allocator@_W@2@@std@@QEAA@XZ
	??1?$lock_guard@Vmutex@std@@@std@@QEAA@XZ
	??1?$map@JV?$vector@HV?$allocator@H@std@@@std@@U?$less@J@2@V?$allocator@U?$pair@$$CBJV?$vector@HV?$allocator@H@std@@@std@@@std@@@2@@std@@QEAA@XZ
	??1?$map@JV?$vector@NV?$allocator@N@std@@@std@@U?$less@J@2@V?$allocator@U?$pair@$$CBJV?$vector@NV?$allocator@N@std@@@std@@@std@@@2@@std@@QEAA@XZ
	??1?$optional@V?$basic_string@DU?$char_traits@D@std@@V?$allocator@D@2@@std@@@std@@QEAA@XZ
	??1?$pair@$$CBJV?$vector@HV?$allocator@H@std@@@std@@@std@@QEAA@XZ
	??1?$pair@$$CBJV?$vector@NV?$allocator@N@std@@@std@@@std@@QEAA@XZ
	??1?$pair@V?$_Tree_iterator@V?$_Tree_val@U?$_Tree_simple_types@U?$pair@$$CBJV?$vector@HV?$allocator@H@std@@@std@@@std@@@std@@@std@@@std@@_N@std@@QEAA@XZ
	??1?$pair@V?$_Tree_iterator@V?$_Tree_val@U?$_Tree_simple_types@U?$pair@$$CBJV?$vector@NV?$allocator@N@std@@@std@@@std@@@std@@@std@@@std@@_N@std@@QEAA@XZ
	??1?$reverse_iterator@V?$_Tree_const_iterator@V?$_Tree_val@U?$_Tree_simple_types@U?$pair@$$CBJV?$vector@HV?$allocator@H@std@@@std@@@std@@@std@@@std@@@std@@@std@@QEAA@XZ
	??1?$reverse_iterator@V?$_Tree_const_iterator@V?$_Tree_val@U?$_Tree_simple_types@U?$pair@$$CBJV?$vector@NV?$allocator@N@std@@@std@@@std@@@std@@@std@@@std@@@std@@QEAA@XZ
	??1?$shared_ptr@Ucse_observer_s@@@std@@QEAA@XZ
	??1?$shared_ptr@Vfmu@fmi@cse@@@std@@QEAA@XZ
	??1?$shared_ptr@Vimporter@fmi@cse@@@std@@QEAA@XZ
	??1?$shared_ptr@Vsingle_slave_observer@cse@@@std@@QEAA@XZ
	??1?$shared_ptr@Vslave@cse@@@std@@QEAA@XZ
	??1?$shared_ptr@Vslave_instance@fmi@cse@@@std@@QEAA@XZ
	??1?$unique_ptr@Ucse_execution_s@@U?$default_delete@Ucse_execution_s@@@std@@@std@@QEAA@XZ
	??1?$unique_ptr@Ucse_observer_s@@U?$default_delete@Ucse_observer_s@@@std@@@std@@QEAA@XZ
	??1?$unique_ptr@Ucse_slave_s@@U?$default_delete@Ucse_slave_s@@@std@@@std@@QEAA@XZ
	??1?$unique_ptr@V_Facet_base@std@@U?$default_delete@V_Facet_base@std@@@2@@std@@QEAA@XZ
	??1?$vector@HV?$allocator@H@std@@@std@@QEAA@XZ
	??1?$vector@IV?$allocator@I@std@@@std@@QEAA@XZ
	??1?$vector@NV?$allocator@N@std@@@std@@QEAA@XZ
	??1?$vector@Uvariable_description@cse@@V?$allocator@Uvariable_description@cse@@@std@@@std@@QEAA@XZ
	??1?$vector@V?$shared_ptr@Ucse_observer_s@@@std@@V?$allocator@V?$shared_ptr@Ucse_observer_s@@@std@@@2@@std@@QEAA@XZ
	??1?$vector@V?$shared_ptr@Vsingle_slave_observer@cse@@@std@@V?$allocator@V?$shared_ptr@Vsingle_slave_observer@cse@@@std@@@2@@std@@QEAA@XZ
	??1?$vector@V?$shared_ptr@Vslave@cse@@@std@@V?$allocator@V?$shared_ptr@Vslave@cse@@@std@@@2@@std@@QEAA@XZ
	??1_Auto_cnd@std@@QEAA@XZ
	??1_Auto_mtx@std@@QEAA@XZ
	??1_Bxty@?$_String_val@U?$_Simple_types@D@std@@@std@@QEAA@XZ
	??1_Bxty@?$_String_val@U?$_Simple_types@_W@std@@@std@@QEAA@XZ
	??1_Generic_error_category@std@@UEAA@XZ
	??1_Iterator_base12@std@@QEAA@XZ
	??1_Mutex_base@std@@QEAA@XZ
	??1_Pad@std@@QEAA@XZ
	??1_Ref_count_base@std@@UEAA@XZ
	??1_Sentry_base@?$basic_ostream@DU?$char_traits@D@std@@@std@@QEAA@XZ
	??1_System_error@std@@UEAA@XZ
	??1_System_error_category@std@@UEAA@XZ
	??1bad_cast@std@@UEAA@XZ
	??1cse_execution_s@@QEAA@XZ
	??1cse_observer_s@@QEAA@XZ
	??1cse_slave_s@@QEAA@XZ
	??1error_category@std@@UEAA@XZ
	??1exception@std@@UEAA@XZ
	??1locale@std@@QEAA@XZ
	??1logic_error@std@@UEAA@XZ
	??1model_description@cse@@QEAA@XZ
	??1mutex@std@@QEAA@XZ
	??1narrowing_error@gsl@@UEAA@XZ
	??1out_of_range@std@@UEAA@XZ
	??1path@filesystem@std@@QEAA@XZ
	??1runtime_error@std@@UEAA@XZ
	??1sentry@?$basic_ostream@DU?$char_traits@D@std@@@std@@QEAA@XZ
	??1single_slave_logger@cse@@QEAA@XZ
	??1single_slave_observer@cse@@QEAA@XZ
	??1system_error@std@@UEAA@XZ
	??1thread@std@@QEAA@XZ
	??1variable_description@cse@@QEAA@XZ
	??2@YAPEAX_KPEAX@Z
	??4?$_Atomic_base@N$07@std@@QEAANN@Z
	??4?$_Atomic_base@W4cse_execution_state@@$03@std@@QEAA?AW4cse_execution_state@@W42@@Z
	??4?$_Tree_const_iterator@V?$_Tree_val@U?$_Tree_simple_types@U?$pair@$$CBJV?$vector@HV?$allocator@H@std@@@std@@@std@@@std@@@std@@@std@@QEAAAEAV01@AEBV01@@Z
	??4?$_Tree_const_iterator@V?$_Tree_val@U?$_Tree_simple_types@U?$pair@$$CBJV?$vector@NV?$allocator@N@std@@@std@@@std@@@std@@@std@@@std@@QEAAAEAV01@AEBV01@@Z
	??4?$_Tree_unchecked_const_iterator@V?$_Tree_val@U?$_Tree_simple_types@U?$pair@$$CBJV?$vector@HV?$allocator@H@std@@@std@@@std@@@std@@@std@@U_Iterator_base12@2@@std@@QEAAAEAV01@AEBV01@@Z
	??4?$_Tree_unchecked_const_iterator@V?$_Tree_val@U?$_Tree_simple_types@U?$pair@$$CBJV?$vector@NV?$allocator@N@std@@@std@@@std@@@std@@@std@@U_Iterator_base12@2@@std@@QEAAAEAV01@AEBV01@@Z
	??4?$atomic@N@std@@QEAANN@Z
	??4?$atomic@W4cse_execution_state@@@std@@QEAA?AW4cse_execution_state@@W42@@Z
	??4?$atomic@_N@std@@QEAA_N_N@Z
	??4?$basic_ofstream@DU?$char_traits@D@std@@@std@@QEAAAEAV01@$$QEAV01@@Z
	??4?$basic_string@DU?$char_traits@D@std@@V?$allocator@D@2@@std@@QEAAAEAV01@$$QEAV01@@Z
	??4?$basic_string@DU?$char_traits@D@std@@V?$allocator@D@2@@std@@QEAAAEAV01@QEBD@Z
	??4_Atomic_bool@std@@QEAA_N_N@Z
	??4_Iterator_base12@std@@QEAAAEAU01@AEBU01@@Z
	??4thread@std@@QEAAAEAV01@$$QEAV01@@Z
	??8?$_Tree_const_iterator@V?$_Tree_val@U?$_Tree_simple_types@U?$pair@$$CBJV?$vector@HV?$allocator@H@std@@@std@@@std@@@std@@@std@@@std@@QEBA_NAEBV01@@Z
	??8?$_Tree_const_iterator@V?$_Tree_val@U?$_Tree_simple_types@U?$pair@$$CBJV?$vector@NV?$allocator@N@std@@@std@@@std@@@std@@@std@@@std@@QEBA_NAEBV01@@Z
	??8?$_Vector_const_iterator@V?$_Vector_val@U?$_Simple_types@I@std@@@std@@@std@@QEBA_NAEBV01@@Z
	??8error_category@std@@QEBA_NAEBV01@@Z
	??8std@@YA_NAEBVerror_code@0@AEBVerror_condition@0@@Z
	??8std@@YA_NAEBVerror_condition@0@0@Z
	??8std@@YA_NVid@thread@0@0@Z
	??9?$_Tree_const_iterator@V?$_Tree_val@U?$_Tree_simple_types@U?$pair@$$CBJV?$vector@HV?$allocator@H@std@@@std@@@std@@@std@@@std@@@std@@QEBA_NAEBV01@@Z
	??9?$_Tree_const_iterator@V?$_Tree_val@U?$_Tree_simple_types@U?$pair@$$CBJV?$vector@NV?$allocator@N@std@@@std@@@std@@@std@@@std@@@std@@QEBA_NAEBV01@@Z
	??9?$_Vector_const_iterator@V?$_Vector_val@U?$_Simple_types@I@std@@@std@@@std@@QEBA_NAEBV01@@Z
	??A?$basic_string@DU?$char_traits@D@std@@V?$allocator@D@2@@std@@QEAAAEAD_K@Z
	??A?$map@JV?$vector@HV?$allocator@H@std@@@std@@U?$less@J@2@V?$allocator@U?$pair@$$CBJV?$vector@HV?$allocator@H@std@@@std@@@std@@@2@@std@@QEAAAEAV?$vector@HV?$allocator@H@std@@@1@AEBJ@Z
	??A?$map@JV?$vector@NV?$allocator@N@std@@@std@@U?$less@J@2@V?$allocator@U?$pair@$$CBJV?$vector@NV?$allocator@N@std@@@std@@@std@@@2@@std@@QEAAAEAV?$vector@NV?$allocator@N@std@@@1@AEBJ@Z
	??A?$vector@HV?$allocator@H@std@@@std@@QEBAAEBH_K@Z
	??A?$vector@NV?$allocator@N@std@@@std@@QEBAAEBN_K@Z
	??B?$_Atomic_base@N$07@std@@QEBANXZ
	??B?$_Atomic_base@W4cse_execution_state@@$03@std@@QEBA?AW4cse_execution_state@@XZ
	??B?$fpos@U_Mbstatet@@@std@@QEBA_JXZ
	??B_Atomic_bool@std@@QEBA_NXZ
	??B_Atomic_long@std@@QEBAJXZ
	??Bsentry@?$basic_ostream@DU?$char_traits@D@std@@@std@@QEBA_NXZ
	??C?$_Tree_const_iterator@V?$_Tree_val@U?$_Tree_simple_types@U?$pair@$$CBJV?$vector@HV?$allocator@H@std@@@std@@@std@@@std@@@std@@@std@@QEBAPEBU?$pair@$$CBJV?$vector@HV?$allocator@H@std@@@std@@@1@XZ
	??C?$_Tree_const_iterator@V?$_Tree_val@U?$_Tree_simple_types@U?$pair@$$CBJV?$vector@NV?$allocator@N@std@@@std@@@std@@@std@@@std@@@std@@QEBAPEBU?$pair@$$CBJV?$vector@NV?$allocator@N@std@@@std@@@1@XZ
	??C?$_Tree_iterator@V?$_Tree_val@U?$_Tree_simple_types@U?$pair@$$CBJV?$vector@HV?$allocator@H@std@@@std@@@std@@@std@@@std@@@std@@QEBAPEAU?$pair@$$CBJV?$vector@HV?$allocator@H@std@@@std@@@1@XZ
	??C?$_Tree_iterator@V?$_Tree_val@U?$_Tree_simple_types@U?$pair@$$CBJV?$vector@NV?$allocator@N@std@@@std@@@std@@@std@@@std@@@std@@QEBAPEAU?$pair@$$CBJV?$vector@NV?$allocator@N@std@@@std@@@1@XZ
	??C?$reverse_iterator@V?$_Tree_const_iterator@V?$_Tree_val@U?$_Tree_simple_types@U?$pair@$$CBJV?$vector@HV?$allocator@H@std@@@std@@@std@@@std@@@std@@@std@@@std@@QEBAPEBU?$pair@$$CBJV?$vector@HV?$allocator@H@std@@@std@@@1@XZ
	??C?$reverse_iterator@V?$_Tree_const_iterator@V?$_Tree_val@U?$_Tree_simple_types@U?$pair@$$CBJV?$vector@NV?$allocator@N@std@@@std@@@std@@@std@@@std@@@std@@@std@@QEBAPEBU?$pair@$$CBJV?$vector@NV?$allocator@N@std@@@std@@@1@XZ
	??C?$unique_ptr@Ucse_execution_s@@U?$default_delete@Ucse_execution_s@@@std@@@std@@QEBAPEAUcse_execution_s@@XZ
	??C?$unique_ptr@Ucse_slave_s@@U?$default_delete@Ucse_slave_s@@@std@@@std@@QEBAPEAUcse_slave_s@@XZ
	??D?$_String_const_iterator@V?$_String_val@U?$_Simple_types@D@std@@@std@@@std@@QEBAAEBDXZ
	??D?$_String_iterator@V?$_String_val@U?$_Simple_types@D@std@@@std@@@std@@QEBAAEADXZ
	??D?$_Tree_const_iterator@V?$_Tree_val@U?$_Tree_simple_types@U?$pair@$$CBJV?$vector@HV?$allocator@H@std@@@std@@@std@@@std@@@std@@@std@@QEBAAEBU?$pair@$$CBJV?$vector@HV?$allocator@H@std@@@std@@@1@XZ
	??D?$_Tree_const_iterator@V?$_Tree_val@U?$_Tree_simple_types@U?$pair@$$CBJV?$vector@NV?$allocator@N@std@@@std@@@std@@@std@@@std@@@std@@QEBAAEBU?$pair@$$CBJV?$vector@NV?$allocator@N@std@@@std@@@1@XZ
	??D?$_Tree_iterator@V?$_Tree_val@U?$_Tree_simple_types@U?$pair@$$CBJV?$vector@HV?$allocator@H@std@@@std@@@std@@@std@@@std@@@std@@QEBAAEAU?$pair@$$CBJV?$vector@HV?$allocator@H@std@@@std@@@1@XZ
	??D?$_Tree_iterator@V?$_Tree_val@U?$_Tree_simple_types@U?$pair@$$CBJV?$vector@NV?$allocator@N@std@@@std@@@std@@@std@@@std@@@std@@QEBAAEAU?$pair@$$CBJV?$vector@NV?$allocator@N@std@@@std@@@1@XZ
	??E?$_Tree_const_iterator@V?$_Tree_val@U?$_Tree_simple_types@U?$pair@$$CBJV?$vector@HV?$allocator@H@std@@@std@@@std@@@std@@@std@@@std@@QEAA?AV01@H@Z
	??E?$_Tree_const_iterator@V?$_Tree_val@U?$_Tree_simple_types@U?$pair@$$CBJV?$vector@HV?$allocator@H@std@@@std@@@std@@@std@@@std@@@std@@QEAAAEAV01@XZ
	??E?$_Tree_const_iterator@V?$_Tree_val@U?$_Tree_simple_types@U?$pair@$$CBJV?$vector@NV?$allocator@N@std@@@std@@@std@@@std@@@std@@@std@@QEAA?AV01@H@Z
	??E?$_Tree_const_iterator@V?$_Tree_val@U?$_Tree_simple_types@U?$pair@$$CBJV?$vector@NV?$allocator@N@std@@@std@@@std@@@std@@@std@@@std@@QEAAAEAV01@XZ
	??E?$_Tree_unchecked_const_iterator@V?$_Tree_val@U?$_Tree_simple_types@U?$pair@$$CBJV?$vector@HV?$allocator@H@std@@@std@@@std@@@std@@@std@@U_Iterator_base12@2@@std@@QEAAAEAV01@XZ
	??E?$_Tree_unchecked_const_iterator@V?$_Tree_val@U?$_Tree_simple_types@U?$pair@$$CBJV?$vector@NV?$allocator@N@std@@@std@@@std@@@std@@@std@@U_Iterator_base12@2@@std@@QEAAAEAV01@XZ
	??E_Atomic_long@std@@QEAAJH@Z
	??F?$_Tree_const_iterator@V?$_Tree_val@U?$_Tree_simple_types@U?$pair@$$CBJV?$vector@HV?$allocator@H@std@@@std@@@std@@@std@@@std@@@std@@QEAAAEAV01@XZ
	??F?$_Tree_const_iterator@V?$_Tree_val@U?$_Tree_simple_types@U?$pair@$$CBJV?$vector@NV?$allocator@N@std@@@std@@@std@@@std@@@std@@@std@@QEAAAEAV01@XZ
	??F?$_Tree_iterator@V?$_Tree_val@U?$_Tree_simple_types@U?$pair@$$CBJV?$vector@HV?$allocator@H@std@@@std@@@std@@@std@@@std@@@std@@QEAAAEAV01@XZ
	??F?$_Tree_iterator@V?$_Tree_val@U?$_Tree_simple_types@U?$pair@$$CBJV?$vector@NV?$allocator@N@std@@@std@@@std@@@std@@@std@@@std@@QEAAAEAV01@XZ
	??F?$_Tree_unchecked_const_iterator@V?$_Tree_val@U?$_Tree_simple_types@U?$pair@$$CBJV?$vector@HV?$allocator@H@std@@@std@@@std@@@std@@@std@@U_Iterator_base12@2@@std@@QEAAAEAV01@XZ
	??F?$_Tree_unchecked_const_iterator@V?$_Tree_val@U?$_Tree_simple_types@U?$pair@$$CBJV?$vector@NV?$allocator@N@std@@@std@@@std@@@std@@@std@@U_Iterator_base12@2@@std@@QEAAAEAV01@XZ
	??G?$_Vector_const_iterator@V?$_Vector_val@U?$_Simple_types@I@std@@@std@@@std@@QEBA_JAEBV01@@Z
	??R<lambda_138c3d7c38c85abb84c7fc7bfe5747b7>@@QEBAXQEAD_KD@Z
	??R<lambda_2a778761999fc28b0a098902444dd25e>@@QEBAPEANPEAN_K@Z
	??R<lambda_319d5e083f45f90dcdce5dce53cbb275>@@QEBAXQEADQEBD_KD@Z
	??R<lambda_65e615be2a453ca0576c979606f46740>@@QEBAXQEADQEBD_K12@Z
	??R<lambda_66f57f934f28d61049862f64df852ff0>@@QEBAXQEAD_KQEBD@Z
	??R<lambda_9d4f0376838c6e4b6a263e96e2e67082>@@QEBAPEAHPEAH_K@Z
	??R<lambda_a3050a43f3157934f354774ab3dd2e02>@@QEBAXQEA_WQEB_W_K2_W@Z
	??R<lambda_e1befb086ad3257e3f042a63030725f7>@@QEBAXQEADQEBD_K2D@Z
	??R?$default_delete@Ucse_execution_s@@@std@@QEBAXPEAUcse_execution_s@@@Z
	??R?$default_delete@Ucse_observer_s@@@std@@QEBAXPEAUcse_observer_s@@@Z
	??R?$default_delete@Ucse_slave_s@@@std@@QEBAXPEAUcse_slave_s@@@Z
	??R?$default_delete@V_Facet_base@std@@@std@@QEBAXPEAV_Facet_base@1@@Z
	??R?$less@J@std@@QEBA_NAEBJ0@Z
	??Y?$duration@_JU?$ratio@$00$0DLJKMKAA@@std@@@chrono@std@@QEAAAEAV012@AEBV012@@Z
	??Z?$duration@_JU?$ratio@$00$0DLJKMKAA@@std@@@chrono@std@@QEAAAEAV012@AEBV012@@Z
	??_D?$basic_ofstream@DU?$char_traits@D@std@@@std@@QEAAXXZ
	?_Adjust_manually_vector_aligned@std@@YAXAEAPEAXAEA_K@Z
	?_Adopt@_Iterator_base12@std@@QEAAXPEBU_Container_base12@2@@Z
	?_Alloc_proxy@?$_String_alloc@U?$_String_base_types@DV?$allocator@D@std@@@std@@@std@@QEAAXXZ
	?_Alloc_proxy@?$_String_alloc@U?$_String_base_types@_WV?$allocator@_W@std@@@std@@@std@@QEAAXXZ
	?_Alloc_proxy@?$_Tree_comp_alloc@V?$_Tmap_traits@JV?$vector@HV?$allocator@H@std@@@std@@U?$less@J@2@V?$allocator@U?$pair@$$CBJV?$vector@HV?$allocator@H@std@@@std@@@std@@@2@$0A@@std@@@std@@QEAAXXZ
	?_Alloc_proxy@?$_Tree_comp_alloc@V?$_Tmap_traits@JV?$vector@NV?$allocator@N@std@@@std@@U?$less@J@2@V?$allocator@U?$pair@$$CBJV?$vector@NV?$allocator@N@std@@@std@@@std@@@2@$0A@@std@@@std@@QEAAXXZ
	?_Alloc_proxy@?$_Vector_alloc@U?$_Vec_base_types@HV?$allocator@H@std@@@std@@@std@@QEAAXXZ
	?_Alloc_proxy@?$_Vector_alloc@U?$_Vec_base_types@IV?$allocator@I@std@@@std@@@std@@QEAAXXZ
	?_Alloc_proxy@?$_Vector_alloc@U?$_Vec_base_types@NV?$allocator@N@std@@@std@@@std@@QEAAXXZ
	?_Alloc_proxy@?$_Vector_alloc@U?$_Vec_base_types@V?$shared_ptr@Ucse_observer_s@@@std@@V?$allocator@V?$shared_ptr@Ucse_observer_s@@@std@@@2@@std@@@std@@QEAAXXZ
	?_Alloc_proxy@?$_Vector_alloc@U?$_Vec_base_types@V?$shared_ptr@Vsingle_slave_observer@cse@@@std@@V?$allocator@V?$shared_ptr@Vsingle_slave_observer@cse@@@std@@@2@@std@@@std@@QEAAXXZ
	?_Alloc_proxy@?$_Vector_alloc@U?$_Vec_base_types@V?$shared_ptr@Vslave@cse@@@std@@V?$allocator@V?$shared_ptr@Vslave@cse@@@std@@@2@@std@@@std@@QEAAXXZ
	?_Allocate@_Default_allocate_traits@std@@SAPEAX_K@Z
	?_Assign_rv@?$basic_ofstream@DU?$char_traits@D@std@@@std@@QEAAX$$QEAV12@@Z
	?_Assign_rv_contents@?$basic_string@DU?$char_traits@D@std@@V?$allocator@D@2@@std@@QEAAX$$QEAV12@U?$integral_constant@_N$00@2@@Z
	?_Assign_rv_contents_with_alloc_always_equal@?$basic_string@DU?$char_traits@D@std@@V?$allocator@D@2@@std@@QEAAX$$QEAV12@U?$integral_constant@_N$00@2@@Z
	?_Assign_rv_contents_with_alloc_always_equal@?$basic_string@_WU?$char_traits@_W@std@@V?$allocator@_W@2@@std@@QEAAX$$QEAV12@U?$integral_constant@_N$00@2@@Z
	?_Atomic_fetch_add_4@std@@YAKPECKKW4memory_order@1@@Z
	?_Atomic_load_1@std@@YAEPECEW4memory_order@1@@Z
	?_Atomic_load_4@std@@YAKPECKW4memory_order@1@@Z
	?_Atomic_load_8@std@@YA_KPEC_KW4memory_order@1@@Z
	?_Atomic_store_1@std@@YAXPECEEW4memory_order@1@@Z
	?_Atomic_store_4@std@@YAXPECKKW4memory_order@1@@Z
	?_Atomic_store_8@std@@YAXPEC_K_KW4memory_order@1@@Z
	?_Become_small@?$basic_string@DU?$char_traits@D@std@@V?$allocator@D@2@@std@@QEAAXXZ
	?_Buyheadnode@?$_Tree_comp_alloc@V?$_Tmap_traits@JV?$vector@HV?$allocator@H@std@@@std@@U?$less@J@2@V?$allocator@U?$pair@$$CBJV?$vector@HV?$allocator@H@std@@@std@@@std@@@2@$0A@@std@@@std@@QEAAPEAU?$_Tree_node@U?$pair@$$CBJV?$vector@HV?$allocator@H@std@@@std@@@std@@PEAX@2@XZ
	?_Buyheadnode@?$_Tree_comp_alloc@V?$_Tmap_traits@JV?$vector@NV?$allocator@N@std@@@std@@U?$less@J@2@V?$allocator@U?$pair@$$CBJV?$vector@NV?$allocator@N@std@@@std@@@std@@@2@$0A@@std@@@std@@QEAAPEAU?$_Tree_node@U?$pair@$$CBJV?$vector@NV?$allocator@N@std@@@std@@@std@@PEAX@2@XZ
	?_Buynode0@?$_Tree_comp_alloc@V?$_Tmap_traits@JV?$vector@HV?$allocator@H@std@@@std@@U?$less@J@2@V?$allocator@U?$pair@$$CBJV?$vector@HV?$allocator@H@std@@@std@@@std@@@2@$0A@@std@@@std@@QEAAPEAU?$_Tree_node@U?$pair@$$CBJV?$vector@HV?$allocator@H@std@@@std@@@std@@PEAX@2@XZ
	?_Buynode0@?$_Tree_comp_alloc@V?$_Tmap_traits@JV?$vector@NV?$allocator@N@std@@@std@@U?$less@J@2@V?$allocator@U?$pair@$$CBJV?$vector@NV?$allocator@N@std@@@std@@@std@@@2@$0A@@std@@@std@@QEAAPEAU?$_Tree_node@U?$pair@$$CBJV?$vector@NV?$allocator@N@std@@@std@@@std@@PEAX@2@XZ
	?_Calculate_growth@?$basic_string@DU?$char_traits@D@std@@V?$allocator@D@2@@std@@QEBA_K_K@Z
	?_Calculate_growth@?$basic_string@_WU?$char_traits@_W@std@@V?$allocator@_W@2@@std@@QEBA_K_K@Z
	?_Calculate_growth@?$vector@HV?$allocator@H@std@@@std@@AEBA_K_K@Z
	?_Calculate_growth@?$vector@IV?$allocator@I@std@@@std@@AEBA_K_K@Z
	?_Calculate_growth@?$vector@NV?$allocator@N@std@@@std@@AEBA_K_K@Z
	?_Calculate_growth@?$vector@V?$shared_ptr@Ucse_observer_s@@@std@@V?$allocator@V?$shared_ptr@Ucse_observer_s@@@std@@@2@@std@@AEBA_K_K@Z
	?_Calculate_growth@?$vector@V?$shared_ptr@Vsingle_slave_observer@cse@@@std@@V?$allocator@V?$shared_ptr@Vsingle_slave_observer@cse@@@std@@@2@@std@@AEBA_K_K@Z
	?_Calculate_growth@?$vector@V?$shared_ptr@Vslave@cse@@@std@@V?$allocator@V?$shared_ptr@Vslave@cse@@@std@@@2@@std@@AEBA_K_K@Z
	?_Call_func@_Pad@std@@CAIPEAX@Z
	?_Change_array@?$vector@HV?$allocator@H@std@@@std@@AEAAXQEAH_K1@Z
	?_Change_array@?$vector@IV?$allocator@I@std@@@std@@AEAAXQEAI_K1@Z
	?_Change_array@?$vector@NV?$allocator@N@std@@@std@@AEAAXQEAN_K1@Z
	?_Change_array@?$vector@V?$shared_ptr@Ucse_observer_s@@@std@@V?$allocator@V?$shared_ptr@Ucse_observer_s@@@std@@@2@@std@@AEAAXQEAV?$shared_ptr@Ucse_observer_s@@@2@_K1@Z
	?_Change_array@?$vector@V?$shared_ptr@Vsingle_slave_observer@cse@@@std@@V?$allocator@V?$shared_ptr@Vsingle_slave_observer@cse@@@std@@@2@@std@@AEAAXQEAV?$shared_ptr@Vsingle_slave_observer@cse@@@2@_K1@Z
	?_Change_array@?$vector@V?$shared_ptr@Vslave@cse@@@std@@V?$allocator@V?$shared_ptr@Vslave@cse@@@std@@@2@@std@@AEAAXQEAV?$shared_ptr@Vslave@cse@@@2@_K1@Z
	?_Check_C_return@std@@YAHH@Z
	?_Check_convert_result@filesystem@std@@YAHU__std_fs_convert_result@@@Z
	?_Check_offset@?$_String_val@U?$_Simple_types@D@std@@@std@@QEBAX_K@Z
	?_Clamp_suffix_size@?$_String_val@U?$_Simple_types@D@std@@@std@@QEBA_K_K0@Z
	?_Clrcont@_Iterator_base12@std@@QEAAXXZ
	?_Cnd_initX@std@@YAHPEAPEAU_Cnd_internal_imp_t@@@Z
	?_Cnd_signalX@std@@YAHPEAU_Cnd_internal_imp_t@@@Z
	?_Cnd_waitX@std@@YAHPEAU_Cnd_internal_imp_t@@PEAU_Mtx_internal_imp_t@@@Z
	?_Compare@?$_Tree@V?$_Tmap_traits@JV?$vector@HV?$allocator@H@std@@@std@@U?$less@J@2@V?$allocator@U?$pair@$$CBJV?$vector@HV?$allocator@H@std@@@std@@@std@@@2@$0A@@std@@@std@@IEBA_NAEBJ0@Z
	?_Compare@?$_Tree@V?$_Tmap_traits@JV?$vector@NV?$allocator@N@std@@@std@@U?$less@J@2@V?$allocator@U?$pair@$$CBJV?$vector@NV?$allocator@N@std@@@std@@@std@@@2@$0A@@std@@@std@@IEBA_NAEBJ0@Z
	?_Compat@?$_Vector_const_iterator@V?$_Vector_val@U?$_Simple_types@I@std@@@std@@@std@@QEBAXAEBV12@@Z
	?_Construct@?$_Tree_comp_alloc@V?$_Tmap_traits@JV?$vector@HV?$allocator@H@std@@@std@@U?$less@J@2@V?$allocator@U?$pair@$$CBJV?$vector@HV?$allocator@H@std@@@std@@@std@@@2@$0A@@std@@@std@@QEAAXXZ
	?_Construct@?$_Tree_comp_alloc@V?$_Tmap_traits@JV?$vector@NV?$allocator@N@std@@@std@@U?$less@J@2@V?$allocator@U?$pair@$$CBJV?$vector@NV?$allocator@N@std@@@std@@@std@@@2@$0A@@std@@@std@@QEAAXXZ
	?_Construct_lv_contents@?$basic_string@DU?$char_traits@D@std@@V?$allocator@D@2@@std@@QEAAXAEBV12@@Z
	?_Convert_narrow_to_wide@filesystem@std@@YA?AV?$basic_string@_WU?$char_traits@_W@std@@V?$allocator@_W@2@@2@W4__std_code_page@@V?$basic_string_view@DU?$char_traits@D@std@@@2@@Z
	?_Decref@?$_Ptr_base@Ucse_observer_s@@@std@@IEAAXXZ
	?_Decref@?$_Ptr_base@Vfmu@fmi@cse@@@std@@IEAAXXZ
	?_Decref@?$_Ptr_base@Vimporter@fmi@cse@@@std@@IEAAXXZ
	?_Decref@?$_Ptr_base@Vsingle_slave_observer@cse@@@std@@IEAAXXZ
	?_Decref@?$_Ptr_base@Vslave@cse@@@std@@IEAAXXZ
	?_Decref@?$_Ptr_base@Vslave_instance@fmi@cse@@@std@@IEAAXXZ
	?_Decref@_Ref_count_base@std@@QEAAXXZ
	?_Decwref@_Ref_count_base@std@@QEAAXXZ
	?_Delete_this@?$_Ref_count@Ucse_observer_s@@@std@@EEAAXXZ
	?_Delete_this@?$_Ref_count_obj@Vsingle_slave_observer@cse@@@std@@EEAAXXZ
	?_Destroy@?$_Ref_count@Ucse_observer_s@@@std@@EEAAXXZ
	?_Destroy@?$_Ref_count_obj@Vsingle_slave_observer@cse@@@std@@EEAAXXZ
	?_Destroy@?$vector@HV?$allocator@H@std@@@std@@AEAAXPEAH0@Z
	?_Destroy@?$vector@IV?$allocator@I@std@@@std@@AEAAXPEAI0@Z
	?_Destroy@?$vector@NV?$allocator@N@std@@@std@@AEAAXPEAN0@Z
	?_Destroy@?$vector@Uvariable_description@cse@@V?$allocator@Uvariable_description@cse@@@std@@@std@@AEAAXPEAUvariable_description@cse@@0@Z
	?_Destroy@?$vector@V?$shared_ptr@Ucse_observer_s@@@std@@V?$allocator@V?$shared_ptr@Ucse_observer_s@@@std@@@2@@std@@AEAAXPEAV?$shared_ptr@Ucse_observer_s@@@2@0@Z
	?_Destroy@?$vector@V?$shared_ptr@Vsingle_slave_observer@cse@@@std@@V?$allocator@V?$shared_ptr@Vsingle_slave_observer@cse@@@std@@@2@@std@@AEAAXPEAV?$shared_ptr@Vsingle_slave_observer@cse@@@2@0@Z
	?_Destroy@?$vector@V?$shared_ptr@Vslave@cse@@@std@@V?$allocator@V?$shared_ptr@Vslave@cse@@@std@@@2@@std@@AEAAXPEAV?$shared_ptr@Vslave@cse@@@2@0@Z
	?_Destroy_if_node@?$_Tree@V?$_Tmap_traits@JV?$vector@HV?$allocator@H@std@@@std@@U?$less@J@2@V?$allocator@U?$pair@$$CBJV?$vector@HV?$allocator@H@std@@@std@@@std@@@2@$0A@@std@@@std@@IEAAXPEAU?$_Tree_node@U?$pair@$$CBJV?$vector@HV?$allocator@H@std@@@std@@@std@@PEAX@2@@Z
	?_Destroy_if_node@?$_Tree@V?$_Tmap_traits@JV?$vector@NV?$allocator@N@std@@@std@@U?$less@J@2@V?$allocator@U?$pair@$$CBJV?$vector@NV?$allocator@N@std@@@std@@@std@@@2@$0A@@std@@@std@@IEAAXPEAU?$_Tree_node@U?$pair@$$CBJV?$vector@NV?$allocator@N@std@@@std@@@std@@PEAX@2@@Z
	?_Endwrite@?$basic_filebuf@DU?$char_traits@D@std@@@std@@IEAA_NXZ
	?_Eos@?$basic_string@DU?$char_traits@D@std@@V?$allocator@D@2@@std@@QEAAX_K@Z
	?_Eos@?$basic_string@_WU?$char_traits@_W@std@@V?$allocator@_W@2@@std@@QEAAX_K@Z
	?_Erase@?$_Tree@V?$_Tmap_traits@JV?$vector@HV?$allocator@H@std@@@std@@U?$less@J@2@V?$allocator@U?$pair@$$CBJV?$vector@HV?$allocator@H@std@@@std@@@std@@@2@$0A@@std@@@std@@IEAAXPEAU?$_Tree_node@U?$pair@$$CBJV?$vector@HV?$allocator@H@std@@@std@@@std@@PEAX@2@@Z
	?_Erase@?$_Tree@V?$_Tmap_traits@JV?$vector@NV?$allocator@N@std@@@std@@U?$less@J@2@V?$allocator@U?$pair@$$CBJV?$vector@NV?$allocator@N@std@@@std@@@std@@@2@$0A@@std@@@std@@IEAAXPEAU?$_Tree_node@U?$pair@$$CBJV?$vector@NV?$allocator@N@std@@@std@@@std@@PEAX@2@@Z
	?_Extract@?$_Tree_val@U?$_Tree_simple_types@U?$pair@$$CBJV?$vector@HV?$allocator@H@std@@@std@@@std@@@std@@@std@@QEAAPEAU?$_Tree_node@U?$pair@$$CBJV?$vector@HV?$allocator@H@std@@@std@@@std@@PEAX@2@V?$_Tree_const_iterator@V?$_Tree_val@U?$_Tree_simple_types@U?$pair@$$CBJV?$vector@HV?$allocator@H@std@@@std@@@std@@@std@@@std@@@2@@Z
	?_Extract@?$_Tree_val@U?$_Tree_simple_types@U?$pair@$$CBJV?$vector@NV?$allocator@N@std@@@std@@@std@@@std@@@std@@QEAAPEAU?$_Tree_node@U?$pair@$$CBJV?$vector@NV?$allocator@N@std@@@std@@@std@@PEAX@2@V?$_Tree_const_iterator@V?$_Tree_val@U?$_Tree_simple_types@U?$pair@$$CBJV?$vector@NV?$allocator@N@std@@@std@@@std@@@std@@@std@@@2@@Z
	?_Fetch_add_acquire_4@std@@YAKPECKK@Z
	?_Fetch_add_relaxed_4@std@@YAKPECKK@Z
	?_Fetch_add_release_4@std@@YAKPECKK@Z
	?_Fetch_add_seq_cst_4@std@@YAKPECKK@Z
	?_Free_proxy@?$_String_alloc@U?$_String_base_types@DV?$allocator@D@std@@@std@@@std@@QEAAXXZ
	?_Free_proxy@?$_String_alloc@U?$_String_base_types@_WV?$allocator@_W@std@@@std@@@std@@QEAAXXZ
	?_Free_proxy@?$_Tree_comp_alloc@V?$_Tmap_traits@JV?$vector@HV?$allocator@H@std@@@std@@U?$less@J@2@V?$allocator@U?$pair@$$CBJV?$vector@HV?$allocator@H@std@@@std@@@std@@@2@$0A@@std@@@std@@QEAAXXZ
	?_Free_proxy@?$_Tree_comp_alloc@V?$_Tmap_traits@JV?$vector@NV?$allocator@N@std@@@std@@U?$less@J@2@V?$allocator@U?$pair@$$CBJV?$vector@NV?$allocator@N@std@@@std@@@std@@@2@$0A@@std@@@std@@QEAAXXZ
	?_Free_proxy@?$_Vector_alloc@U?$_Vec_base_types@HV?$allocator@H@std@@@std@@@std@@QEAAXXZ
	?_Free_proxy@?$_Vector_alloc@U?$_Vec_base_types@IV?$allocator@I@std@@@std@@@std@@QEAAXXZ
	?_Free_proxy@?$_Vector_alloc@U?$_Vec_base_types@NV?$allocator@N@std@@@std@@@std@@QEAAXXZ
	?_Free_proxy@?$_Vector_alloc@U?$_Vec_base_types@Uvariable_description@cse@@V?$allocator@Uvariable_description@cse@@@std@@@std@@@std@@QEAAXXZ
	?_Free_proxy@?$_Vector_alloc@U?$_Vec_base_types@V?$shared_ptr@Ucse_observer_s@@@std@@V?$allocator@V?$shared_ptr@Ucse_observer_s@@@std@@@2@@std@@@std@@QEAAXXZ
	?_Free_proxy@?$_Vector_alloc@U?$_Vec_base_types@V?$shared_ptr@Vsingle_slave_observer@cse@@@std@@V?$allocator@V?$shared_ptr@Vsingle_slave_observer@cse@@@std@@@2@@std@@@std@@QEAAXXZ
	?_Free_proxy@?$_Vector_alloc@U?$_Vec_base_types@V?$shared_ptr@Vslave@cse@@@std@@V?$allocator@V?$shared_ptr@Vslave@cse@@@std@@@2@@std@@@std@@QEAAXXZ
	?_Freeheadnode@?$_Tree_comp_alloc@V?$_Tmap_traits@JV?$vector@HV?$allocator@H@std@@@std@@U?$less@J@2@V?$allocator@U?$pair@$$CBJV?$vector@HV?$allocator@H@std@@@std@@@std@@@2@$0A@@std@@@std@@QEAAXPEAU?$_Tree_node@U?$pair@$$CBJV?$vector@HV?$allocator@H@std@@@std@@@std@@PEAX@2@@Z
	?_Freeheadnode@?$_Tree_comp_alloc@V?$_Tmap_traits@JV?$vector@NV?$allocator@N@std@@@std@@U?$less@J@2@V?$allocator@U?$pair@$$CBJV?$vector@NV?$allocator@N@std@@@std@@@std@@@2@$0A@@std@@@std@@QEAAXPEAU?$_Tree_node@U?$pair@$$CBJV?$vector@NV?$allocator@N@std@@@std@@@std@@PEAX@2@@Z
	?_Freenode0@?$_Tree_comp_alloc@V?$_Tmap_traits@JV?$vector@HV?$allocator@H@std@@@std@@U?$less@J@2@V?$allocator@U?$pair@$$CBJV?$vector@HV?$allocator@H@std@@@std@@@std@@@2@$0A@@std@@@std@@QEAAXPEAU?$_Tree_node@U?$pair@$$CBJV?$vector@HV?$allocator@H@std@@@std@@@std@@PEAX@2@@Z
	?_Freenode0@?$_Tree_comp_alloc@V?$_Tmap_traits@JV?$vector@NV?$allocator@N@std@@@std@@U?$less@J@2@V?$allocator@U?$pair@$$CBJV?$vector@NV?$allocator@N@std@@@std@@@std@@@2@$0A@@std@@@std@@QEAAXPEAU?$_Tree_node@U?$pair@$$CBJV?$vector@NV?$allocator@N@std@@@std@@@std@@PEAX@2@@Z
	?_Get@?$_Optional_construct_base@V?$basic_string@DU?$char_traits@D@std@@V?$allocator@D@2@@std@@@std@@QEGAAAEAV?$basic_string@DU?$char_traits@D@std@@V?$allocator@D@2@@2@XZ
	?_Get_data@?$_String_alloc@U?$_String_base_types@DV?$allocator@D@std@@@std@@@std@@QEAAAEAV?$_String_val@U?$_Simple_types@D@std@@@2@XZ
	?_Get_data@?$_String_alloc@U?$_String_base_types@DV?$allocator@D@std@@@std@@@std@@QEBAAEBV?$_String_val@U?$_Simple_types@D@std@@@2@XZ
	?_Get_data@?$_String_alloc@U?$_String_base_types@_WV?$allocator@_W@std@@@std@@@std@@QEAAAEAV?$_String_val@U?$_Simple_types@_W@std@@@2@XZ
	?_Get_data@?$_String_alloc@U?$_String_base_types@_WV?$allocator@_W@std@@@std@@@std@@QEBAAEBV?$_String_val@U?$_Simple_types@_W@std@@@2@XZ
	?_Get_data@?$_Tree_comp_alloc@V?$_Tmap_traits@JV?$vector@HV?$allocator@H@std@@@std@@U?$less@J@2@V?$allocator@U?$pair@$$CBJV?$vector@HV?$allocator@H@std@@@std@@@std@@@2@$0A@@std@@@std@@QEAAAEAV?$_Tree_val@U?$_Tree_simple_types@U?$pair@$$CBJV?$vector@HV?$allocator@H@std@@@std@@@std@@@std@@@2@XZ
	?_Get_data@?$_Tree_comp_alloc@V?$_Tmap_traits@JV?$vector@HV?$allocator@H@std@@@std@@U?$less@J@2@V?$allocator@U?$pair@$$CBJV?$vector@HV?$allocator@H@std@@@std@@@std@@@2@$0A@@std@@@std@@QEBAAEBV?$_Tree_val@U?$_Tree_simple_types@U?$pair@$$CBJV?$vector@HV?$allocator@H@std@@@std@@@std@@@std@@@2@XZ
	?_Get_data@?$_Tree_comp_alloc@V?$_Tmap_traits@JV?$vector@NV?$allocator@N@std@@@std@@U?$less@J@2@V?$allocator@U?$pair@$$CBJV?$vector@NV?$allocator@N@std@@@std@@@std@@@2@$0A@@std@@@std@@QEAAAEAV?$_Tree_val@U?$_Tree_simple_types@U?$pair@$$CBJV?$vector@NV?$allocator@N@std@@@std@@@std@@@std@@@2@XZ
	?_Get_data@?$_Tree_comp_alloc@V?$_Tmap_traits@JV?$vector@NV?$allocator@N@std@@@std@@U?$less@J@2@V?$allocator@U?$pair@$$CBJV?$vector@NV?$allocator@N@std@@@std@@@std@@@2@$0A@@std@@@std@@QEBAAEBV?$_Tree_val@U?$_Tree_simple_types@U?$pair@$$CBJV?$vector@NV?$allocator@N@std@@@std@@@std@@@std@@@2@XZ
	?_Get_data@?$_Vector_alloc@U?$_Vec_base_types@HV?$allocator@H@std@@@std@@@std@@QEAAAEAV?$_Vector_val@U?$_Simple_types@H@std@@@2@XZ
	?_Get_data@?$_Vector_alloc@U?$_Vec_base_types@HV?$allocator@H@std@@@std@@@std@@QEBAAEBV?$_Vector_val@U?$_Simple_types@H@std@@@2@XZ
	?_Get_data@?$_Vector_alloc@U?$_Vec_base_types@IV?$allocator@I@std@@@std@@@std@@QEAAAEAV?$_Vector_val@U?$_Simple_types@I@std@@@2@XZ
	?_Get_data@?$_Vector_alloc@U?$_Vec_base_types@IV?$allocator@I@std@@@std@@@std@@QEBAAEBV?$_Vector_val@U?$_Simple_types@I@std@@@2@XZ
	?_Get_data@?$_Vector_alloc@U?$_Vec_base_types@NV?$allocator@N@std@@@std@@@std@@QEAAAEAV?$_Vector_val@U?$_Simple_types@N@std@@@2@XZ
	?_Get_data@?$_Vector_alloc@U?$_Vec_base_types@NV?$allocator@N@std@@@std@@@std@@QEBAAEBV?$_Vector_val@U?$_Simple_types@N@std@@@2@XZ
	?_Get_data@?$_Vector_alloc@U?$_Vec_base_types@Uvariable_description@cse@@V?$allocator@Uvariable_description@cse@@@std@@@std@@@std@@QEAAAEAV?$_Vector_val@U?$_Simple_types@Uvariable_description@cse@@@std@@@2@XZ
	?_Get_data@?$_Vector_alloc@U?$_Vec_base_types@Uvariable_description@cse@@V?$allocator@Uvariable_description@cse@@@std@@@std@@@std@@QEBAAEBV?$_Vector_val@U?$_Simple_types@Uvariable_description@cse@@@std@@@2@XZ
	?_Get_data@?$_Vector_alloc@U?$_Vec_base_types@V?$shared_ptr@Ucse_observer_s@@@std@@V?$allocator@V?$shared_ptr@Ucse_observer_s@@@std@@@2@@std@@@std@@QEAAAEAV?$_Vector_val@U?$_Simple_types@V?$shared_ptr@Ucse_observer_s@@@std@@@std@@@2@XZ
	?_Get_data@?$_Vector_alloc@U?$_Vec_base_types@V?$shared_ptr@Ucse_observer_s@@@std@@V?$allocator@V?$shared_ptr@Ucse_observer_s@@@std@@@2@@std@@@std@@QEBAAEBV?$_Vector_val@U?$_Simple_types@V?$shared_ptr@Ucse_observer_s@@@std@@@std@@@2@XZ
	?_Get_data@?$_Vector_alloc@U?$_Vec_base_types@V?$shared_ptr@Vsingle_slave_observer@cse@@@std@@V?$allocator@V?$shared_ptr@Vsingle_slave_observer@cse@@@std@@@2@@std@@@std@@QEAAAEAV?$_Vector_val@U?$_Simple_types@V?$shared_ptr@Vsingle_slave_observer@cse@@@std@@@std@@@2@XZ
	?_Get_data@?$_Vector_alloc@U?$_Vec_base_types@V?$shared_ptr@Vsingle_slave_observer@cse@@@std@@V?$allocator@V?$shared_ptr@Vsingle_slave_observer@cse@@@std@@@2@@std@@@std@@QEBAAEBV?$_Vector_val@U?$_Simple_types@V?$shared_ptr@Vsingle_slave_observer@cse@@@std@@@std@@@2@XZ
	?_Get_data@?$_Vector_alloc@U?$_Vec_base_types@V?$shared_ptr@Vslave@cse@@@std@@V?$allocator@V?$shared_ptr@Vslave@cse@@@std@@@2@@std@@@std@@QEAAAEAV?$_Vector_val@U?$_Simple_types@V?$shared_ptr@Vslave@cse@@@std@@@std@@@2@XZ
	?_Get_data@?$_Vector_alloc@U?$_Vec_base_types@V?$shared_ptr@Vslave@cse@@@std@@V?$allocator@V?$shared_ptr@Vslave@cse@@@std@@@2@@std@@@std@@QEBAAEBV?$_Vector_val@U?$_Simple_types@V?$shared_ptr@Vslave@cse@@@std@@@std@@@2@XZ
	?_Get_deleter@_Ref_count_base@std@@UEBAPEAXAEBVtype_info@@@Z
	?_Get_first@?$_Compressed_pair@U?$default_delete@Ucse_execution_s@@@std@@PEAUcse_execution_s@@$00@std@@QEAAAEAU?$default_delete@Ucse_execution_s@@@2@XZ
	?_Get_first@?$_Compressed_pair@U?$default_delete@Ucse_observer_s@@@std@@PEAUcse_observer_s@@$00@std@@QEAAAEAU?$default_delete@Ucse_observer_s@@@2@XZ
	?_Get_first@?$_Compressed_pair@U?$default_delete@Ucse_slave_s@@@std@@PEAUcse_slave_s@@$00@std@@QEAAAEAU?$default_delete@Ucse_slave_s@@@2@XZ
	?_Get_first@?$_Compressed_pair@U?$default_delete@V_Facet_base@std@@@std@@PEAV_Facet_base@2@$00@std@@QEAAAEAU?$default_delete@V_Facet_base@std@@@2@XZ
	?_Get_first@?$_Compressed_pair@U?$less@J@std@@V?$_Compressed_pair@V?$allocator@U?$_Tree_node@U?$pair@$$CBJV?$vector@HV?$allocator@H@std@@@std@@@std@@PEAX@std@@@std@@V?$_Tree_val@U?$_Tree_simple_types@U?$pair@$$CBJV?$vector@HV?$allocator@H@std@@@std@@@std@@@std@@@2@$00@2@$00@std@@QEAAAEAU?$less@J@2@XZ
	?_Get_first@?$_Compressed_pair@U?$less@J@std@@V?$_Compressed_pair@V?$allocator@U?$_Tree_node@U?$pair@$$CBJV?$vector@HV?$allocator@H@std@@@std@@@std@@PEAX@std@@@std@@V?$_Tree_val@U?$_Tree_simple_types@U?$pair@$$CBJV?$vector@HV?$allocator@H@std@@@std@@@std@@@std@@@2@$00@2@$00@std@@QEBAAEBU?$less@J@2@XZ
	?_Get_first@?$_Compressed_pair@U?$less@J@std@@V?$_Compressed_pair@V?$allocator@U?$_Tree_node@U?$pair@$$CBJV?$vector@NV?$allocator@N@std@@@std@@@std@@PEAX@std@@@std@@V?$_Tree_val@U?$_Tree_simple_types@U?$pair@$$CBJV?$vector@NV?$allocator@N@std@@@std@@@std@@@std@@@2@$00@2@$00@std@@QEAAAEAU?$less@J@2@XZ
	?_Get_first@?$_Compressed_pair@U?$less@J@std@@V?$_Compressed_pair@V?$allocator@U?$_Tree_node@U?$pair@$$CBJV?$vector@NV?$allocator@N@std@@@std@@@std@@PEAX@std@@@std@@V?$_Tree_val@U?$_Tree_simple_types@U?$pair@$$CBJV?$vector@NV?$allocator@N@std@@@std@@@std@@@std@@@2@$00@2@$00@std@@QEBAAEBU?$less@J@2@XZ
	?_Get_first@?$_Compressed_pair@V?$allocator@D@std@@V?$_String_val@U?$_Simple_types@D@std@@@2@$00@std@@QEAAAEAV?$allocator@D@2@XZ
	?_Get_first@?$_Compressed_pair@V?$allocator@D@std@@V?$_String_val@U?$_Simple_types@D@std@@@2@$00@std@@QEBAAEBV?$allocator@D@2@XZ
	?_Get_first@?$_Compressed_pair@V?$allocator@H@std@@V?$_Vector_val@U?$_Simple_types@H@std@@@2@$00@std@@QEAAAEAV?$allocator@H@2@XZ
	?_Get_first@?$_Compressed_pair@V?$allocator@H@std@@V?$_Vector_val@U?$_Simple_types@H@std@@@2@$00@std@@QEBAAEBV?$allocator@H@2@XZ
	?_Get_first@?$_Compressed_pair@V?$allocator@I@std@@V?$_Vector_val@U?$_Simple_types@I@std@@@2@$00@std@@QEAAAEAV?$allocator@I@2@XZ
	?_Get_first@?$_Compressed_pair@V?$allocator@I@std@@V?$_Vector_val@U?$_Simple_types@I@std@@@2@$00@std@@QEBAAEBV?$allocator@I@2@XZ
	?_Get_first@?$_Compressed_pair@V?$allocator@N@std@@V?$_Vector_val@U?$_Simple_types@N@std@@@2@$00@std@@QEAAAEAV?$allocator@N@2@XZ
	?_Get_first@?$_Compressed_pair@V?$allocator@N@std@@V?$_Vector_val@U?$_Simple_types@N@std@@@2@$00@std@@QEBAAEBV?$allocator@N@2@XZ
	?_Get_first@?$_Compressed_pair@V?$allocator@U?$_Tree_node@U?$pair@$$CBJV?$vector@HV?$allocator@H@std@@@std@@@std@@PEAX@std@@@std@@V?$_Tree_val@U?$_Tree_simple_types@U?$pair@$$CBJV?$vector@HV?$allocator@H@std@@@std@@@std@@@std@@@2@$00@std@@QEAAAEAV?$allocator@U?$_Tree_node@U?$pair@$$CBJV?$vector@HV?$allocator@H@std@@@std@@@std@@PEAX@std@@@2@XZ
	?_Get_first@?$_Compressed_pair@V?$allocator@U?$_Tree_node@U?$pair@$$CBJV?$vector@HV?$allocator@H@std@@@std@@@std@@PEAX@std@@@std@@V?$_Tree_val@U?$_Tree_simple_types@U?$pair@$$CBJV?$vector@HV?$allocator@H@std@@@std@@@std@@@std@@@2@$00@std@@QEBAAEBV?$allocator@U?$_Tree_node@U?$pair@$$CBJV?$vector@HV?$allocator@H@std@@@std@@@std@@PEAX@std@@@2@XZ
	?_Get_first@?$_Compressed_pair@V?$allocator@U?$_Tree_node@U?$pair@$$CBJV?$vector@NV?$allocator@N@std@@@std@@@std@@PEAX@std@@@std@@V?$_Tree_val@U?$_Tree_simple_types@U?$pair@$$CBJV?$vector@NV?$allocator@N@std@@@std@@@std@@@std@@@2@$00@std@@QEAAAEAV?$allocator@U?$_Tree_node@U?$pair@$$CBJV?$vector@NV?$allocator@N@std@@@std@@@std@@PEAX@std@@@2@XZ
	?_Get_first@?$_Compressed_pair@V?$allocator@U?$_Tree_node@U?$pair@$$CBJV?$vector@NV?$allocator@N@std@@@std@@@std@@PEAX@std@@@std@@V?$_Tree_val@U?$_Tree_simple_types@U?$pair@$$CBJV?$vector@NV?$allocator@N@std@@@std@@@std@@@std@@@2@$00@std@@QEBAAEBV?$allocator@U?$_Tree_node@U?$pair@$$CBJV?$vector@NV?$allocator@N@std@@@std@@@std@@PEAX@std@@@2@XZ
	?_Get_first@?$_Compressed_pair@V?$allocator@Uvariable_description@cse@@@std@@V?$_Vector_val@U?$_Simple_types@Uvariable_description@cse@@@std@@@2@$00@std@@QEAAAEAV?$allocator@Uvariable_description@cse@@@2@XZ
	?_Get_first@?$_Compressed_pair@V?$allocator@V?$shared_ptr@Ucse_observer_s@@@std@@@std@@V?$_Vector_val@U?$_Simple_types@V?$shared_ptr@Ucse_observer_s@@@std@@@std@@@2@$00@std@@QEAAAEAV?$allocator@V?$shared_ptr@Ucse_observer_s@@@std@@@2@XZ
	?_Get_first@?$_Compressed_pair@V?$allocator@V?$shared_ptr@Ucse_observer_s@@@std@@@std@@V?$_Vector_val@U?$_Simple_types@V?$shared_ptr@Ucse_observer_s@@@std@@@std@@@2@$00@std@@QEBAAEBV?$allocator@V?$shared_ptr@Ucse_observer_s@@@std@@@2@XZ
	?_Get_first@?$_Compressed_pair@V?$allocator@V?$shared_ptr@Vsingle_slave_observer@cse@@@std@@@std@@V?$_Vector_val@U?$_Simple_types@V?$shared_ptr@Vsingle_slave_observer@cse@@@std@@@std@@@2@$00@std@@QEAAAEAV?$allocator@V?$shared_ptr@Vsingle_slave_observer@cse@@@std@@@2@XZ
	?_Get_first@?$_Compressed_pair@V?$allocator@V?$shared_ptr@Vsingle_slave_observer@cse@@@std@@@std@@V?$_Vector_val@U?$_Simple_types@V?$shared_ptr@Vsingle_slave_observer@cse@@@std@@@std@@@2@$00@std@@QEBAAEBV?$allocator@V?$shared_ptr@Vsingle_slave_observer@cse@@@std@@@2@XZ
	?_Get_first@?$_Compressed_pair@V?$allocator@V?$shared_ptr@Vslave@cse@@@std@@@std@@V?$_Vector_val@U?$_Simple_types@V?$shared_ptr@Vslave@cse@@@std@@@std@@@2@$00@std@@QEAAAEAV?$allocator@V?$shared_ptr@Vslave@cse@@@std@@@2@XZ
	?_Get_first@?$_Compressed_pair@V?$allocator@V?$shared_ptr@Vslave@cse@@@std@@@std@@V?$_Vector_val@U?$_Simple_types@V?$shared_ptr@Vslave@cse@@@std@@@std@@@2@$00@std@@QEBAAEBV?$allocator@V?$shared_ptr@Vslave@cse@@@std@@@2@XZ
	?_Get_first@?$_Compressed_pair@V?$allocator@_W@std@@V?$_String_val@U?$_Simple_types@_W@std@@@2@$00@std@@QEAAAEAV?$allocator@_W@2@XZ
	?_Get_first@?$_Compressed_pair@V?$allocator@_W@std@@V?$_String_val@U?$_Simple_types@_W@std@@@2@$00@std@@QEBAAEBV?$allocator@_W@2@XZ
	?_Get_second@?$_Compressed_pair@U?$default_delete@Ucse_execution_s@@@std@@PEAUcse_execution_s@@$00@std@@QEAAAEAPEAUcse_execution_s@@XZ
	?_Get_second@?$_Compressed_pair@U?$default_delete@Ucse_execution_s@@@std@@PEAUcse_execution_s@@$00@std@@QEBAAEBQEAUcse_execution_s@@XZ
	?_Get_second@?$_Compressed_pair@U?$default_delete@Ucse_observer_s@@@std@@PEAUcse_observer_s@@$00@std@@QEAAAEAPEAUcse_observer_s@@XZ
	?_Get_second@?$_Compressed_pair@U?$default_delete@Ucse_observer_s@@@std@@PEAUcse_observer_s@@$00@std@@QEBAAEBQEAUcse_observer_s@@XZ
	?_Get_second@?$_Compressed_pair@U?$default_delete@Ucse_slave_s@@@std@@PEAUcse_slave_s@@$00@std@@QEAAAEAPEAUcse_slave_s@@XZ
	?_Get_second@?$_Compressed_pair@U?$default_delete@Ucse_slave_s@@@std@@PEAUcse_slave_s@@$00@std@@QEBAAEBQEAUcse_slave_s@@XZ
	?_Get_second@?$_Compressed_pair@U?$default_delete@V_Facet_base@std@@@std@@PEAV_Facet_base@2@$00@std@@QEAAAEAPEAV_Facet_base@2@XZ
	?_Get_second@?$_Compressed_pair@U?$default_delete@V_Facet_base@std@@@std@@PEAV_Facet_base@2@$00@std@@QEBAAEBQEAV_Facet_base@2@XZ
	?_Get_second@?$_Compressed_pair@U?$less@J@std@@V?$_Compressed_pair@V?$allocator@U?$_Tree_node@U?$pair@$$CBJV?$vector@HV?$allocator@H@std@@@std@@@std@@PEAX@std@@@std@@V?$_Tree_val@U?$_Tree_simple_types@U?$pair@$$CBJV?$vector@HV?$allocator@H@std@@@std@@@std@@@std@@@2@$00@2@$00@std@@QEAAAEAV?$_Compressed_pair@V?$allocator@U?$_Tree_node@U?$pair@$$CBJV?$vector@HV?$allocator@H@std@@@std@@@std@@PEAX@std@@@std@@V?$_Tree_val@U?$_Tree_simple_types@U?$pair@$$CBJV?$vector@HV?$allocator@H@std@@@std@@@std@@@std@@@2@$00@2@XZ
	?_Get_second@?$_Compressed_pair@U?$less@J@std@@V?$_Compressed_pair@V?$allocator@U?$_Tree_node@U?$pair@$$CBJV?$vector@HV?$allocator@H@std@@@std@@@std@@PEAX@std@@@std@@V?$_Tree_val@U?$_Tree_simple_types@U?$pair@$$CBJV?$vector@HV?$allocator@H@std@@@std@@@std@@@std@@@2@$00@2@$00@std@@QEBAAEBV?$_Compressed_pair@V?$allocator@U?$_Tree_node@U?$pair@$$CBJV?$vector@HV?$allocator@H@std@@@std@@@std@@PEAX@std@@@std@@V?$_Tree_val@U?$_Tree_simple_types@U?$pair@$$CBJV?$vector@HV?$allocator@H@std@@@std@@@std@@@std@@@2@$00@2@XZ
	?_Get_second@?$_Compressed_pair@U?$less@J@std@@V?$_Compressed_pair@V?$allocator@U?$_Tree_node@U?$pair@$$CBJV?$vector@NV?$allocator@N@std@@@std@@@std@@PEAX@std@@@std@@V?$_Tree_val@U?$_Tree_simple_types@U?$pair@$$CBJV?$vector@NV?$allocator@N@std@@@std@@@std@@@std@@@2@$00@2@$00@std@@QEAAAEAV?$_Compressed_pair@V?$allocator@U?$_Tree_node@U?$pair@$$CBJV?$vector@NV?$allocator@N@std@@@std@@@std@@PEAX@std@@@std@@V?$_Tree_val@U?$_Tree_simple_types@U?$pair@$$CBJV?$vector@NV?$allocator@N@std@@@std@@@std@@@std@@@2@$00@2@XZ
	?_Get_second@?$_Compressed_pair@U?$less@J@std@@V?$_Compressed_pair@V?$allocator@U?$_Tree_node@U?$pair@$$CBJV?$vector@NV?$allocator@N@std@@@std@@@std@@PEAX@std@@@std@@V?$_Tree_val@U?$_Tree_simple_types@U?$pair@$$CBJV?$vector@NV?$allocator@N@std@@@std@@@std@@@std@@@2@$00@2@$00@std@@QEBAAEBV?$_Compressed_pair@V?$allocator@U?$_Tree_node@U?$pair@$$CBJV?$vector@NV?$allocator@N@std@@@std@@@std@@PEAX@std@@@std@@V?$_Tree_val@U?$_Tree_simple_types@U?$pair@$$CBJV?$vector@NV?$allocator@N@std@@@std@@@std@@@std@@@2@$00@2@XZ
	?_Get_second@?$_Compressed_pair@V?$allocator@D@std@@V?$_String_val@U?$_Simple_types@D@std@@@2@$00@std@@QEAAAEAV?$_String_val@U?$_Simple_types@D@std@@@2@XZ
	?_Get_second@?$_Compressed_pair@V?$allocator@D@std@@V?$_String_val@U?$_Simple_types@D@std@@@2@$00@std@@QEBAAEBV?$_String_val@U?$_Simple_types@D@std@@@2@XZ
	?_Get_second@?$_Compressed_pair@V?$allocator@H@std@@V?$_Vector_val@U?$_Simple_types@H@std@@@2@$00@std@@QEAAAEAV?$_Vector_val@U?$_Simple_types@H@std@@@2@XZ
	?_Get_second@?$_Compressed_pair@V?$allocator@H@std@@V?$_Vector_val@U?$_Simple_types@H@std@@@2@$00@std@@QEBAAEBV?$_Vector_val@U?$_Simple_types@H@std@@@2@XZ
	?_Get_second@?$_Compressed_pair@V?$allocator@I@std@@V?$_Vector_val@U?$_Simple_types@I@std@@@2@$00@std@@QEAAAEAV?$_Vector_val@U?$_Simple_types@I@std@@@2@XZ
	?_Get_second@?$_Compressed_pair@V?$allocator@I@std@@V?$_Vector_val@U?$_Simple_types@I@std@@@2@$00@std@@QEBAAEBV?$_Vector_val@U?$_Simple_types@I@std@@@2@XZ
	?_Get_second@?$_Compressed_pair@V?$allocator@N@std@@V?$_Vector_val@U?$_Simple_types@N@std@@@2@$00@std@@QEAAAEAV?$_Vector_val@U?$_Simple_types@N@std@@@2@XZ
	?_Get_second@?$_Compressed_pair@V?$allocator@N@std@@V?$_Vector_val@U?$_Simple_types@N@std@@@2@$00@std@@QEBAAEBV?$_Vector_val@U?$_Simple_types@N@std@@@2@XZ
	?_Get_second@?$_Compressed_pair@V?$allocator@U?$_Tree_node@U?$pair@$$CBJV?$vector@HV?$allocator@H@std@@@std@@@std@@PEAX@std@@@std@@V?$_Tree_val@U?$_Tree_simple_types@U?$pair@$$CBJV?$vector@HV?$allocator@H@std@@@std@@@std@@@std@@@2@$00@std@@QEAAAEAV?$_Tree_val@U?$_Tree_simple_types@U?$pair@$$CBJV?$vector@HV?$allocator@H@std@@@std@@@std@@@std@@@2@XZ
	?_Get_second@?$_Compressed_pair@V?$allocator@U?$_Tree_node@U?$pair@$$CBJV?$vector@HV?$allocator@H@std@@@std@@@std@@PEAX@std@@@std@@V?$_Tree_val@U?$_Tree_simple_types@U?$pair@$$CBJV?$vector@HV?$allocator@H@std@@@std@@@std@@@std@@@2@$00@std@@QEBAAEBV?$_Tree_val@U?$_Tree_simple_types@U?$pair@$$CBJV?$vector@HV?$allocator@H@std@@@std@@@std@@@std@@@2@XZ
	?_Get_second@?$_Compressed_pair@V?$allocator@U?$_Tree_node@U?$pair@$$CBJV?$vector@NV?$allocator@N@std@@@std@@@std@@PEAX@std@@@std@@V?$_Tree_val@U?$_Tree_simple_types@U?$pair@$$CBJV?$vector@NV?$allocator@N@std@@@std@@@std@@@std@@@2@$00@std@@QEAAAEAV?$_Tree_val@U?$_Tree_simple_types@U?$pair@$$CBJV?$vector@NV?$allocator@N@std@@@std@@@std@@@std@@@2@XZ
	?_Get_second@?$_Compressed_pair@V?$allocator@U?$_Tree_node@U?$pair@$$CBJV?$vector@NV?$allocator@N@std@@@std@@@std@@PEAX@std@@@std@@V?$_Tree_val@U?$_Tree_simple_types@U?$pair@$$CBJV?$vector@NV?$allocator@N@std@@@std@@@std@@@std@@@2@$00@std@@QEBAAEBV?$_Tree_val@U?$_Tree_simple_types@U?$pair@$$CBJV?$vector@NV?$allocator@N@std@@@std@@@std@@@std@@@2@XZ
	?_Get_second@?$_Compressed_pair@V?$allocator@Uvariable_description@cse@@@std@@V?$_Vector_val@U?$_Simple_types@Uvariable_description@cse@@@std@@@2@$00@std@@QEAAAEAV?$_Vector_val@U?$_Simple_types@Uvariable_description@cse@@@std@@@2@XZ
	?_Get_second@?$_Compressed_pair@V?$allocator@Uvariable_description@cse@@@std@@V?$_Vector_val@U?$_Simple_types@Uvariable_description@cse@@@std@@@2@$00@std@@QEBAAEBV?$_Vector_val@U?$_Simple_types@Uvariable_description@cse@@@std@@@2@XZ
	?_Get_second@?$_Compressed_pair@V?$allocator@V?$shared_ptr@Ucse_observer_s@@@std@@@std@@V?$_Vector_val@U?$_Simple_types@V?$shared_ptr@Ucse_observer_s@@@std@@@std@@@2@$00@std@@QEAAAEAV?$_Vector_val@U?$_Simple_types@V?$shared_ptr@Ucse_observer_s@@@std@@@std@@@2@XZ
	?_Get_second@?$_Compressed_pair@V?$allocator@V?$shared_ptr@Ucse_observer_s@@@std@@@std@@V?$_Vector_val@U?$_Simple_types@V?$shared_ptr@Ucse_observer_s@@@std@@@std@@@2@$00@std@@QEBAAEBV?$_Vector_val@U?$_Simple_types@V?$shared_ptr@Ucse_observer_s@@@std@@@std@@@2@XZ
	?_Get_second@?$_Compressed_pair@V?$allocator@V?$shared_ptr@Vsingle_slave_observer@cse@@@std@@@std@@V?$_Vector_val@U?$_Simple_types@V?$shared_ptr@Vsingle_slave_observer@cse@@@std@@@std@@@2@$00@std@@QEAAAEAV?$_Vector_val@U?$_Simple_types@V?$shared_ptr@Vsingle_slave_observer@cse@@@std@@@std@@@2@XZ
	?_Get_second@?$_Compressed_pair@V?$allocator@V?$shared_ptr@Vsingle_slave_observer@cse@@@std@@@std@@V?$_Vector_val@U?$_Simple_types@V?$shared_ptr@Vsingle_slave_observer@cse@@@std@@@std@@@2@$00@std@@QEBAAEBV?$_Vector_val@U?$_Simple_types@V?$shared_ptr@Vsingle_slave_observer@cse@@@std@@@std@@@2@XZ
	?_Get_second@?$_Compressed_pair@V?$allocator@V?$shared_ptr@Vslave@cse@@@std@@@std@@V?$_Vector_val@U?$_Simple_types@V?$shared_ptr@Vslave@cse@@@std@@@std@@@2@$00@std@@QEAAAEAV?$_Vector_val@U?$_Simple_types@V?$shared_ptr@Vslave@cse@@@std@@@std@@@2@XZ
	?_Get_second@?$_Compressed_pair@V?$allocator@V?$shared_ptr@Vslave@cse@@@std@@@std@@V?$_Vector_val@U?$_Simple_types@V?$shared_ptr@Vslave@cse@@@std@@@std@@@2@$00@std@@QEBAAEBV?$_Vector_val@U?$_Simple_types@V?$shared_ptr@Vslave@cse@@@std@@@std@@@2@XZ
	?_Get_second@?$_Compressed_pair@V?$allocator@_W@std@@V?$_String_val@U?$_Simple_types@_W@std@@@2@$00@std@@QEAAAEAV?$_String_val@U?$_Simple_types@_W@std@@@2@XZ
	?_Get_second@?$_Compressed_pair@V?$allocator@_W@std@@V?$_String_val@U?$_Simple_types@_W@std@@@2@$00@std@@QEBAAEBV?$_String_val@U?$_Simple_types@_W@std@@@2@XZ
	?_Getal@?$_String_alloc@U?$_String_base_types@DV?$allocator@D@std@@@std@@@std@@QEAAAEAV?$allocator@D@2@XZ
	?_Getal@?$_String_alloc@U?$_String_base_types@DV?$allocator@D@std@@@std@@@std@@QEBAAEBV?$allocator@D@2@XZ
	?_Getal@?$_String_alloc@U?$_String_base_types@_WV?$allocator@_W@std@@@std@@@std@@QEAAAEAV?$allocator@_W@2@XZ
	?_Getal@?$_String_alloc@U?$_String_base_types@_WV?$allocator@_W@std@@@std@@@std@@QEBAAEBV?$allocator@_W@2@XZ
	?_Getal@?$_Tree_comp_alloc@V?$_Tmap_traits@JV?$vector@HV?$allocator@H@std@@@std@@U?$less@J@2@V?$allocator@U?$pair@$$CBJV?$vector@HV?$allocator@H@std@@@std@@@std@@@2@$0A@@std@@@std@@QEAAAEAV?$allocator@U?$_Tree_node@U?$pair@$$CBJV?$vector@HV?$allocator@H@std@@@std@@@std@@PEAX@std@@@2@XZ
	?_Getal@?$_Tree_comp_alloc@V?$_Tmap_traits@JV?$vector@HV?$allocator@H@std@@@std@@U?$less@J@2@V?$allocator@U?$pair@$$CBJV?$vector@HV?$allocator@H@std@@@std@@@std@@@2@$0A@@std@@@std@@QEBAAEBV?$allocator@U?$_Tree_node@U?$pair@$$CBJV?$vector@HV?$allocator@H@std@@@std@@@std@@PEAX@std@@@2@XZ
	?_Getal@?$_Tree_comp_alloc@V?$_Tmap_traits@JV?$vector@NV?$allocator@N@std@@@std@@U?$less@J@2@V?$allocator@U?$pair@$$CBJV?$vector@NV?$allocator@N@std@@@std@@@std@@@2@$0A@@std@@@std@@QEAAAEAV?$allocator@U?$_Tree_node@U?$pair@$$CBJV?$vector@NV?$allocator@N@std@@@std@@@std@@PEAX@std@@@2@XZ
	?_Getal@?$_Tree_comp_alloc@V?$_Tmap_traits@JV?$vector@NV?$allocator@N@std@@@std@@U?$less@J@2@V?$allocator@U?$pair@$$CBJV?$vector@NV?$allocator@N@std@@@std@@@std@@@2@$0A@@std@@@std@@QEBAAEBV?$allocator@U?$_Tree_node@U?$pair@$$CBJV?$vector@NV?$allocator@N@std@@@std@@@std@@PEAX@std@@@2@XZ
	?_Getal@?$_Vector_alloc@U?$_Vec_base_types@HV?$allocator@H@std@@@std@@@std@@QEAAAEAV?$allocator@H@2@XZ
	?_Getal@?$_Vector_alloc@U?$_Vec_base_types@HV?$allocator@H@std@@@std@@@std@@QEBAAEBV?$allocator@H@2@XZ
	?_Getal@?$_Vector_alloc@U?$_Vec_base_types@IV?$allocator@I@std@@@std@@@std@@QEAAAEAV?$allocator@I@2@XZ
	?_Getal@?$_Vector_alloc@U?$_Vec_base_types@IV?$allocator@I@std@@@std@@@std@@QEBAAEBV?$allocator@I@2@XZ
	?_Getal@?$_Vector_alloc@U?$_Vec_base_types@NV?$allocator@N@std@@@std@@@std@@QEAAAEAV?$allocator@N@2@XZ
	?_Getal@?$_Vector_alloc@U?$_Vec_base_types@NV?$allocator@N@std@@@std@@@std@@QEBAAEBV?$allocator@N@2@XZ
	?_Getal@?$_Vector_alloc@U?$_Vec_base_types@Uvariable_description@cse@@V?$allocator@Uvariable_description@cse@@@std@@@std@@@std@@QEAAAEAV?$allocator@Uvariable_description@cse@@@2@XZ
	?_Getal@?$_Vector_alloc@U?$_Vec_base_types@V?$shared_ptr@Ucse_observer_s@@@std@@V?$allocator@V?$shared_ptr@Ucse_observer_s@@@std@@@2@@std@@@std@@QEAAAEAV?$allocator@V?$shared_ptr@Ucse_observer_s@@@std@@@2@XZ
	?_Getal@?$_Vector_alloc@U?$_Vec_base_types@V?$shared_ptr@Ucse_observer_s@@@std@@V?$allocator@V?$shared_ptr@Ucse_observer_s@@@std@@@2@@std@@@std@@QEBAAEBV?$allocator@V?$shared_ptr@Ucse_observer_s@@@std@@@2@XZ
	?_Getal@?$_Vector_alloc@U?$_Vec_base_types@V?$shared_ptr@Vsingle_slave_observer@cse@@@std@@V?$allocator@V?$shared_ptr@Vsingle_slave_observer@cse@@@std@@@2@@std@@@std@@QEAAAEAV?$allocator@V?$shared_ptr@Vsingle_slave_observer@cse@@@std@@@2@XZ
	?_Getal@?$_Vector_alloc@U?$_Vec_base_types@V?$shared_ptr@Vsingle_slave_observer@cse@@@std@@V?$allocator@V?$shared_ptr@Vsingle_slave_observer@cse@@@std@@@2@@std@@@std@@QEBAAEBV?$allocator@V?$shared_ptr@Vsingle_slave_observer@cse@@@std@@@2@XZ
	?_Getal@?$_Vector_alloc@U?$_Vec_base_types@V?$shared_ptr@Vslave@cse@@@std@@V?$allocator@V?$shared_ptr@Vslave@cse@@@std@@@2@@std@@@std@@QEAAAEAV?$allocator@V?$shared_ptr@Vslave@cse@@@std@@@2@XZ
	?_Getal@?$_Vector_alloc@U?$_Vec_base_types@V?$shared_ptr@Vslave@cse@@@std@@V?$allocator@V?$shared_ptr@Vslave@cse@@@std@@@2@@std@@@std@@QEBAAEBV?$allocator@V?$shared_ptr@Vslave@cse@@@std@@@2@XZ
	?_Getcomp@?$_Tree_comp_alloc@V?$_Tmap_traits@JV?$vector@HV?$allocator@H@std@@@std@@U?$less@J@2@V?$allocator@U?$pair@$$CBJV?$vector@HV?$allocator@H@std@@@std@@@std@@@2@$0A@@std@@@std@@QEAAAEAU?$less@J@2@XZ
	?_Getcomp@?$_Tree_comp_alloc@V?$_Tmap_traits@JV?$vector@HV?$allocator@H@std@@@std@@U?$less@J@2@V?$allocator@U?$pair@$$CBJV?$vector@HV?$allocator@H@std@@@std@@@std@@@2@$0A@@std@@@std@@QEBAAEBU?$less@J@2@XZ
	?_Getcomp@?$_Tree_comp_alloc@V?$_Tmap_traits@JV?$vector@NV?$allocator@N@std@@@std@@U?$less@J@2@V?$allocator@U?$pair@$$CBJV?$vector@NV?$allocator@N@std@@@std@@@std@@@2@$0A@@std@@@std@@QEAAAEAU?$less@J@2@XZ
	?_Getcomp@?$_Tree_comp_alloc@V?$_Tmap_traits@JV?$vector@NV?$allocator@N@std@@@std@@U?$less@J@2@V?$allocator@U?$pair@$$CBJV?$vector@NV?$allocator@N@std@@@std@@@std@@@2@$0A@@std@@@std@@QEBAAEBU?$less@J@2@XZ
	?_Getcont@_Iterator_base12@std@@QEBAPEBU_Container_base12@2@XZ
	?_Getfacet@locale@std@@QEBAPEBVfacet@12@_K@Z
	?_Getpfirst@?$_Tree_comp_alloc@V?$_Tmap_traits@JV?$vector@HV?$allocator@H@std@@@std@@U?$less@J@2@V?$allocator@U?$pair@$$CBJV?$vector@HV?$allocator@H@std@@@std@@@std@@@2@$0A@@std@@@std@@QEBAPEAPEAU_Iterator_base12@2@XZ
	?_Getpfirst@?$_Tree_comp_alloc@V?$_Tmap_traits@JV?$vector@NV?$allocator@N@std@@@std@@U?$less@J@2@V?$allocator@U?$pair@$$CBJV?$vector@NV?$allocator@N@std@@@std@@@std@@@2@$0A@@std@@@std@@QEBAPEAPEAU_Iterator_base12@2@XZ
	?_Getpfirst@?$_Vector_alloc@U?$_Vec_base_types@HV?$allocator@H@std@@@std@@@std@@QEBAPEAPEAU_Iterator_base12@2@XZ
	?_Getpfirst@?$_Vector_alloc@U?$_Vec_base_types@IV?$allocator@I@std@@@std@@@std@@QEBAPEAPEAU_Iterator_base12@2@XZ
	?_Getpfirst@?$_Vector_alloc@U?$_Vec_base_types@NV?$allocator@N@std@@@std@@@std@@QEBAPEAPEAU_Iterator_base12@2@XZ
	?_Getpfirst@?$_Vector_alloc@U?$_Vec_base_types@V?$shared_ptr@Ucse_observer_s@@@std@@V?$allocator@V?$shared_ptr@Ucse_observer_s@@@std@@@2@@std@@@std@@QEBAPEAPEAU_Iterator_base12@2@XZ
	?_Getpfirst@?$_Vector_alloc@U?$_Vec_base_types@V?$shared_ptr@Vsingle_slave_observer@cse@@@std@@V?$allocator@V?$shared_ptr@Vsingle_slave_observer@cse@@@std@@@2@@std@@@std@@QEBAPEAPEAU_Iterator_base12@2@XZ
	?_Getpfirst@?$_Vector_alloc@U?$_Vec_base_types@V?$shared_ptr@Vslave@cse@@@std@@V?$allocator@V?$shared_ptr@Vslave@cse@@@std@@@2@@std@@@std@@QEBAPEAPEAU_Iterator_base12@2@XZ
	?_Getpfirst@_Container_base12@std@@QEBAPEAPEAU_Iterator_base12@2@XZ
	?_Getpnext@_Iterator_base12@std@@QEAAPEAPEAU12@XZ
	?_Getptr@?$_Ref_count_obj@Vsingle_slave_observer@cse@@@std@@QEAAPEAVsingle_slave_observer@cse@@XZ
	?_Has_unused_capacity@?$vector@IV?$allocator@I@std@@@std@@AEBA_NXZ
	?_Has_unused_capacity@?$vector@V?$shared_ptr@Ucse_observer_s@@@std@@V?$allocator@V?$shared_ptr@Ucse_observer_s@@@std@@@2@@std@@AEBA_NXZ
	?_Has_unused_capacity@?$vector@V?$shared_ptr@Vsingle_slave_observer@cse@@@std@@V?$allocator@V?$shared_ptr@Vsingle_slave_observer@cse@@@std@@@2@@std@@AEBA_NXZ
	?_Has_unused_capacity@?$vector@V?$shared_ptr@Vslave@cse@@@std@@V?$allocator@V?$shared_ptr@Vslave@cse@@@std@@@2@@std@@AEBA_NXZ
	?_Incref@_Ref_count_base@std@@QEAAXXZ
	?_Init@?$basic_filebuf@DU?$char_traits@D@std@@@std@@IEAAXPEAU_iobuf@@W4_Initfl@12@@Z
	?_Initcvt@?$basic_filebuf@DU?$char_traits@D@std@@@std@@IEAAXAEBV?$codecvt@DDU_Mbstatet@@@2@@Z
	?_Key@?$_Tree@V?$_Tmap_traits@JV?$vector@HV?$allocator@H@std@@@std@@U?$less@J@2@V?$allocator@U?$pair@$$CBJV?$vector@HV?$allocator@H@std@@@std@@@std@@@2@$0A@@std@@@std@@IEBAAEBJPEAU?$_Tree_node@U?$pair@$$CBJV?$vector@HV?$allocator@H@std@@@std@@@std@@PEAX@2@@Z
	?_Key@?$_Tree@V?$_Tmap_traits@JV?$vector@NV?$allocator@N@std@@@std@@U?$less@J@2@V?$allocator@U?$pair@$$CBJV?$vector@NV?$allocator@N@std@@@std@@@std@@@2@$0A@@std@@@std@@IEBAAEBJPEAU?$_Tree_node@U?$pair@$$CBJV?$vector@NV?$allocator@N@std@@@std@@@std@@PEAX@2@@Z
	?_Kfn@?$_Tree@V?$_Tmap_traits@JV?$vector@HV?$allocator@H@std@@@std@@U?$less@J@2@V?$allocator@U?$pair@$$CBJV?$vector@HV?$allocator@H@std@@@std@@@std@@@2@$0A@@std@@@std@@IEBAAEBJAEBU?$pair@$$CBJV?$vector@HV?$allocator@H@std@@@std@@@2@@Z
	?_Kfn@?$_Tree@V?$_Tmap_traits@JV?$vector@NV?$allocator@N@std@@@std@@U?$less@J@2@V?$allocator@U?$pair@$$CBJV?$vector@NV?$allocator@N@std@@@std@@@std@@@2@$0A@@std@@@std@@IEBAAEBJAEBU?$pair@$$CBJV?$vector@NV?$allocator@N@std@@@std@@@2@@Z
	?_Large_string_engaged@?$_String_val@U?$_Simple_types@D@std@@@std@@QEBA_NXZ
	?_Large_string_engaged@?$_String_val@U?$_Simple_types@_W@std@@@std@@QEBA_NXZ
	?_Launch@_Pad@std@@QEAAXPEAU_Thrd_imp_t@@@Z
	?_Lmost@?$_Tree_val@U?$_Tree_simple_types@U?$pair@$$CBJV?$vector@HV?$allocator@H@std@@@std@@@std@@@std@@@std@@QEBAAEAPEAU?$_Tree_node@U?$pair@$$CBJV?$vector@HV?$allocator@H@std@@@std@@@std@@PEAX@2@XZ
	?_Lmost@?$_Tree_val@U?$_Tree_simple_types@U?$pair@$$CBJV?$vector@NV?$allocator@N@std@@@std@@@std@@@std@@@std@@QEBAAEAPEAU?$_Tree_node@U?$pair@$$CBJV?$vector@NV?$allocator@N@std@@@std@@@std@@PEAX@2@XZ
	?_Load@?$_Atomic_impl@$03@std@@QEDAXPEAXPEBXW4memory_order@2@@Z
	?_Load@?$_Atomic_impl@$07@std@@QEDAXPEAXPEBXW4memory_order@2@@Z
	?_Load_acquire_1@std@@YAEPECE@Z
	?_Load_acquire_4@std@@YAKPECK@Z
	?_Load_acquire_8@std@@YA_KPEC_K@Z
	?_Load_relaxed_1@std@@YAEPECE@Z
	?_Load_relaxed_4@std@@YAKPECK@Z
	?_Load_relaxed_8@std@@YA_KPEC_K@Z
	?_Load_seq_cst_1@std@@YAEPECE@Z
	?_Load_seq_cst_4@std@@YAKPECK@Z
	?_Load_seq_cst_8@std@@YA_KPEC_K@Z
	?_Lock@?$basic_filebuf@DU?$char_traits@D@std@@@std@@UEAAXXZ
	?_Lrotate@?$_Tree_val@U?$_Tree_simple_types@U?$pair@$$CBJV?$vector@HV?$allocator@H@std@@@std@@@std@@@std@@@std@@QEAAXPEAU?$_Tree_node@U?$pair@$$CBJV?$vector@HV?$allocator@H@std@@@std@@@std@@PEAX@2@@Z
	?_Lrotate@?$_Tree_val@U?$_Tree_simple_types@U?$pair@$$CBJV?$vector@NV?$allocator@N@std@@@std@@@std@@@std@@@std@@QEAAXPEAU?$_Tree_node@U?$pair@$$CBJV?$vector@NV?$allocator@N@std@@@std@@@std@@PEAX@2@@Z
	?_Make_ec@filesystem@std@@YA?AVerror_code@2@W4__std_win_error@@@Z
	?_Makestr@_System_error@std@@CA?AV?$basic_string@DU?$char_traits@D@std@@V?$allocator@D@2@@2@Verror_code@2@V32@@Z
	?_Maklocwcs@std@@YAPEA_WPEB_W@Z
	?_Max@?$_Tree_val@U?$_Tree_simple_types@U?$pair@$$CBJV?$vector@HV?$allocator@H@std@@@std@@@std@@@std@@@std@@SAPEAU?$_Tree_node@U?$pair@$$CBJV?$vector@HV?$allocator@H@std@@@std@@@std@@PEAX@2@PEAU32@@Z
	?_Max@?$_Tree_val@U?$_Tree_simple_types@U?$pair@$$CBJV?$vector@NV?$allocator@N@std@@@std@@@std@@@std@@@std@@SAPEAU?$_Tree_node@U?$pair@$$CBJV?$vector@NV?$allocator@N@std@@@std@@@std@@PEAX@2@PEAU32@@Z
	?_Min@?$_Tree_val@U?$_Tree_simple_types@U?$pair@$$CBJV?$vector@HV?$allocator@H@std@@@std@@@std@@@std@@@std@@SAPEAU?$_Tree_node@U?$pair@$$CBJV?$vector@HV?$allocator@H@std@@@std@@@std@@PEAX@2@PEAU32@@Z
	?_Min@?$_Tree_val@U?$_Tree_simple_types@U?$pair@$$CBJV?$vector@NV?$allocator@N@std@@@std@@@std@@@std@@@std@@SAPEAU?$_Tree_node@U?$pair@$$CBJV?$vector@NV?$allocator@N@std@@@std@@@std@@PEAX@2@PEAU32@@Z
	?_Move_alloc@?$_String_alloc@U?$_String_base_types@DV?$allocator@D@std@@@std@@@std@@QEAAXAEAV?$allocator@D@2@@Z
	?_Move_thread@thread@std@@AEAAAEAV12@AEAV12@@Z
	?_Mtx_initX@std@@YAHPEAPEAU_Mtx_internal_imp_t@@H@Z
	?_Mtx_lockX@std@@YAHPEAU_Mtx_internal_imp_t@@@Z
	?_Mtx_unlockX@std@@YAHPEAU_Mtx_internal_imp_t@@@Z
	?_Myend@?$_Vector_alloc@U?$_Vec_base_types@HV?$allocator@H@std@@@std@@@std@@QEAAAEAPEAHXZ
	?_Myend@?$_Vector_alloc@U?$_Vec_base_types@HV?$allocator@H@std@@@std@@@std@@QEBAAEBQEAHXZ
	?_Myend@?$_Vector_alloc@U?$_Vec_base_types@IV?$allocator@I@std@@@std@@@std@@QEAAAEAPEAIXZ
	?_Myend@?$_Vector_alloc@U?$_Vec_base_types@IV?$allocator@I@std@@@std@@@std@@QEBAAEBQEAIXZ
	?_Myend@?$_Vector_alloc@U?$_Vec_base_types@NV?$allocator@N@std@@@std@@@std@@QEAAAEAPEANXZ
	?_Myend@?$_Vector_alloc@U?$_Vec_base_types@NV?$allocator@N@std@@@std@@@std@@QEBAAEBQEANXZ
	?_Myend@?$_Vector_alloc@U?$_Vec_base_types@Uvariable_description@cse@@V?$allocator@Uvariable_description@cse@@@std@@@std@@@std@@QEAAAEAPEAUvariable_description@cse@@XZ
	?_Myend@?$_Vector_alloc@U?$_Vec_base_types@Uvariable_description@cse@@V?$allocator@Uvariable_description@cse@@@std@@@std@@@std@@QEBAAEBQEAUvariable_description@cse@@XZ
	?_Myend@?$_Vector_alloc@U?$_Vec_base_types@V?$shared_ptr@Ucse_observer_s@@@std@@V?$allocator@V?$shared_ptr@Ucse_observer_s@@@std@@@2@@std@@@std@@QEAAAEAPEAV?$shared_ptr@Ucse_observer_s@@@2@XZ
	?_Myend@?$_Vector_alloc@U?$_Vec_base_types@V?$shared_ptr@Ucse_observer_s@@@std@@V?$allocator@V?$shared_ptr@Ucse_observer_s@@@std@@@2@@std@@@std@@QEBAAEBQEAV?$shared_ptr@Ucse_observer_s@@@2@XZ
	?_Myend@?$_Vector_alloc@U?$_Vec_base_types@V?$shared_ptr@Vsingle_slave_observer@cse@@@std@@V?$allocator@V?$shared_ptr@Vsingle_slave_observer@cse@@@std@@@2@@std@@@std@@QEAAAEAPEAV?$shared_ptr@Vsingle_slave_observer@cse@@@2@XZ
	?_Myend@?$_Vector_alloc@U?$_Vec_base_types@V?$shared_ptr@Vsingle_slave_observer@cse@@@std@@V?$allocator@V?$shared_ptr@Vsingle_slave_observer@cse@@@std@@@2@@std@@@std@@QEBAAEBQEAV?$shared_ptr@Vsingle_slave_observer@cse@@@2@XZ
	?_Myend@?$_Vector_alloc@U?$_Vec_base_types@V?$shared_ptr@Vslave@cse@@@std@@V?$allocator@V?$shared_ptr@Vslave@cse@@@std@@@2@@std@@@std@@QEAAAEAPEAV?$shared_ptr@Vslave@cse@@@2@XZ
	?_Myend@?$_Vector_alloc@U?$_Vec_base_types@V?$shared_ptr@Vslave@cse@@@std@@V?$allocator@V?$shared_ptr@Vslave@cse@@@std@@@2@@std@@@std@@QEBAAEBQEAV?$shared_ptr@Vslave@cse@@@2@XZ
	?_Myfirst@?$_Vector_alloc@U?$_Vec_base_types@HV?$allocator@H@std@@@std@@@std@@QEAAAEAPEAHXZ
	?_Myfirst@?$_Vector_alloc@U?$_Vec_base_types@HV?$allocator@H@std@@@std@@@std@@QEBAAEBQEAHXZ
	?_Myfirst@?$_Vector_alloc@U?$_Vec_base_types@IV?$allocator@I@std@@@std@@@std@@QEAAAEAPEAIXZ
	?_Myfirst@?$_Vector_alloc@U?$_Vec_base_types@IV?$allocator@I@std@@@std@@@std@@QEBAAEBQEAIXZ
	?_Myfirst@?$_Vector_alloc@U?$_Vec_base_types@NV?$allocator@N@std@@@std@@@std@@QEAAAEAPEANXZ
	?_Myfirst@?$_Vector_alloc@U?$_Vec_base_types@NV?$allocator@N@std@@@std@@@std@@QEBAAEBQEANXZ
	?_Myfirst@?$_Vector_alloc@U?$_Vec_base_types@Uvariable_description@cse@@V?$allocator@Uvariable_description@cse@@@std@@@std@@@std@@QEAAAEAPEAUvariable_description@cse@@XZ
	?_Myfirst@?$_Vector_alloc@U?$_Vec_base_types@Uvariable_description@cse@@V?$allocator@Uvariable_description@cse@@@std@@@std@@@std@@QEBAAEBQEAUvariable_description@cse@@XZ
	?_Myfirst@?$_Vector_alloc@U?$_Vec_base_types@V?$shared_ptr@Ucse_observer_s@@@std@@V?$allocator@V?$shared_ptr@Ucse_observer_s@@@std@@@2@@std@@@std@@QEAAAEAPEAV?$shared_ptr@Ucse_observer_s@@@2@XZ
	?_Myfirst@?$_Vector_alloc@U?$_Vec_base_types@V?$shared_ptr@Ucse_observer_s@@@std@@V?$allocator@V?$shared_ptr@Ucse_observer_s@@@std@@@2@@std@@@std@@QEBAAEBQEAV?$shared_ptr@Ucse_observer_s@@@2@XZ
	?_Myfirst@?$_Vector_alloc@U?$_Vec_base_types@V?$shared_ptr@Vsingle_slave_observer@cse@@@std@@V?$allocator@V?$shared_ptr@Vsingle_slave_observer@cse@@@std@@@2@@std@@@std@@QEAAAEAPEAV?$shared_ptr@Vsingle_slave_observer@cse@@@2@XZ
	?_Myfirst@?$_Vector_alloc@U?$_Vec_base_types@V?$shared_ptr@Vsingle_slave_observer@cse@@@std@@V?$allocator@V?$shared_ptr@Vsingle_slave_observer@cse@@@std@@@2@@std@@@std@@QEBAAEBQEAV?$shared_ptr@Vsingle_slave_observer@cse@@@2@XZ
	?_Myfirst@?$_Vector_alloc@U?$_Vec_base_types@V?$shared_ptr@Vslave@cse@@@std@@V?$allocator@V?$shared_ptr@Vslave@cse@@@std@@@2@@std@@@std@@QEAAAEAPEAV?$shared_ptr@Vslave@cse@@@2@XZ
	?_Myfirst@?$_Vector_alloc@U?$_Vec_base_types@V?$shared_ptr@Vslave@cse@@@std@@V?$allocator@V?$shared_ptr@Vslave@cse@@@std@@@2@@std@@@std@@QEBAAEBQEAV?$shared_ptr@Vslave@cse@@@2@XZ
	?_Mylast@?$_Vector_alloc@U?$_Vec_base_types@HV?$allocator@H@std@@@std@@@std@@QEAAAEAPEAHXZ
	?_Mylast@?$_Vector_alloc@U?$_Vec_base_types@HV?$allocator@H@std@@@std@@@std@@QEBAAEBQEAHXZ
	?_Mylast@?$_Vector_alloc@U?$_Vec_base_types@IV?$allocator@I@std@@@std@@@std@@QEAAAEAPEAIXZ
	?_Mylast@?$_Vector_alloc@U?$_Vec_base_types@IV?$allocator@I@std@@@std@@@std@@QEBAAEBQEAIXZ
	?_Mylast@?$_Vector_alloc@U?$_Vec_base_types@NV?$allocator@N@std@@@std@@@std@@QEAAAEAPEANXZ
	?_Mylast@?$_Vector_alloc@U?$_Vec_base_types@NV?$allocator@N@std@@@std@@@std@@QEBAAEBQEANXZ
	?_Mylast@?$_Vector_alloc@U?$_Vec_base_types@Uvariable_description@cse@@V?$allocator@Uvariable_description@cse@@@std@@@std@@@std@@QEAAAEAPEAUvariable_description@cse@@XZ
	?_Mylast@?$_Vector_alloc@U?$_Vec_base_types@V?$shared_ptr@Ucse_observer_s@@@std@@V?$allocator@V?$shared_ptr@Ucse_observer_s@@@std@@@2@@std@@@std@@QEAAAEAPEAV?$shared_ptr@Ucse_observer_s@@@2@XZ
	?_Mylast@?$_Vector_alloc@U?$_Vec_base_types@V?$shared_ptr@Ucse_observer_s@@@std@@V?$allocator@V?$shared_ptr@Ucse_observer_s@@@std@@@2@@std@@@std@@QEBAAEBQEAV?$shared_ptr@Ucse_observer_s@@@2@XZ
	?_Mylast@?$_Vector_alloc@U?$_Vec_base_types@V?$shared_ptr@Vsingle_slave_observer@cse@@@std@@V?$allocator@V?$shared_ptr@Vsingle_slave_observer@cse@@@std@@@2@@std@@@std@@QEAAAEAPEAV?$shared_ptr@Vsingle_slave_observer@cse@@@2@XZ
	?_Mylast@?$_Vector_alloc@U?$_Vec_base_types@V?$shared_ptr@Vsingle_slave_observer@cse@@@std@@V?$allocator@V?$shared_ptr@Vsingle_slave_observer@cse@@@std@@@2@@std@@@std@@QEBAAEBQEAV?$shared_ptr@Vsingle_slave_observer@cse@@@2@XZ
	?_Mylast@?$_Vector_alloc@U?$_Vec_base_types@V?$shared_ptr@Vslave@cse@@@std@@V?$allocator@V?$shared_ptr@Vslave@cse@@@std@@@2@@std@@@std@@QEAAAEAPEAV?$shared_ptr@Vslave@cse@@@2@XZ
	?_Mylast@?$_Vector_alloc@U?$_Vec_base_types@V?$shared_ptr@Vslave@cse@@@std@@V?$allocator@V?$shared_ptr@Vslave@cse@@@std@@@2@@std@@@std@@QEBAAEBQEAV?$shared_ptr@Vslave@cse@@@2@XZ
	?_Mymtx@_Mutex_base@std@@AEAAPEAU_Mtx_internal_imp_t@@XZ
	?_Myproxy@?$_String_alloc@U?$_String_base_types@DV?$allocator@D@std@@@std@@@std@@QEAAAEAPEAU_Container_proxy@2@XZ
	?_Myproxy@?$_String_alloc@U?$_String_base_types@_WV?$allocator@_W@std@@@std@@@std@@QEAAAEAPEAU_Container_proxy@2@XZ
	?_Myproxy@?$_Tree_comp_alloc@V?$_Tmap_traits@JV?$vector@HV?$allocator@H@std@@@std@@U?$less@J@2@V?$allocator@U?$pair@$$CBJV?$vector@HV?$allocator@H@std@@@std@@@std@@@2@$0A@@std@@@std@@QEAAAEAPEAU_Container_proxy@2@XZ
	?_Myproxy@?$_Tree_comp_alloc@V?$_Tmap_traits@JV?$vector@NV?$allocator@N@std@@@std@@U?$less@J@2@V?$allocator@U?$pair@$$CBJV?$vector@NV?$allocator@N@std@@@std@@@std@@@2@$0A@@std@@@std@@QEAAAEAPEAU_Container_proxy@2@XZ
	?_Myproxy@?$_Vector_alloc@U?$_Vec_base_types@HV?$allocator@H@std@@@std@@@std@@QEAAAEAPEAU_Container_proxy@2@XZ
	?_Myproxy@?$_Vector_alloc@U?$_Vec_base_types@IV?$allocator@I@std@@@std@@@std@@QEAAAEAPEAU_Container_proxy@2@XZ
	?_Myproxy@?$_Vector_alloc@U?$_Vec_base_types@NV?$allocator@N@std@@@std@@@std@@QEAAAEAPEAU_Container_proxy@2@XZ
	?_Myproxy@?$_Vector_alloc@U?$_Vec_base_types@Uvariable_description@cse@@V?$allocator@Uvariable_description@cse@@@std@@@std@@@std@@QEAAAEAPEAU_Container_proxy@2@XZ
	?_Myproxy@?$_Vector_alloc@U?$_Vec_base_types@V?$shared_ptr@Ucse_observer_s@@@std@@V?$allocator@V?$shared_ptr@Ucse_observer_s@@@std@@@2@@std@@@std@@QEAAAEAPEAU_Container_proxy@2@XZ
	?_Myproxy@?$_Vector_alloc@U?$_Vec_base_types@V?$shared_ptr@Vsingle_slave_observer@cse@@@std@@V?$allocator@V?$shared_ptr@Vsingle_slave_observer@cse@@@std@@@2@@std@@@std@@QEAAAEAPEAU_Container_proxy@2@XZ
	?_Myproxy@?$_Vector_alloc@U?$_Vec_base_types@V?$shared_ptr@Vslave@cse@@@std@@V?$allocator@V?$shared_ptr@Vslave@cse@@@std@@@2@@std@@@std@@QEAAAEAPEAU_Container_proxy@2@XZ
	?_Myptr@?$_String_val@U?$_Simple_types@D@std@@@std@@QEAAPEADXZ
	?_Myptr@?$_String_val@U?$_Simple_types@D@std@@@std@@QEBAPEBDXZ
	?_Myptr@?$_String_val@U?$_Simple_types@_W@std@@@std@@QEAAPEA_WXZ
	?_Myptr@?$_Unique_ptr_base@Ucse_execution_s@@U?$default_delete@Ucse_execution_s@@@std@@@std@@QEAAAEAPEAUcse_execution_s@@XZ
	?_Myptr@?$_Unique_ptr_base@Ucse_execution_s@@U?$default_delete@Ucse_execution_s@@@std@@@std@@QEBAAEBQEAUcse_execution_s@@XZ
	?_Myptr@?$_Unique_ptr_base@Ucse_observer_s@@U?$default_delete@Ucse_observer_s@@@std@@@std@@QEAAAEAPEAUcse_observer_s@@XZ
	?_Myptr@?$_Unique_ptr_base@Ucse_observer_s@@U?$default_delete@Ucse_observer_s@@@std@@@std@@QEBAAEBQEAUcse_observer_s@@XZ
	?_Myptr@?$_Unique_ptr_base@Ucse_slave_s@@U?$default_delete@Ucse_slave_s@@@std@@@std@@QEAAAEAPEAUcse_slave_s@@XZ
	?_Myptr@?$_Unique_ptr_base@Ucse_slave_s@@U?$default_delete@Ucse_slave_s@@@std@@@std@@QEBAAEBQEAUcse_slave_s@@XZ
	?_Myptr@?$_Unique_ptr_base@V_Facet_base@std@@U?$default_delete@V_Facet_base@std@@@2@@std@@QEAAAEAPEAV_Facet_base@2@XZ
	?_Myptr@?$_Unique_ptr_base@V_Facet_base@std@@U?$default_delete@V_Facet_base@std@@@2@@std@@QEBAAEBQEAV_Facet_base@2@XZ
	?_Orphan_all@?$_String_alloc@U?$_String_base_types@DV?$allocator@D@std@@@std@@@std@@QEAAXXZ
	?_Orphan_all@?$_String_alloc@U?$_String_base_types@_WV?$allocator@_W@std@@@std@@@std@@QEAAXXZ
	?_Orphan_all@?$_Tree_comp_alloc@V?$_Tmap_traits@JV?$vector@HV?$allocator@H@std@@@std@@U?$less@J@2@V?$allocator@U?$pair@$$CBJV?$vector@HV?$allocator@H@std@@@std@@@std@@@2@$0A@@std@@@std@@QEAAXXZ
	?_Orphan_all@?$_Tree_comp_alloc@V?$_Tmap_traits@JV?$vector@NV?$allocator@N@std@@@std@@U?$less@J@2@V?$allocator@U?$pair@$$CBJV?$vector@NV?$allocator@N@std@@@std@@@std@@@2@$0A@@std@@@std@@QEAAXXZ
	?_Orphan_all@?$_Vector_alloc@U?$_Vec_base_types@HV?$allocator@H@std@@@std@@@std@@QEAAXXZ
	?_Orphan_all@?$_Vector_alloc@U?$_Vec_base_types@IV?$allocator@I@std@@@std@@@std@@QEAAXXZ
	?_Orphan_all@?$_Vector_alloc@U?$_Vec_base_types@NV?$allocator@N@std@@@std@@@std@@QEAAXXZ
	?_Orphan_all@?$_Vector_alloc@U?$_Vec_base_types@Uvariable_description@cse@@V?$allocator@Uvariable_description@cse@@@std@@@std@@@std@@QEAAXXZ
	?_Orphan_all@?$_Vector_alloc@U?$_Vec_base_types@V?$shared_ptr@Ucse_observer_s@@@std@@V?$allocator@V?$shared_ptr@Ucse_observer_s@@@std@@@2@@std@@@std@@QEAAXXZ
	?_Orphan_all@?$_Vector_alloc@U?$_Vec_base_types@V?$shared_ptr@Vsingle_slave_observer@cse@@@std@@V?$allocator@V?$shared_ptr@Vsingle_slave_observer@cse@@@std@@@2@@std@@@std@@QEAAXXZ
	?_Orphan_all@?$_Vector_alloc@U?$_Vec_base_types@V?$shared_ptr@Vslave@cse@@@std@@V?$allocator@V?$shared_ptr@Vslave@cse@@@std@@@2@@std@@@std@@QEAAXXZ
	?_Orphan_all@_Container_base12@std@@QEAAXXZ
	?_Orphan_me@_Iterator_base12@std@@QEAAXXZ
	?_Orphan_ptr@?$_Tree@V?$_Tmap_traits@JV?$vector@HV?$allocator@H@std@@@std@@U?$less@J@2@V?$allocator@U?$pair@$$CBJV?$vector@HV?$allocator@H@std@@@std@@@std@@@2@$0A@@std@@@std@@IEAAXPEAU?$_Tree_node@U?$pair@$$CBJV?$vector@HV?$allocator@H@std@@@std@@@std@@PEAX@2@@Z
	?_Orphan_ptr@?$_Tree@V?$_Tmap_traits@JV?$vector@NV?$allocator@N@std@@@std@@U?$less@J@2@V?$allocator@U?$pair@$$CBJV?$vector@NV?$allocator@N@std@@@std@@@std@@@2@$0A@@std@@@std@@IEAAXPEAU?$_Tree_node@U?$pair@$$CBJV?$vector@NV?$allocator@N@std@@@std@@@std@@PEAX@2@@Z
	?_Orphan_range@?$vector@HV?$allocator@H@std@@@std@@AEBAXPEAH0@Z
	?_Orphan_range@?$vector@IV?$allocator@I@std@@@std@@AEBAXPEAI0@Z
	?_Orphan_range@?$vector@NV?$allocator@N@std@@@std@@AEBAXPEAN0@Z
	?_Orphan_range@?$vector@V?$shared_ptr@Ucse_observer_s@@@std@@V?$allocator@V?$shared_ptr@Ucse_observer_s@@@std@@@2@@std@@AEBAXPEAV?$shared_ptr@Ucse_observer_s@@@2@0@Z
	?_Orphan_range@?$vector@V?$shared_ptr@Vsingle_slave_observer@cse@@@std@@V?$allocator@V?$shared_ptr@Vsingle_slave_observer@cse@@@std@@@2@@std@@AEBAXPEAV?$shared_ptr@Vsingle_slave_observer@cse@@@2@0@Z
	?_Orphan_range@?$vector@V?$shared_ptr@Vslave@cse@@@std@@V?$allocator@V?$shared_ptr@Vslave@cse@@@std@@@2@@std@@AEBAXPEAV?$shared_ptr@Vslave@cse@@@2@0@Z
	?_Release@?$_Uninitialized_backout_al@PEAV?$shared_ptr@Ucse_observer_s@@@std@@V?$allocator@V?$shared_ptr@Ucse_observer_s@@@std@@@2@@std@@QEAAPEAV?$shared_ptr@Ucse_observer_s@@@2@XZ
	?_Release@?$_Uninitialized_backout_al@PEAV?$shared_ptr@Vsingle_slave_observer@cse@@@std@@V?$allocator@V?$shared_ptr@Vsingle_slave_observer@cse@@@std@@@2@@std@@QEAAPEAV?$shared_ptr@Vsingle_slave_observer@cse@@@2@XZ
	?_Release@?$_Uninitialized_backout_al@PEAV?$shared_ptr@Vslave@cse@@@std@@V?$allocator@V?$shared_ptr@Vslave@cse@@@std@@@2@@std@@QEAAPEAV?$shared_ptr@Vslave@cse@@@2@XZ
	?_Release@_Auto_cnd@std@@QEAAXXZ
	?_Release@_Auto_mtx@std@@QEAAXXZ
	?_Release@_Pad@std@@QEAAXXZ
	?_Reset_back@?$basic_filebuf@DU?$char_traits@D@std@@@std@@AEAAXXZ
	?_Rmost@?$_Tree_val@U?$_Tree_simple_types@U?$pair@$$CBJV?$vector@HV?$allocator@H@std@@@std@@@std@@@std@@@std@@QEBAAEAPEAU?$_Tree_node@U?$pair@$$CBJV?$vector@HV?$allocator@H@std@@@std@@@std@@PEAX@2@XZ
	?_Rmost@?$_Tree_val@U?$_Tree_simple_types@U?$pair@$$CBJV?$vector@NV?$allocator@N@std@@@std@@@std@@@std@@@std@@QEBAAEAPEAU?$_Tree_node@U?$pair@$$CBJV?$vector@NV?$allocator@N@std@@@std@@@std@@PEAX@2@XZ
	?_Root@?$_Tree_val@U?$_Tree_simple_types@U?$pair@$$CBJV?$vector@HV?$allocator@H@std@@@std@@@std@@@std@@@std@@QEBAAEAPEAU?$_Tree_node@U?$pair@$$CBJV?$vector@HV?$allocator@H@std@@@std@@@std@@PEAX@2@XZ
	?_Root@?$_Tree_val@U?$_Tree_simple_types@U?$pair@$$CBJV?$vector@NV?$allocator@N@std@@@std@@@std@@@std@@@std@@QEBAAEAPEAU?$_Tree_node@U?$pair@$$CBJV?$vector@NV?$allocator@N@std@@@std@@@std@@PEAX@2@XZ
	?_Rrotate@?$_Tree_val@U?$_Tree_simple_types@U?$pair@$$CBJV?$vector@HV?$allocator@H@std@@@std@@@std@@@std@@@std@@QEAAXPEAU?$_Tree_node@U?$pair@$$CBJV?$vector@HV?$allocator@H@std@@@std@@@std@@PEAX@2@@Z
	?_Rrotate@?$_Tree_val@U?$_Tree_simple_types@U?$pair@$$CBJV?$vector@NV?$allocator@N@std@@@std@@@std@@@std@@@std@@QEAAXPEAU?$_Tree_node@U?$pair@$$CBJV?$vector@NV?$allocator@N@std@@@std@@@std@@PEAX@2@@Z
	?_Seek_to@?$_Vector_const_iterator@V?$_Vector_val@U?$_Simple_types@I@std@@@std@@@std@@QEAAXPEBI@Z
	?_Set_back@?$basic_filebuf@DU?$char_traits@D@std@@@std@@AEAAXXZ
	?_Set_ptr_rep@?$_Ptr_base@Ucse_observer_s@@@std@@IEAAXPEAUcse_observer_s@@PEAV_Ref_count_base@2@@Z
	?_Set_ptr_rep@?$_Ptr_base@Vsingle_slave_observer@cse@@@std@@IEAAXPEAVsingle_slave_observer@cse@@PEAV_Ref_count_base@2@@Z
	?_Store@?$_Atomic_impl@$03@std@@QECAXPEAXPEBXW4memory_order@2@@Z
	?_Store@?$_Atomic_impl@$07@std@@QECAXPEAXPEBXW4memory_order@2@@Z
	?_Store_relaxed_1@std@@YAXPECEE@Z
	?_Store_relaxed_4@std@@YAXPECKK@Z
	?_Store_relaxed_8@std@@YAXPEC_K_K@Z
	?_Store_release_1@std@@YAXPECEE@Z
	?_Store_release_4@std@@YAXPECKK@Z
	?_Store_release_8@std@@YAXPEC_K_K@Z
	?_Store_seq_cst_1@std@@YAXPECEE@Z
	?_Store_seq_cst_4@std@@YAXPECKK@Z
	?_Store_seq_cst_8@std@@YAXPEC_K_K@Z
	?_Swap@?$_Ptr_base@Vslave@cse@@@std@@IEAAXAEAV12@@Z
	?_Swap_all@?$_String_alloc@U?$_String_base_types@DV?$allocator@D@std@@@std@@@std@@QEAAXAEAV12@@Z
	?_Swap_all@?$_String_alloc@U?$_String_base_types@_WV?$allocator@_W@std@@@std@@@std@@QEAAXAEAV12@@Z
	?_Swap_all@_Container_base12@std@@QEAAXAEAU12@@Z
	?_Thrd_startX@std@@YAHPEAU_Thrd_imp_t@@P6AIPEAX@Z1@Z
	?_Tidy@?$_Tree@V?$_Tmap_traits@JV?$vector@HV?$allocator@H@std@@@std@@U?$less@J@2@V?$allocator@U?$pair@$$CBJV?$vector@HV?$allocator@H@std@@@std@@@std@@@2@$0A@@std@@@std@@IEAAXXZ
	?_Tidy@?$_Tree@V?$_Tmap_traits@JV?$vector@NV?$allocator@N@std@@@std@@U?$less@J@2@V?$allocator@U?$pair@$$CBJV?$vector@NV?$allocator@N@std@@@std@@@std@@@2@$0A@@std@@@std@@IEAAXXZ
	?_Tidy@?$vector@HV?$allocator@H@std@@@std@@AEAAXXZ
	?_Tidy@?$vector@IV?$allocator@I@std@@@std@@AEAAXXZ
	?_Tidy@?$vector@NV?$allocator@N@std@@@std@@AEAAXXZ
	?_Tidy@?$vector@Uvariable_description@cse@@V?$allocator@Uvariable_description@cse@@@std@@@std@@AEAAXXZ
	?_Tidy@?$vector@V?$shared_ptr@Ucse_observer_s@@@std@@V?$allocator@V?$shared_ptr@Ucse_observer_s@@@std@@@2@@std@@AEAAXXZ
	?_Tidy@?$vector@V?$shared_ptr@Vsingle_slave_observer@cse@@@std@@V?$allocator@V?$shared_ptr@Vsingle_slave_observer@cse@@@std@@@2@@std@@AEAAXXZ
	?_Tidy@?$vector@V?$shared_ptr@Vslave@cse@@@std@@V?$allocator@V?$shared_ptr@Vslave@cse@@@std@@@2@@std@@AEAAXXZ
	?_Tidy_deallocate@?$basic_string@DU?$char_traits@D@std@@V?$allocator@D@2@@std@@QEAAXXZ
	?_Tidy_deallocate@?$basic_string@_WU?$char_traits@_W@std@@V?$allocator@_W@2@@std@@QEAAXXZ
	?_Tidy_init@?$basic_string@DU?$char_traits@D@std@@V?$allocator@D@2@@std@@QEAAXXZ
	?_Tidy_init@?$basic_string@_WU?$char_traits@_W@std@@V?$allocator@_W@2@@std@@QEAAXXZ
	?_Udefault@?$vector@HV?$allocator@H@std@@@std@@AEAAPEAHPEAH_K@Z
	?_Udefault@?$vector@NV?$allocator@N@std@@@std@@AEAAPEANPEAN_K@Z
	?_Umove@?$vector@IV?$allocator@I@std@@@std@@AEAAPEAIPEAI00@Z
	?_Umove@?$vector@V?$shared_ptr@Ucse_observer_s@@@std@@V?$allocator@V?$shared_ptr@Ucse_observer_s@@@std@@@2@@std@@AEAAPEAV?$shared_ptr@Ucse_observer_s@@@2@PEAV32@00@Z
	?_Umove@?$vector@V?$shared_ptr@Vsingle_slave_observer@cse@@@std@@V?$allocator@V?$shared_ptr@Vsingle_slave_observer@cse@@@std@@@2@@std@@AEAAPEAV?$shared_ptr@Vsingle_slave_observer@cse@@@2@PEAV32@00@Z
	?_Umove@?$vector@V?$shared_ptr@Vslave@cse@@@std@@V?$allocator@V?$shared_ptr@Vslave@cse@@@std@@@2@@std@@AEAAPEAV?$shared_ptr@Vslave@cse@@@2@PEAV32@00@Z
	?_Umove_if_noexcept1@?$vector@HV?$allocator@H@std@@@std@@AEAAXPEAH00U?$integral_constant@_N$00@2@@Z
	?_Umove_if_noexcept1@?$vector@IV?$allocator@I@std@@@std@@AEAAXPEAI00U?$integral_constant@_N$00@2@@Z
	?_Umove_if_noexcept1@?$vector@NV?$allocator@N@std@@@std@@AEAAXPEAN00U?$integral_constant@_N$00@2@@Z
	?_Umove_if_noexcept1@?$vector@V?$shared_ptr@Ucse_observer_s@@@std@@V?$allocator@V?$shared_ptr@Ucse_observer_s@@@std@@@2@@std@@AEAAXPEAV?$shared_ptr@Ucse_observer_s@@@2@00U?$integral_constant@_N$00@2@@Z
	?_Umove_if_noexcept1@?$vector@V?$shared_ptr@Vsingle_slave_observer@cse@@@std@@V?$allocator@V?$shared_ptr@Vsingle_slave_observer@cse@@@std@@@2@@std@@AEAAXPEAV?$shared_ptr@Vsingle_slave_observer@cse@@@2@00U?$integral_constant@_N$00@2@@Z
	?_Umove_if_noexcept1@?$vector@V?$shared_ptr@Vslave@cse@@@std@@V?$allocator@V?$shared_ptr@Vslave@cse@@@std@@@2@@std@@AEAAXPEAV?$shared_ptr@Vslave@cse@@@2@00U?$integral_constant@_N$00@2@@Z
	?_Umove_if_noexcept@?$vector@HV?$allocator@H@std@@@std@@AEAAXPEAH00@Z
	?_Umove_if_noexcept@?$vector@IV?$allocator@I@std@@@std@@AEAAXPEAI00@Z
	?_Umove_if_noexcept@?$vector@NV?$allocator@N@std@@@std@@AEAAXPEAN00@Z
	?_Umove_if_noexcept@?$vector@V?$shared_ptr@Ucse_observer_s@@@std@@V?$allocator@V?$shared_ptr@Ucse_observer_s@@@std@@@2@@std@@AEAAXPEAV?$shared_ptr@Ucse_observer_s@@@2@00@Z
	?_Umove_if_noexcept@?$vector@V?$shared_ptr@Vsingle_slave_observer@cse@@@std@@V?$allocator@V?$shared_ptr@Vsingle_slave_observer@cse@@@std@@@2@@std@@AEAAXPEAV?$shared_ptr@Vsingle_slave_observer@cse@@@2@00@Z
	?_Umove_if_noexcept@?$vector@V?$shared_ptr@Vslave@cse@@@std@@V?$allocator@V?$shared_ptr@Vslave@cse@@@std@@@2@@std@@AEAAXPEAV?$shared_ptr@Vslave@cse@@@2@00@Z
	?_Unchecked_begin@?$vector@Uvariable_description@cse@@V?$allocator@Uvariable_description@cse@@@std@@@std@@QEAAPEAUvariable_description@cse@@XZ
	?_Unchecked_begin@?$vector@V?$shared_ptr@Ucse_observer_s@@@std@@V?$allocator@V?$shared_ptr@Ucse_observer_s@@@std@@@2@@std@@QEAAPEAV?$shared_ptr@Ucse_observer_s@@@2@XZ
	?_Unchecked_begin@?$vector@V?$shared_ptr@Vsingle_slave_observer@cse@@@std@@V?$allocator@V?$shared_ptr@Vsingle_slave_observer@cse@@@std@@@2@@std@@QEAAPEAV?$shared_ptr@Vsingle_slave_observer@cse@@@2@XZ
	?_Unchecked_begin@?$vector@V?$shared_ptr@Vslave@cse@@@std@@V?$allocator@V?$shared_ptr@Vslave@cse@@@std@@@2@@std@@QEAAPEAV?$shared_ptr@Vslave@cse@@@2@XZ
	?_Unchecked_end@?$vector@Uvariable_description@cse@@V?$allocator@Uvariable_description@cse@@@std@@@std@@QEAAPEAUvariable_description@cse@@XZ
	?_Unchecked_end@?$vector@V?$shared_ptr@Ucse_observer_s@@@std@@V?$allocator@V?$shared_ptr@Ucse_observer_s@@@std@@@2@@std@@QEAAPEAV?$shared_ptr@Ucse_observer_s@@@2@XZ
	?_Unchecked_end@?$vector@V?$shared_ptr@Vsingle_slave_observer@cse@@@std@@V?$allocator@V?$shared_ptr@Vsingle_slave_observer@cse@@@std@@@2@@std@@QEAAPEAV?$shared_ptr@Vsingle_slave_observer@cse@@@2@XZ
	?_Unchecked_end@?$vector@V?$shared_ptr@Vslave@cse@@@std@@V?$allocator@V?$shared_ptr@Vslave@cse@@@std@@@2@@std@@QEAAPEAV?$shared_ptr@Vslave@cse@@@2@XZ
	?_Unlock@?$basic_filebuf@DU?$char_traits@D@std@@@std@@UEAAXXZ
	?_Unwrapped@?$_Vector_const_iterator@V?$_Vector_val@U?$_Simple_types@I@std@@@std@@@std@@QEBAPEBIXZ
	?_Verify_range@std@@YAXAEBV?$_Vector_const_iterator@V?$_Vector_val@U?$_Simple_types@I@std@@@std@@@1@0@Z
	?_Xlen@?$basic_string@DU?$char_traits@D@std@@V?$allocator@D@2@@std@@SAXXZ
	?_Xlen@?$basic_string@_WU?$char_traits@_W@std@@V?$allocator@_W@2@@std@@SAXXZ
	?_Xlength@?$vector@HV?$allocator@H@std@@@std@@CAXXZ
	?_Xlength@?$vector@IV?$allocator@I@std@@@std@@CAXXZ
	?_Xlength@?$vector@NV?$allocator@N@std@@@std@@CAXXZ
	?_Xlength@?$vector@V?$shared_ptr@Ucse_observer_s@@@std@@V?$allocator@V?$shared_ptr@Ucse_observer_s@@@std@@@2@@std@@CAXXZ
	?_Xlength@?$vector@V?$shared_ptr@Vsingle_slave_observer@cse@@@std@@V?$allocator@V?$shared_ptr@Vsingle_slave_observer@cse@@@std@@@2@@std@@CAXXZ
	?_Xlength@?$vector@V?$shared_ptr@Vslave@cse@@@std@@V?$allocator@V?$shared_ptr@Vslave@cse@@@std@@@2@@std@@CAXXZ
	?_Xran@?$_String_val@U?$_Simple_types@D@std@@@std@@SAXXZ
	?_Xrange@?$vector@V?$shared_ptr@Vsingle_slave_observer@cse@@@std@@V?$allocator@V?$shared_ptr@Vsingle_slave_observer@cse@@@std@@@2@@std@@CAXXZ
	?_Xrange@?$vector@V?$shared_ptr@Vslave@cse@@@std@@V?$allocator@V?$shared_ptr@Vslave@cse@@@std@@@2@@std@@CAXXZ
	?_Xsystem_error_invalid_argument@filesystem@std@@YAXXZ
	?__empty_global_delete@@YAXPEAX@Z
	?__empty_global_delete@@YAXPEAXW4align_val_t@std@@@Z
	?__empty_global_delete@@YAXPEAX_K@Z
	?__empty_global_delete@@YAXPEAX_KW4align_val_t@std@@@Z
	?allocate@?$allocator@D@std@@QEAAPEAD_K@Z
	?allocate@?$allocator@H@std@@QEAAPEAH_K@Z
	?allocate@?$allocator@I@std@@QEAAPEAI_K@Z
	?allocate@?$allocator@N@std@@QEAAPEAN_K@Z
	?allocate@?$allocator@U?$_Tree_node@U?$pair@$$CBJV?$vector@HV?$allocator@H@std@@@std@@@std@@PEAX@std@@@std@@QEAAPEAU?$_Tree_node@U?$pair@$$CBJV?$vector@HV?$allocator@H@std@@@std@@@std@@PEAX@2@_K@Z
	?allocate@?$allocator@U?$_Tree_node@U?$pair@$$CBJV?$vector@NV?$allocator@N@std@@@std@@@std@@PEAX@std@@@std@@QEAAPEAU?$_Tree_node@U?$pair@$$CBJV?$vector@NV?$allocator@N@std@@@std@@@std@@PEAX@2@_K@Z
	?allocate@?$allocator@U_Container_proxy@std@@@std@@QEAAPEAU_Container_proxy@2@_K@Z
	?allocate@?$allocator@V?$shared_ptr@Ucse_observer_s@@@std@@@std@@QEAAPEAV?$shared_ptr@Ucse_observer_s@@@2@_K@Z
	?allocate@?$allocator@V?$shared_ptr@Vsingle_slave_observer@cse@@@std@@@std@@QEAAPEAV?$shared_ptr@Vsingle_slave_observer@cse@@@2@_K@Z
	?allocate@?$allocator@V?$shared_ptr@Vslave@cse@@@std@@@std@@QEAAPEAV?$shared_ptr@Vslave@cse@@@2@_K@Z
	?allocate@?$allocator@_W@std@@QEAAPEA_W_K@Z
	?append@?$basic_string@DU?$char_traits@D@std@@V?$allocator@D@2@@std@@QEAAAEAV12@AEBV12@@Z
	?append@?$basic_string@DU?$char_traits@D@std@@V?$allocator@D@2@@std@@QEAAAEAV12@QEBD@Z
	?append@?$basic_string@DU?$char_traits@D@std@@V?$allocator@D@2@@std@@QEAAAEAV12@QEBD_K@Z
	?append@?$basic_string@DU?$char_traits@D@std@@V?$allocator@D@2@@std@@QEAAAEAV12@_KD@Z
	?append@?$basic_string@_WU?$char_traits@_W@std@@V?$allocator@_W@2@@std@@QEAAAEAV12@_K_W@Z
	?assign@?$_WChar_traits@_W@std@@SAPEA_WQEA_W_K_W@Z
	?assign@?$_WChar_traits@_W@std@@SAXAEA_WAEB_W@Z
	?assign@?$basic_string@DU?$char_traits@D@std@@V?$allocator@D@2@@std@@QEAAAEAV12@QEBD@Z
	?assign@?$basic_string@DU?$char_traits@D@std@@V?$allocator@D@2@@std@@QEAAAEAV12@QEBD_K@Z
	?assign@?$basic_string@DU?$char_traits@D@std@@V?$allocator@D@2@@std@@QEAAAEAV12@_KD@Z
	?assign@?$char_traits@D@std@@SAPEADQEAD_KD@Z
	?assign@?$char_traits@D@std@@SAXAEADAEBD@Z
	?at@?$vector@V?$shared_ptr@Vsingle_slave_observer@cse@@@std@@V?$allocator@V?$shared_ptr@Vsingle_slave_observer@cse@@@std@@@2@@std@@QEAAAEAV?$shared_ptr@Vsingle_slave_observer@cse@@@2@_K@Z
	?at@?$vector@V?$shared_ptr@Vslave@cse@@@std@@V?$allocator@V?$shared_ptr@Vslave@cse@@@std@@@2@@std@@QEAAAEAV?$shared_ptr@Vslave@cse@@@2@_K@Z
	?atomic_fetch_add@std@@YAJPEAU_Atomic_long@1@J@Z
	?atomic_fetch_add_explicit@std@@YAJPEAU_Atomic_long@1@JW4memory_order@1@@Z
	?atomic_load@std@@YAJPEBU_Atomic_long@1@@Z
	?atomic_load@std@@YA_NPEBU_Atomic_bool@1@@Z
	?atomic_load_explicit@std@@YAJPEBU_Atomic_long@1@W4memory_order@1@@Z
	?atomic_load_explicit@std@@YA_NPEBU_Atomic_bool@1@W4memory_order@1@@Z
	?atomic_store@std@@YAXPEAU_Atomic_bool@1@_N@Z
	?atomic_store_explicit@std@@YAXPEAU_Atomic_bool@1@_NW4memory_order@1@@Z
	?begin@?$_Tree@V?$_Tmap_traits@JV?$vector@HV?$allocator@H@std@@@std@@U?$less@J@2@V?$allocator@U?$pair@$$CBJV?$vector@HV?$allocator@H@std@@@std@@@std@@@2@$0A@@std@@@std@@QEAA?AV?$_Tree_iterator@V?$_Tree_val@U?$_Tree_simple_types@U?$pair@$$CBJV?$vector@HV?$allocator@H@std@@@std@@@std@@@std@@@std@@@2@XZ
	?begin@?$_Tree@V?$_Tmap_traits@JV?$vector@NV?$allocator@N@std@@@std@@U?$less@J@2@V?$allocator@U?$pair@$$CBJV?$vector@NV?$allocator@N@std@@@std@@@std@@@2@$0A@@std@@@std@@QEAA?AV?$_Tree_iterator@V?$_Tree_val@U?$_Tree_simple_types@U?$pair@$$CBJV?$vector@NV?$allocator@N@std@@@std@@@std@@@std@@@std@@@2@XZ
	?begin@?$basic_string@DU?$char_traits@D@std@@V?$allocator@D@2@@std@@QEAA?AV?$_String_iterator@V?$_String_val@U?$_Simple_types@D@std@@@std@@@2@XZ
	?begin@?$vector@IV?$allocator@I@std@@@std@@QEBA?AV?$_Vector_const_iterator@V?$_Vector_val@U?$_Simple_types@I@std@@@std@@@2@XZ
	?c_str@?$basic_string@DU?$char_traits@D@std@@V?$allocator@D@2@@std@@QEBAPEBDXZ
	?calculate_current_time@@YANPEAUcse_execution_s@@@Z
	?capacity@?$vector@HV?$allocator@H@std@@@std@@QEBA_KXZ
	?capacity@?$vector@IV?$allocator@I@std@@@std@@QEBA_KXZ
	?capacity@?$vector@NV?$allocator@N@std@@@std@@QEBA_KXZ
	?capacity@?$vector@Uvariable_description@cse@@V?$allocator@Uvariable_description@cse@@@std@@@std@@QEBA_KXZ
	?capacity@?$vector@V?$shared_ptr@Ucse_observer_s@@@std@@V?$allocator@V?$shared_ptr@Ucse_observer_s@@@std@@@2@@std@@QEBA_KXZ
	?capacity@?$vector@V?$shared_ptr@Vsingle_slave_observer@cse@@@std@@V?$allocator@V?$shared_ptr@Vsingle_slave_observer@cse@@@std@@@2@@std@@QEBA_KXZ
	?capacity@?$vector@V?$shared_ptr@Vslave@cse@@@std@@V?$allocator@V?$shared_ptr@Vslave@cse@@@std@@@2@@std@@QEBA_KXZ
	?category@error_code@std@@QEBAAEBVerror_category@2@XZ
	?category@error_condition@std@@QEBAAEBVerror_category@2@XZ
	?clear@?$_Tree@V?$_Tmap_traits@JV?$vector@HV?$allocator@H@std@@@std@@U?$less@J@2@V?$allocator@U?$pair@$$CBJV?$vector@HV?$allocator@H@std@@@std@@@std@@@2@$0A@@std@@@std@@QEAAXXZ
	?clear@?$_Tree@V?$_Tmap_traits@JV?$vector@NV?$allocator@N@std@@@std@@U?$less@J@2@V?$allocator@U?$pair@$$CBJV?$vector@NV?$allocator@N@std@@@std@@@std@@@2@$0A@@std@@@std@@QEAAXXZ
	?close@?$basic_filebuf@DU?$char_traits@D@std@@@std@@QEAAPEAV12@XZ
	?close@?$basic_ofstream@DU?$char_traits@D@std@@@std@@QEAAXXZ
	?code@error@cse@@QEBAAEBVerror_code@std@@XZ
	?code@system_error@std@@QEBAAEBVerror_code@2@XZ
	?copy@?$_WChar_traits@_W@std@@SAPEA_WQEA_WQEB_W_K@Z
	?copy@?$char_traits@D@std@@SAPEADQEADQEBD_K@Z
	?count@?$duration@NU?$ratio@$00$00@std@@@chrono@std@@QEBANXZ
	?count@?$duration@_JU?$ratio@$00$00@std@@@chrono@std@@QEBA_JXZ
	?count@?$duration@_JU?$ratio@$00$0DLJKMKAA@@std@@@chrono@std@@QEBA_JXZ
	?count@?$duration@_JU?$ratio@$00$0JIJGIA@@std@@@chrono@std@@QEBA_JXZ
	?cse_execution_step@@YAHPEAUcse_execution_s@@@Z
	?cse_observer_observe@@YA_NPEAUcse_observer_s@@J@Z
	?data@?$basic_string@DU?$char_traits@D@std@@V?$allocator@D@2@@std@@QEAAPEADXZ
	?data@?$basic_string@_WU?$char_traits@_W@std@@V?$allocator@_W@2@@std@@QEAAPEA_WXZ
	?data@?$basic_string_view@DU?$char_traits@D@std@@@std@@QEBAPEBDXZ
	?data@?$span@I$0?0@gsl@@QEBAPEAIXZ
	?data@?$storage_type@V?$extent_type@$0?0@details@gsl@@@?$span@I$0?0@gsl@@QEBAPEAIXZ
	?data@?$vector@HV?$allocator@H@std@@@std@@QEAAPEAHXZ
	?data@?$vector@IV?$allocator@I@std@@@std@@QEAAPEAIXZ
	?data@?$vector@NV?$allocator@N@std@@@std@@QEAAPEANXZ
	?deallocate@?$_Default_allocator_traits@V?$allocator@U?$_Tree_node@U?$pair@$$CBJV?$vector@HV?$allocator@H@std@@@std@@@std@@PEAX@std@@@std@@@std@@SAXAEAV?$allocator@U?$_Tree_node@U?$pair@$$CBJV?$vector@HV?$allocator@H@std@@@std@@@std@@PEAX@std@@@2@QEAU?$_Tree_node@U?$pair@$$CBJV?$vector@HV?$allocator@H@std@@@std@@@std@@PEAX@2@_K@Z
	?deallocate@?$_Default_allocator_traits@V?$allocator@U?$_Tree_node@U?$pair@$$CBJV?$vector@NV?$allocator@N@std@@@std@@@std@@PEAX@std@@@std@@@std@@SAXAEAV?$allocator@U?$_Tree_node@U?$pair@$$CBJV?$vector@NV?$allocator@N@std@@@std@@@std@@PEAX@std@@@2@QEAU?$_Tree_node@U?$pair@$$CBJV?$vector@NV?$allocator@N@std@@@std@@@std@@PEAX@2@_K@Z
	?deallocate@?$_Default_allocator_traits@V?$allocator@U_Container_proxy@std@@@std@@@std@@SAXAEAV?$allocator@U_Container_proxy@std@@@2@QEAU_Container_proxy@2@_K@Z
	?deallocate@?$allocator@D@std@@QEAAXQEAD_K@Z
	?deallocate@?$allocator@H@std@@QEAAXQEAH_K@Z
	?deallocate@?$allocator@I@std@@QEAAXQEAI_K@Z
	?deallocate@?$allocator@N@std@@QEAAXQEAN_K@Z
	?deallocate@?$allocator@U?$_Tree_node@U?$pair@$$CBJV?$vector@HV?$allocator@H@std@@@std@@@std@@PEAX@std@@@std@@QEAAXQEAU?$_Tree_node@U?$pair@$$CBJV?$vector@HV?$allocator@H@std@@@std@@@std@@PEAX@2@_K@Z
	?deallocate@?$allocator@U?$_Tree_node@U?$pair@$$CBJV?$vector@NV?$allocator@N@std@@@std@@@std@@PEAX@std@@@std@@QEAAXQEAU?$_Tree_node@U?$pair@$$CBJV?$vector@NV?$allocator@N@std@@@std@@@std@@PEAX@2@_K@Z
	?deallocate@?$allocator@Uvariable_description@cse@@@std@@QEAAXQEAUvariable_description@cse@@_K@Z
	?deallocate@?$allocator@V?$shared_ptr@Ucse_observer_s@@@std@@@std@@QEAAXQEAV?$shared_ptr@Ucse_observer_s@@@2@_K@Z
	?deallocate@?$allocator@V?$shared_ptr@Vsingle_slave_observer@cse@@@std@@@std@@QEAAXQEAV?$shared_ptr@Vsingle_slave_observer@cse@@@2@_K@Z
	?deallocate@?$allocator@V?$shared_ptr@Vslave@cse@@@std@@@std@@QEAAXQEAV?$shared_ptr@Vslave@cse@@@2@_K@Z
	?deallocate@?$allocator@_W@std@@QEAAXQEA_W_K@Z
	?default_error_condition@_System_error_category@std@@UEBA?AVerror_condition@2@H@Z
	?default_error_condition@error_category@std@@UEBA?AVerror_condition@2@H@Z
	?empty@?$_Tree@V?$_Tmap_traits@JV?$vector@HV?$allocator@H@std@@@std@@U?$less@J@2@V?$allocator@U?$pair@$$CBJV?$vector@HV?$allocator@H@std@@@std@@@std@@@2@$0A@@std@@@std@@QEBA_NXZ
	?empty@?$_Tree@V?$_Tmap_traits@JV?$vector@NV?$allocator@N@std@@@std@@U?$less@J@2@V?$allocator@U?$pair@$$CBJV?$vector@NV?$allocator@N@std@@@std@@@std@@@2@$0A@@std@@@std@@QEBA_NXZ
	?empty@?$basic_string@DU?$char_traits@D@std@@V?$allocator@D@2@@std@@QEBA_NXZ
	?empty@?$basic_string_view@DU?$char_traits@D@std@@@std@@QEBA_NXZ
	?end@?$_Tree@V?$_Tmap_traits@JV?$vector@HV?$allocator@H@std@@@std@@U?$less@J@2@V?$allocator@U?$pair@$$CBJV?$vector@HV?$allocator@H@std@@@std@@@std@@@2@$0A@@std@@@std@@QEAA?AV?$_Tree_iterator@V?$_Tree_val@U?$_Tree_simple_types@U?$pair@$$CBJV?$vector@HV?$allocator@H@std@@@std@@@std@@@std@@@std@@@2@XZ
	?end@?$_Tree@V?$_Tmap_traits@JV?$vector@HV?$allocator@H@std@@@std@@U?$less@J@2@V?$allocator@U?$pair@$$CBJV?$vector@HV?$allocator@H@std@@@std@@@std@@@2@$0A@@std@@@std@@QEBA?AV?$_Tree_const_iterator@V?$_Tree_val@U?$_Tree_simple_types@U?$pair@$$CBJV?$vector@HV?$allocator@H@std@@@std@@@std@@@std@@@std@@@2@XZ
	?end@?$_Tree@V?$_Tmap_traits@JV?$vector@NV?$allocator@N@std@@@std@@U?$less@J@2@V?$allocator@U?$pair@$$CBJV?$vector@NV?$allocator@N@std@@@std@@@std@@@2@$0A@@std@@@std@@QEAA?AV?$_Tree_iterator@V?$_Tree_val@U?$_Tree_simple_types@U?$pair@$$CBJV?$vector@NV?$allocator@N@std@@@std@@@std@@@std@@@std@@@2@XZ
	?end@?$_Tree@V?$_Tmap_traits@JV?$vector@NV?$allocator@N@std@@@std@@U?$less@J@2@V?$allocator@U?$pair@$$CBJV?$vector@NV?$allocator@N@std@@@std@@@std@@@2@$0A@@std@@@std@@QEBA?AV?$_Tree_const_iterator@V?$_Tree_val@U?$_Tree_simple_types@U?$pair@$$CBJV?$vector@NV?$allocator@N@std@@@std@@@std@@@std@@@std@@@2@XZ
	?end@?$vector@IV?$allocator@I@std@@@std@@QEBA?AV?$_Vector_const_iterator@V?$_Vector_val@U?$_Simple_types@I@std@@@std@@@2@XZ
	?eof@?$char_traits@D@std@@SAHXZ
	?eq_int_type@?$char_traits@D@std@@SA_NAEBH0@Z
	?equivalent@error_category@std@@UEBA_NAEBVerror_code@2@H@Z
	?equivalent@error_category@std@@UEBA_NHAEBVerror_condition@2@@Z
	?erase@?$_Tree@V?$_Tmap_traits@JV?$vector@HV?$allocator@H@std@@@std@@U?$less@J@2@V?$allocator@U?$pair@$$CBJV?$vector@HV?$allocator@H@std@@@std@@@std@@@2@$0A@@std@@@std@@QEAA?AV?$_Tree_iterator@V?$_Tree_val@U?$_Tree_simple_types@U?$pair@$$CBJV?$vector@HV?$allocator@H@std@@@std@@@std@@@std@@@std@@@2@V?$_Tree_const_iterator@V?$_Tree_val@U?$_Tree_simple_types@U?$pair@$$CBJV?$vector@HV?$allocator@H@std@@@std@@@std@@@std@@@std@@@2@0@Z
	?erase@?$_Tree@V?$_Tmap_traits@JV?$vector@HV?$allocator@H@std@@@std@@U?$less@J@2@V?$allocator@U?$pair@$$CBJV?$vector@HV?$allocator@H@std@@@std@@@std@@@2@$0A@@std@@@std@@QEAA?AV?$_Tree_iterator@V?$_Tree_val@U?$_Tree_simple_types@U?$pair@$$CBJV?$vector@HV?$allocator@H@std@@@std@@@std@@@std@@@std@@@2@V?$_Tree_const_iterator@V?$_Tree_val@U?$_Tree_simple_types@U?$pair@$$CBJV?$vector@HV?$allocator@H@std@@@std@@@std@@@std@@@std@@@2@@Z
	?erase@?$_Tree@V?$_Tmap_traits@JV?$vector@NV?$allocator@N@std@@@std@@U?$less@J@2@V?$allocator@U?$pair@$$CBJV?$vector@NV?$allocator@N@std@@@std@@@std@@@2@$0A@@std@@@std@@QEAA?AV?$_Tree_iterator@V?$_Tree_val@U?$_Tree_simple_types@U?$pair@$$CBJV?$vector@NV?$allocator@N@std@@@std@@@std@@@std@@@std@@@2@V?$_Tree_const_iterator@V?$_Tree_val@U?$_Tree_simple_types@U?$pair@$$CBJV?$vector@NV?$allocator@N@std@@@std@@@std@@@std@@@std@@@2@0@Z
	?erase@?$_Tree@V?$_Tmap_traits@JV?$vector@NV?$allocator@N@std@@@std@@U?$less@J@2@V?$allocator@U?$pair@$$CBJV?$vector@NV?$allocator@N@std@@@std@@@std@@@2@$0A@@std@@@std@@QEAA?AV?$_Tree_iterator@V?$_Tree_val@U?$_Tree_simple_types@U?$pair@$$CBJV?$vector@NV?$allocator@N@std@@@std@@@std@@@std@@@std@@@2@V?$_Tree_const_iterator@V?$_Tree_val@U?$_Tree_simple_types@U?$pair@$$CBJV?$vector@NV?$allocator@N@std@@@std@@@std@@@std@@@std@@@2@@Z
	?erase@?$basic_string@DU?$char_traits@D@std@@V?$allocator@D@2@@std@@QEAAAEAV12@_K_K@Z
	?find@?$_Tree@V?$_Tmap_traits@JV?$vector@HV?$allocator@H@std@@@std@@U?$less@J@2@V?$allocator@U?$pair@$$CBJV?$vector@HV?$allocator@H@std@@@std@@@std@@@2@$0A@@std@@@std@@QEBA?AV?$_Tree_const_iterator@V?$_Tree_val@U?$_Tree_simple_types@U?$pair@$$CBJV?$vector@HV?$allocator@H@std@@@std@@@std@@@std@@@std@@@2@AEBJ@Z
	?find@?$_Tree@V?$_Tmap_traits@JV?$vector@NV?$allocator@N@std@@@std@@U?$less@J@2@V?$allocator@U?$pair@$$CBJV?$vector@NV?$allocator@N@std@@@std@@@std@@@2@$0A@@std@@@std@@QEBA?AV?$_Tree_const_iterator@V?$_Tree_val@U?$_Tree_simple_types@U?$pair@$$CBJV?$vector@NV?$allocator@N@std@@@std@@@std@@@std@@@std@@@2@AEBJ@Z
	?front@?$basic_string@DU?$char_traits@D@std@@V?$allocator@D@2@@std@@QEAAAEADXZ
	?generic_category@std@@YAAEBVerror_category@1@XZ
	?get@?$_Ptr_base@Ucse_observer_s@@@std@@IEBAPEAUcse_observer_s@@XZ
	?get@?$_Ptr_base@Vfmu@fmi@cse@@@std@@IEBAPEAVfmu@fmi@cse@@XZ
	?get@?$_Ptr_base@Vimporter@fmi@cse@@@std@@IEBAPEAVimporter@fmi@cse@@XZ
	?get@?$_Ptr_base@Vsingle_slave_observer@cse@@@std@@IEBAPEAVsingle_slave_observer@cse@@XZ
	?get@?$_Ptr_base@Vslave@cse@@@std@@IEBAPEAVslave@cse@@XZ
	?get@?$unique_ptr@Ucse_execution_s@@U?$default_delete@Ucse_execution_s@@@std@@@std@@QEBAPEAUcse_execution_s@@XZ
	?get@?$unique_ptr@Ucse_observer_s@@U?$default_delete@Ucse_observer_s@@@std@@@std@@QEBAPEAUcse_observer_s@@XZ
	?get@?$unique_ptr@Ucse_slave_s@@U?$default_delete@Ucse_slave_s@@@std@@@std@@QEBAPEAUcse_slave_s@@XZ
	?get@?$unique_ptr@V_Facet_base@std@@U?$default_delete@V_Facet_base@std@@@2@@std@@QEBAPEAV_Facet_base@2@XZ
	?get_deleter@?$_Unique_ptr_base@Ucse_execution_s@@U?$default_delete@Ucse_execution_s@@@std@@@std@@QEAAAEAU?$default_delete@Ucse_execution_s@@@2@XZ
	?get_deleter@?$_Unique_ptr_base@Ucse_observer_s@@U?$default_delete@Ucse_observer_s@@@std@@@std@@QEAAAEAU?$default_delete@Ucse_observer_s@@@2@XZ
	?get_deleter@?$_Unique_ptr_base@Ucse_slave_s@@U?$default_delete@Ucse_slave_s@@@std@@@std@@QEAAAEAU?$default_delete@Ucse_slave_s@@@2@XZ
	?get_deleter@?$_Unique_ptr_base@V_Facet_base@std@@U?$default_delete@V_Facet_base@std@@@2@@std@@QEAAAEAU?$default_delete@V_Facet_base@std@@@2@XZ
	?get_id@this_thread@std@@YA?AVid@thread@2@XZ
	?get_id@thread@std@@QEBA?AVid@12@XZ
	?get_int@single_slave_observer@cse@@QEAAXQEBI_KQEAH@Z
	?get_int_samples@single_slave_observer@cse@@QEAA_KIJ_KQEAHQEAJ@Z
	?get_real@single_slave_observer@cse@@QEAAXQEBI_KQEAN@Z
	?get_real_samples@single_slave_observer@cse@@QEAA_KIJ_KQEANQEAJ@Z
	?get_ultimate_answer@cse@@YAHXZ
	?has_value@?$optional@V?$basic_string@DU?$char_traits@D@std@@V?$allocator@D@2@@std@@@std@@QEBA_NXZ
	?imbue@?$basic_filebuf@DU?$char_traits@D@std@@@std@@MEAAXAEBVlocale@2@@Z
	?infinity@?$numeric_limits@N@std@@SANXZ
	?is_open@?$basic_filebuf@DU?$char_traits@D@std@@@std@@QEBA_NXZ
	?is_open@?$basic_ofstream@DU?$char_traits@D@std@@@std@@QEBA_NXZ
	?join@thread@std@@QEAAXXZ
	?joinable@thread@std@@QEBA_NXZ
	?length@?$char_traits@D@std@@SA_KQEBD@Z
	?load@?$_Atomic_base@N$07@std@@QEBANW4memory_order@2@@Z
	?load@?$_Atomic_base@W4cse_execution_state@@$03@std@@QEBA?AW4cse_execution_state@@W4memory_order@2@@Z
	?lock@_Mutex_base@std@@QEAAXXZ
	?lower_bound@?$_Tree@V?$_Tmap_traits@JV?$vector@HV?$allocator@H@std@@@std@@U?$less@J@2@V?$allocator@U?$pair@$$CBJV?$vector@HV?$allocator@H@std@@@std@@@std@@@2@$0A@@std@@@std@@QEAA?AV?$_Tree_iterator@V?$_Tree_val@U?$_Tree_simple_types@U?$pair@$$CBJV?$vector@HV?$allocator@H@std@@@std@@@std@@@std@@@std@@@2@AEBJ@Z
	?lower_bound@?$_Tree@V?$_Tmap_traits@JV?$vector@HV?$allocator@H@std@@@std@@U?$less@J@2@V?$allocator@U?$pair@$$CBJV?$vector@HV?$allocator@H@std@@@std@@@std@@@2@$0A@@std@@@std@@QEBA?AV?$_Tree_const_iterator@V?$_Tree_val@U?$_Tree_simple_types@U?$pair@$$CBJV?$vector@HV?$allocator@H@std@@@std@@@std@@@std@@@std@@@2@AEBJ@Z
	?lower_bound@?$_Tree@V?$_Tmap_traits@JV?$vector@NV?$allocator@N@std@@@std@@U?$less@J@2@V?$allocator@U?$pair@$$CBJV?$vector@NV?$allocator@N@std@@@std@@@std@@@2@$0A@@std@@@std@@QEAA?AV?$_Tree_iterator@V?$_Tree_val@U?$_Tree_simple_types@U?$pair@$$CBJV?$vector@NV?$allocator@N@std@@@std@@@std@@@std@@@std@@@2@AEBJ@Z
	?lower_bound@?$_Tree@V?$_Tmap_traits@JV?$vector@NV?$allocator@N@std@@@std@@U?$less@J@2@V?$allocator@U?$pair@$$CBJV?$vector@NV?$allocator@N@std@@@std@@@std@@@2@$0A@@std@@@std@@QEBA?AV?$_Tree_const_iterator@V?$_Tree_val@U?$_Tree_simple_types@U?$pair@$$CBJV?$vector@NV?$allocator@N@std@@@std@@@std@@@std@@@std@@@2@AEBJ@Z
	?make_error_code@std@@YA?AVerror_code@1@W4errc@1@@Z
	?max@?$numeric_limits@_J@std@@SA_JXZ
	?max_size@?$_Default_allocator_traits@V?$allocator@D@std@@@std@@SA_KAEBV?$allocator@D@2@@Z
	?max_size@?$_Default_allocator_traits@V?$allocator@H@std@@@std@@SA_KAEBV?$allocator@H@2@@Z
	?max_size@?$_Default_allocator_traits@V?$allocator@I@std@@@std@@SA_KAEBV?$allocator@I@2@@Z
	?max_size@?$_Default_allocator_traits@V?$allocator@N@std@@@std@@SA_KAEBV?$allocator@N@2@@Z
	?max_size@?$_Default_allocator_traits@V?$allocator@U?$_Tree_node@U?$pair@$$CBJV?$vector@HV?$allocator@H@std@@@std@@@std@@PEAX@std@@@std@@@std@@SA_KAEBV?$allocator@U?$_Tree_node@U?$pair@$$CBJV?$vector@HV?$allocator@H@std@@@std@@@std@@PEAX@std@@@2@@Z
	?max_size@?$_Default_allocator_traits@V?$allocator@U?$_Tree_node@U?$pair@$$CBJV?$vector@NV?$allocator@N@std@@@std@@@std@@PEAX@std@@@std@@@std@@SA_KAEBV?$allocator@U?$_Tree_node@U?$pair@$$CBJV?$vector@NV?$allocator@N@std@@@std@@@std@@PEAX@std@@@2@@Z
	?max_size@?$_Default_allocator_traits@V?$allocator@V?$shared_ptr@Ucse_observer_s@@@std@@@std@@@std@@SA_KAEBV?$allocator@V?$shared_ptr@Ucse_observer_s@@@std@@@2@@Z
	?max_size@?$_Default_allocator_traits@V?$allocator@V?$shared_ptr@Vsingle_slave_observer@cse@@@std@@@std@@@std@@SA_KAEBV?$allocator@V?$shared_ptr@Vsingle_slave_observer@cse@@@std@@@2@@Z
	?max_size@?$_Default_allocator_traits@V?$allocator@V?$shared_ptr@Vslave@cse@@@std@@@std@@@std@@SA_KAEBV?$allocator@V?$shared_ptr@Vslave@cse@@@std@@@2@@Z
	?max_size@?$_Default_allocator_traits@V?$allocator@_W@std@@@std@@SA_KAEBV?$allocator@_W@2@@Z
	?max_size@?$_Tree@V?$_Tmap_traits@JV?$vector@HV?$allocator@H@std@@@std@@U?$less@J@2@V?$allocator@U?$pair@$$CBJV?$vector@HV?$allocator@H@std@@@std@@@std@@@2@$0A@@std@@@std@@QEBA_KXZ
	?max_size@?$_Tree@V?$_Tmap_traits@JV?$vector@NV?$allocator@N@std@@@std@@U?$less@J@2@V?$allocator@U?$pair@$$CBJV?$vector@NV?$allocator@N@std@@@std@@@std@@@2@$0A@@std@@@std@@QEBA_KXZ
	?max_size@?$basic_string@DU?$char_traits@D@std@@V?$allocator@D@2@@std@@QEBA_KXZ
	?max_size@?$basic_string@_WU?$char_traits@_W@std@@V?$allocator@_W@2@@std@@QEBA_KXZ
	?max_size@?$vector@HV?$allocator@H@std@@@std@@QEBA_KXZ
	?max_size@?$vector@IV?$allocator@I@std@@@std@@QEBA_KXZ
	?max_size@?$vector@NV?$allocator@N@std@@@std@@QEBA_KXZ
	?max_size@?$vector@V?$shared_ptr@Ucse_observer_s@@@std@@V?$allocator@V?$shared_ptr@Ucse_observer_s@@@std@@@2@@std@@QEBA_KXZ
	?max_size@?$vector@V?$shared_ptr@Vsingle_slave_observer@cse@@@std@@V?$allocator@V?$shared_ptr@Vsingle_slave_observer@cse@@@std@@@2@@std@@QEBA_KXZ
	?max_size@?$vector@V?$shared_ptr@Vslave@cse@@@std@@V?$allocator@V?$shared_ptr@Vslave@cse@@@std@@@2@@std@@QEBA_KXZ
	?message@_Generic_error_category@std@@UEBA?AV?$basic_string@DU?$char_traits@D@std@@V?$allocator@D@2@@2@H@Z
	?message@_System_error_category@std@@UEBA?AV?$basic_string@DU?$char_traits@D@std@@V?$allocator@D@2@@2@H@Z
	?message@error_code@std@@QEBA?AV?$basic_string@DU?$char_traits@D@std@@V?$allocator@D@2@@2@XZ
	?move@?$char_traits@D@std@@SAPEADQEADQEBD_K@Z
	?name@_Generic_error_category@std@@UEBAPEBDXZ
	?name@_System_error_category@std@@UEBAPEBDXZ
	?not_eof@?$char_traits@D@std@@SAHAEBH@Z
	?now@system_clock@chrono@std@@SA?AV?$time_point@Usystem_clock@chrono@std@@V?$duration@_JU?$ratio@$00$0JIJGIA@@std@@@23@@23@XZ
	?observe@single_slave_observer@cse@@QEAAXJ@Z
	?open@?$basic_filebuf@DU?$char_traits@D@std@@@std@@QEAAPEAV12@PEBDHH@Z
	?overflow@?$basic_filebuf@DU?$char_traits@D@std@@@std@@MEAAHH@Z
	?pbackfail@?$basic_filebuf@DU?$char_traits@D@std@@@std@@MEAAHH@Z
	?pointer_to@?$pointer_traits@PEAU?$pair@$$CBJV?$vector@HV?$allocator@H@std@@@std@@@std@@@std@@SAPEAU?$pair@$$CBJV?$vector@HV?$allocator@H@std@@@std@@@2@AEAU32@@Z
	?pointer_to@?$pointer_traits@PEAU?$pair@$$CBJV?$vector@NV?$allocator@N@std@@@std@@@std@@@std@@SAPEAU?$pair@$$CBJV?$vector@NV?$allocator@N@std@@@std@@@2@AEAU32@@Z
	?pointer_to@?$pointer_traits@PEBU?$pair@$$CBJV?$vector@HV?$allocator@H@std@@@std@@@std@@@std@@SAPEBU?$pair@$$CBJV?$vector@HV?$allocator@H@std@@@std@@@2@AEBU32@@Z
	?pointer_to@?$pointer_traits@PEBU?$pair@$$CBJV?$vector@NV?$allocator@N@std@@@std@@@std@@@std@@SAPEBU?$pair@$$CBJV?$vector@NV?$allocator@N@std@@@std@@@2@AEBU32@@Z
	?push_back@?$basic_string@DU?$char_traits@D@std@@V?$allocator@D@2@@std@@QEAAXD@Z
	?push_back@?$vector@IV?$allocator@I@std@@@std@@QEAAXAEBI@Z
	?push_back@?$vector@V?$shared_ptr@Ucse_observer_s@@@std@@V?$allocator@V?$shared_ptr@Ucse_observer_s@@@std@@@2@@std@@QEAAX$$QEAV?$shared_ptr@Ucse_observer_s@@@2@@Z
	?push_back@?$vector@V?$shared_ptr@Vsingle_slave_observer@cse@@@std@@V?$allocator@V?$shared_ptr@Vsingle_slave_observer@cse@@@std@@@2@@std@@QEAAXAEBV?$shared_ptr@Vsingle_slave_observer@cse@@@2@@Z
	?push_back@?$vector@V?$shared_ptr@Vslave@cse@@@std@@V?$allocator@V?$shared_ptr@Vslave@cse@@@std@@@2@@std@@QEAAXAEBV?$shared_ptr@Vslave@cse@@@2@@Z
	?rbegin@?$_Tree@V?$_Tmap_traits@JV?$vector@HV?$allocator@H@std@@@std@@U?$less@J@2@V?$allocator@U?$pair@$$CBJV?$vector@HV?$allocator@H@std@@@std@@@std@@@2@$0A@@std@@@std@@QEBA?AV?$reverse_iterator@V?$_Tree_const_iterator@V?$_Tree_val@U?$_Tree_simple_types@U?$pair@$$CBJV?$vector@HV?$allocator@H@std@@@std@@@std@@@std@@@std@@@std@@@2@XZ
	?rbegin@?$_Tree@V?$_Tmap_traits@JV?$vector@NV?$allocator@N@std@@@std@@U?$less@J@2@V?$allocator@U?$pair@$$CBJV?$vector@NV?$allocator@N@std@@@std@@@std@@@2@$0A@@std@@@std@@QEBA?AV?$reverse_iterator@V?$_Tree_const_iterator@V?$_Tree_val@U?$_Tree_simple_types@U?$pair@$$CBJV?$vector@NV?$allocator@N@std@@@std@@@std@@@std@@@std@@@std@@@2@XZ
	?release@?$unique_ptr@Ucse_execution_s@@U?$default_delete@Ucse_execution_s@@@std@@@std@@QEAAPEAUcse_execution_s@@XZ
	?release@?$unique_ptr@Ucse_observer_s@@U?$default_delete@Ucse_observer_s@@@std@@@std@@QEAAPEAUcse_observer_s@@XZ
	?release@?$unique_ptr@Ucse_slave_s@@U?$default_delete@Ucse_slave_s@@@std@@@std@@QEAAPEAUcse_slave_s@@XZ
	?release@?$unique_ptr@V_Facet_base@std@@U?$default_delete@V_Facet_base@std@@@2@@std@@QEAAPEAV_Facet_base@2@XZ
	?resize@?$basic_string@DU?$char_traits@D@std@@V?$allocator@D@2@@std@@QEAAX_KD@Z
	?resize@?$basic_string@_WU?$char_traits@_W@std@@V?$allocator@_W@2@@std@@QEAAX_K_W@Z
	?resize@?$vector@HV?$allocator@H@std@@@std@@QEAAX_K@Z
	?resize@?$vector@NV?$allocator@N@std@@@std@@QEAAX_K@Z
	?seekoff@?$basic_filebuf@DU?$char_traits@D@std@@@std@@MEAA?AV?$fpos@U_Mbstatet@@@2@_JHH@Z
	?seekpos@?$basic_filebuf@DU?$char_traits@D@std@@@std@@MEAA?AV?$fpos@U_Mbstatet@@@2@V32@H@Z
	?select_on_container_copy_construction@?$_Default_allocator_traits@V?$allocator@D@std@@@std@@SA?AV?$allocator@D@2@AEBV32@@Z
	?setbuf@?$basic_filebuf@DU?$char_traits@D@std@@@std@@MEAAPEAV?$basic_streambuf@DU?$char_traits@D@std@@@2@PEAD_J@Z
	?shrink_to_fit@?$basic_string@DU?$char_traits@D@std@@V?$allocator@D@2@@std@@QEAAXXZ
	?size@?$_Tree@V?$_Tmap_traits@JV?$vector@HV?$allocator@H@std@@@std@@U?$less@J@2@V?$allocator@U?$pair@$$CBJV?$vector@HV?$allocator@H@std@@@std@@@std@@@2@$0A@@std@@@std@@QEBA_KXZ
	?size@?$_Tree@V?$_Tmap_traits@JV?$vector@NV?$allocator@N@std@@@std@@U?$less@J@2@V?$allocator@U?$pair@$$CBJV?$vector@NV?$allocator@N@std@@@std@@@std@@@2@$0A@@std@@@std@@QEBA_KXZ
	?size@?$basic_string@DU?$char_traits@D@std@@V?$allocator@D@2@@std@@QEBA_KXZ
	?size@?$basic_string@_WU?$char_traits@_W@std@@V?$allocator@_W@2@@std@@QEBA_KXZ
	?size@?$basic_string_view@DU?$char_traits@D@std@@@std@@QEBA_KXZ
	?size@?$extent_type@$0?0@details@gsl@@QEBA_JXZ
	?size@?$span@I$0?0@gsl@@QEBA_JXZ
	?size@?$vector@HV?$allocator@H@std@@@std@@QEBA_KXZ
	?size@?$vector@IV?$allocator@I@std@@@std@@QEBA_KXZ
	?size@?$vector@NV?$allocator@N@std@@@std@@QEBA_KXZ
	?size@?$vector@V?$shared_ptr@Ucse_observer_s@@@std@@V?$allocator@V?$shared_ptr@Ucse_observer_s@@@std@@@2@@std@@QEBA_KXZ
	?size@?$vector@V?$shared_ptr@Vsingle_slave_observer@cse@@@std@@V?$allocator@V?$shared_ptr@Vsingle_slave_observer@cse@@@std@@@2@@std@@QEBA_KXZ
	?size@?$vector@V?$shared_ptr@Vslave@cse@@@std@@V?$allocator@V?$shared_ptr@Vslave@cse@@@std@@@2@@std@@QEBA_KXZ
	?sleep_until@this_thread@std@@YAXPEBUxtime@@@Z
	?state@?$fpos@U_Mbstatet@@@std@@QEBA?AU_Mbstatet@@XZ
	?swap@?$basic_filebuf@DU?$char_traits@D@std@@@std@@QEAAXAEAV12@@Z
	?swap@?$basic_ofstream@DU?$char_traits@D@std@@@std@@QEAAXAEAV12@@Z
	?swap@?$shared_ptr@Vslave@cse@@@std@@QEAAXAEAV12@@Z
	?sync@?$basic_filebuf@DU?$char_traits@D@std@@@std@@MEAAHXZ
	?system_category@std@@YAAEBVerror_category@1@XZ
	?terminate@details@gsl@@YAXXZ
	?time_since_epoch@?$time_point@Usystem_clock@chrono@std@@V?$duration@_JU?$ratio@$00$0JIJGIA@@std@@@23@@chrono@std@@QEBA?AV?$duration@_JU?$ratio@$00$0JIJGIA@@std@@@23@XZ
	?to_char_type@?$char_traits@D@std@@SADAEBH@Z
	?to_int_type@?$char_traits@D@std@@SAHAEBD@Z
	?uflow@?$basic_filebuf@DU?$char_traits@D@std@@@std@@MEAAHXZ
	?underflow@?$basic_filebuf@DU?$char_traits@D@std@@@std@@MEAAHXZ
	?unlock@_Mutex_base@std@@QEAAXXZ
	?value@error_code@std@@QEBAHXZ
	?value@error_condition@std@@QEBAHXZ
	?what@exception@std@@UEBAPEBDXZ
	?write_binary_ints@single_slave_logger@cse@@AEAAHPEAH@Z
	?write_binary_reals@single_slave_logger@cse@@AEAAHPEAN@Z
	?write_csv_ints@single_slave_logger@cse@@AEAAHPEAHH@Z
	?write_csv_reals@single_slave_logger@cse@@AEAAHPEANH@Z
	?write_int_samples@single_slave_logger@cse@@QEAAHPEAHH@Z
	?write_real_samples@single_slave_logger@cse@@QEAAHPEANH@Z
	?xsgetn@?$basic_filebuf@DU?$char_traits@D@std@@@std@@MEAA_JPEAD_J@Z
	?xsputn@?$basic_filebuf@DU?$char_traits@D@std@@@std@@MEAA_JPEBD_J@Z
	?zero@?$duration@NU?$ratio@$00$00@std@@@chrono@std@@SA?AV123@XZ
	?zero@?$duration_values@N@chrono@std@@SANXZ
	cse_execution_add_observer
	cse_execution_add_slave
	cse_execution_create
	cse_execution_destroy
	cse_execution_get_status
	cse_execution_slave_set_integer
	cse_execution_slave_set_real
	cse_execution_start
	cse_execution_step
	cse_execution_stop
	cse_hello_world
	cse_last_error_code
	cse_last_error_message
	cse_local_slave_create
	cse_log_int_values
	cse_log_real_values
	cse_membuffer_observer_create
	cse_observer_add_slave
	cse_observer_slave_get_integer
	cse_observer_slave_get_integer_samples
	cse_observer_slave_get_real
	cse_observer_slave_get_real_samples
	wmemcpy
	wmemset
