EXPORTS 
	?$TSS0@?1???$xmlattr@V?$basic_string@DU?$char_traits@D@std@@V?$allocator@D@2@@std@@@xml_parser@property_tree@boost@@YAAEBV?$basic_string@DU?$char_traits@D@std@@V?$allocator@D@2@@std@@XZ@4HA 	 DATA
	?$TSS0@?1???$xmlcomment@V?$basic_string@DU?$char_traits@D@std@@V?$allocator@D@2@@std@@@xml_parser@property_tree@boost@@YAAEBV?$basic_string@DU?$char_traits@D@std@@V?$allocator@D@2@@std@@XZ@4HA 	 DATA
	?$TSS0@?1???$xmltext@V?$basic_string@DU?$char_traits@D@std@@V?$allocator@D@2@@std@@@xml_parser@property_tree@boost@@YAAEBV?$basic_string@DU?$char_traits@D@std@@V?$allocator@D@2@@std@@XZ@4HA 	 DATA
	?$TSS0@?1??get_instance@?$lazy_singleton@U?$logger_singleton@Ulogger@log@cse@@@aux@sources@v2s_mt_nt6@log@boost@@V?$shared_ptr@U?$logger_holder@V?$severity_logger_mt@W4level@log@cse@@@sources@v2s_mt_nt6@log@boost@@@aux@sources@v2s_mt_nt6@log@boost@@@6@@aux@v2s_mt_nt6@log@boost@@KAAEAV?$shared_ptr@U?$logger_holder@V?$severity_logger_mt@W4level@log@cse@@@sources@v2s_mt_nt6@log@boost@@@aux@sources@v2s_mt_nt6@log@boost@@@6@XZ@4HA 	 DATA
	??_R0?AU?$error_info_injector@Vinvalid_argument@std@@@exception_detail@boost@@@8 	 DATA
	??_R0?AU?$error_info_injector@Vptree_bad_path@property_tree@boost@@@exception_detail@boost@@@8 	 DATA
	??_R0?AU?$error_info_injector@Vruntime_error@std@@@exception_detail@boost@@@8 	 DATA
	??_R0?AU?$error_info_injector@Vxml_parser_error@xml_parser@property_tree@boost@@@exception_detail@boost@@@8 	 DATA
	??_R0?AUimpl@attribute@v2s_mt_nt6@log@boost@@@8 	 DATA
	??_R0?AUimpl@attribute_value@v2s_mt_nt6@log@boost@@@8 	 DATA
	??_R0?AUlogger@log@cse@@@8 	 DATA
	??_R0?AV?$_Iosb@H@std@@@8 	 DATA
	??_R0?AV?$_Ref_count@Vfmu@v1@fmi@cse@@@std@@@8 	 DATA
	??_R0?AV?$_Ref_count@Vfmu@v2@fmi@cse@@@std@@@8 	 DATA
	??_R0?AV?$_Ref_count@Vimporter@fmi@cse@@@std@@@8 	 DATA
	??_R0?AV?$_Ref_count@Vslave_instance@v1@fmi@cse@@@std@@@8 	 DATA
	??_R0?AV?$_Ref_count@Vslave_instance@v2@fmi@cse@@@std@@@8 	 DATA
	??_R0?AV?$_Ref_count_obj@U_Dir_enum_impl@filesystem@std@@@std@@@8 	 DATA
	??_R0?AV?$attribute_value_impl@W4level@log@cse@@@attributes@v2s_mt_nt6@log@boost@@@8 	 DATA
	??_R0?AV?$basic_filebuf@DU?$char_traits@D@std@@@std@@@8 	 DATA
	??_R0?AV?$basic_ifstream@DU?$char_traits@D@std@@@std@@@8 	 DATA
	??_R0?AV?$basic_ios@DU?$char_traits@D@std@@@std@@@8 	 DATA
	??_R0?AV?$basic_iostream@DU?$char_traits@D@std@@@std@@@8 	 DATA
	??_R0?AV?$basic_istream@DU?$char_traits@D@std@@@std@@@8 	 DATA
	??_R0?AV?$basic_ofstream@DU?$char_traits@D@std@@@std@@@8 	 DATA
	??_R0?AV?$basic_ostream@DU?$char_traits@D@std@@@std@@@8 	 DATA
	??_R0?AV?$basic_ostringstream@DU?$char_traits@D@std@@V?$allocator@D@2@@std@@@8 	 DATA
	??_R0?AV?$basic_streambuf@DU?$char_traits@D@std@@@std@@@8 	 DATA
	??_R0?AV?$basic_stringbuf@DU?$char_traits@D@std@@V?$allocator@D@2@@std@@@8 	 DATA
	??_R0?AV?$basic_stringstream@DU?$char_traits@D@std@@V?$allocator@D@2@@std@@@8 	 DATA
	??_R0?AV?$clone_impl@U?$error_info_injector@Vinvalid_argument@std@@@exception_detail@boost@@@exception_detail@boost@@@8 	 DATA
	??_R0?AV?$clone_impl@U?$error_info_injector@Vptree_bad_path@property_tree@boost@@@exception_detail@boost@@@exception_detail@boost@@@8 	 DATA
	??_R0?AV?$clone_impl@U?$error_info_injector@Vruntime_error@std@@@exception_detail@boost@@@exception_detail@boost@@@8 	 DATA
	??_R0?AV?$clone_impl@U?$error_info_injector@Vxml_parser_error@xml_parser@property_tree@boost@@@exception_detail@boost@@@exception_detail@boost@@@8 	 DATA
	??_R0?AV?$enable_shared_from_this@Vfmu@v1@fmi@cse@@@std@@@8 	 DATA
	??_R0?AV?$enable_shared_from_this@Vfmu@v2@fmi@cse@@@std@@@8 	 DATA
	??_R0?AV?$holder@V?$string_path@V?$basic_string@DU?$char_traits@D@std@@V?$allocator@D@2@@std@@U?$id_translator@V?$basic_string@DU?$char_traits@D@std@@V?$allocator@D@2@@std@@@property_tree@boost@@@property_tree@boost@@@any@boost@@@8 	 DATA
	??_R0?AV?$intrusive_ref_counter@Uimpl@attribute@v2s_mt_nt6@log@boost@@Uthread_safe_counter@sp_adl_block@5@@sp_adl_block@boost@@@8 	 DATA
	??_R0?AV?$severity_logger_mt@W4level@log@cse@@@sources@v2s_mt_nt6@log@boost@@@8 	 DATA
	??_R0?AV?$sp_counted_impl_p@V?$mersenne_twister_engine@I$0CA@$0CHA@$0BIN@$0BP@$0JJAILANP@$0L@$0PPPPPPPP@$06$0JNCMFGIA@$0P@$0OPMGAAAA@$0BC@$0GMAHIJGF@@random@boost@@@detail@boost@@@8 	 DATA
	??_R0?AV?$sp_counted_impl_pd@PEAU?$logger_holder@V?$severity_logger_mt@W4level@log@cse@@@sources@v2s_mt_nt6@log@boost@@@aux@sources@v2s_mt_nt6@log@boost@@V?$sp_ms_deleter@U?$logger_holder@V?$severity_logger_mt@W4level@log@cse@@@sources@v2s_mt_nt6@log@boost@@@aux@sources@v2s_mt_nt6@log@boost@@@detail@6@@detail@boost@@@8 	 DATA
	??_R0?AV?$sp_ms_deleter@U?$logger_holder@V?$severity_logger_mt@W4level@log@cse@@@sources@v2s_mt_nt6@log@boost@@@aux@sources@v2s_mt_nt6@log@boost@@@detail@boost@@@8 	 DATA
	??_R0?AV?$string_path@V?$basic_string@DU?$char_traits@D@std@@V?$allocator@D@2@@std@@U?$id_translator@V?$basic_string@DU?$char_traits@D@std@@V?$allocator@D@2@@std@@@property_tree@boost@@@property_tree@boost@@@8 	 DATA
	??_R0?AV_Generic_error_category@std@@@8 	 DATA
	??_R0?AV_Ref_count_base@std@@@8 	 DATA
	??_R0?AV_System_error@std@@@8 	 DATA
	??_R0?AV_System_error_category@std@@@8 	 DATA
	??_R0?AVbad_alloc@std@@@8 	 DATA
	??_R0?AVbad_cast@std@@@8 	 DATA
	??_R0?AVbad_numeric_cast@numeric@boost@@@8 	 DATA
	??_R0?AVbad_weak_ptr@std@@@8 	 DATA
	??_R0?AVclone_base@exception_detail@boost@@@8 	 DATA
	??_R0?AVerror@cse@@@8 	 DATA
	??_R0?AVerror@zip@utility@cse@@@8 	 DATA
	??_R0?AVerror_category@std@@@8 	 DATA
	??_R0?AVevent_loop@cse@@@8 	 DATA
	??_R0?AVexception@boost@@@8 	 DATA
	??_R0?AVexception@std@@@8 	 DATA
	??_R0?AVfile_parser_error@property_tree@boost@@@8 	 DATA
	??_R0?AVfilesystem_error@filesystem@std@@@8 	 DATA
	??_R0?AVfmu@fmi@cse@@@8 	 DATA
	??_R0?AVfmu@v1@fmi@cse@@@8 	 DATA
	??_R0?AVfmu@v2@fmi@cse@@@8 	 DATA
	??_R0?AVimpl@?$severity_level@W4level@log@cse@@@aux@sources@v2s_mt_nt6@log@boost@@@8 	 DATA
	??_R0?AVinvalid_argument@std@@@8 	 DATA
	??_R0?AVios_base@std@@@8 	 DATA
	??_R0?AVlogic_error@std@@@8 	 DATA
	??_R0?AVnegative_overflow@numeric@boost@@@8 	 DATA
	??_R0?AVnonfatal_bad_value@cse@@@8 	 DATA
	??_R0?AVparse_error@rapidxml@detail@property_tree@boost@@@8 	 DATA
	??_R0?AVplaceholder@any@boost@@@8 	 DATA
	??_R0?AVpositive_overflow@numeric@boost@@@8 	 DATA
	??_R0?AVptree_bad_path@property_tree@boost@@@8 	 DATA
	??_R0?AVptree_error@property_tree@boost@@@8 	 DATA
	??_R0?AVruntime_error@std@@@8 	 DATA
	??_R0?AVslave@cse@@@8 	 DATA
	??_R0?AVslave_instance@fmi@cse@@@8 	 DATA
	??_R0?AVslave_instance@v1@fmi@cse@@@8 	 DATA
	??_R0?AVslave_instance@v2@fmi@cse@@@8 	 DATA
	??_R0?AVsocket_event@cse@@@8 	 DATA
	??_R0?AVsp_counted_base@detail@boost@@@8 	 DATA
	??_R0?AVsystem_error@std@@@8 	 DATA
	??_R0?AVtimer_event@cse@@@8 	 DATA
	??_R0?AVxml_parser_error@xml_parser@property_tree@boost@@@8 	 DATA
	??_R0?AW4level@log@cse@@@8 	 DATA
	??_R0X@8 	 DATA
	?_Flag@?1???$_Immortalize@V_Generic_error_category@std@@@std@@YAAEAV_Generic_error_category@1@XZ@4PEAXEA 	 DATA
	?_Flag@?1???$_Immortalize@V_System_error_category@std@@@std@@YAAEAV_System_error_category@1@XZ@4PEAXEA 	 DATA
	?_OptionsStorage@?1??__local_stdio_printf_options@@9@4_KA 	 DATA
	?_Psave@?$_Facetptr@V?$codecvt@DDU_Mbstatet@@@std@@@std@@2PEBVfacet@locale@2@EB 	 DATA
	?_Psave@?$_Facetptr@V?$codecvt@_WDU_Mbstatet@@@std@@@std@@2PEBVfacet@locale@2@EB 	 DATA
	?_Psave@?$_Facetptr@V?$ctype@D@std@@@std@@2PEBVfacet@locale@2@EB 	 DATA
	?_Stinit@?1??_Init@?$basic_filebuf@DU?$char_traits@D@std@@@std@@IEAAXPEAU_iobuf@@W4_Initfl@23@@Z@4U_Mbstatet@@A 	 DATA
	?_Storage@?1???$_Immortalize@V_Generic_error_category@std@@@std@@YAAEAV_Generic_error_category@1@XZ@4T?$_Align_type@N$0BA@@1@A 	 DATA
	?_Storage@?1???$_Immortalize@V_System_error_category@std@@@std@@YAAEAV_System_error_category@1@XZ@4T?$_Align_type@N$0BA@@1@A 	 DATA
	?_boost_log_once_block_flag_0@?1??get@?$lazy_singleton@U?$logger_singleton@Ulogger@log@cse@@@aux@sources@v2s_mt_nt6@log@boost@@V?$shared_ptr@U?$logger_holder@V?$severity_logger_mt@W4level@log@cse@@@sources@v2s_mt_nt6@log@boost@@@aux@sources@v2s_mt_nt6@log@boost@@@6@@aux@v2s_mt_nt6@log@boost@@SAAEAV?$shared_ptr@U?$logger_holder@V?$severity_logger_mt@W4level@log@cse@@@sources@v2s_mt_nt6@log@boost@@@aux@sources@v2s_mt_nt6@log@boost@@@6@XZ@4Uonce_block_flag@456@A 	 DATA
	?_boost_log_once_block_flag_19@?1??get@?$lazy_singleton@U?$logger_singleton@Ulogger@log@cse@@@aux@sources@v2s_mt_nt6@log@boost@@V?$shared_ptr@U?$logger_holder@V?$severity_logger_mt@W4level@log@cse@@@sources@v2s_mt_nt6@log@boost@@@aux@sources@v2s_mt_nt6@log@boost@@@6@@aux@v2s_mt_nt6@log@boost@@SAAEAV?$shared_ptr@U?$logger_holder@V?$severity_logger_mt@W4level@log@cse@@@sources@v2s_mt_nt6@log@boost@@@aux@sources@v2s_mt_nt6@log@boost@@@6@XZ@4Uonce_block_flag@456@A 	 DATA
	?g_logMutex@?A0x48cb695f@v2@fmi@cse@@3Vmutex@std@@A 	 DATA
	?g_logMutex@?A0xa3fcd25c@v1@fmi@cse@@3Vmutex@std@@A 	 DATA
	?g_logRecords@?A0x48cb695f@v2@fmi@cse@@3V?$unordered_map@V?$basic_string@DU?$char_traits@D@std@@V?$allocator@D@2@@std@@Ulog_record@?A0x48cb695f@v2@fmi@cse@@U?$hash@V?$basic_string@DU?$char_traits@D@std@@V?$allocator@D@2@@std@@@2@U?$equal_to@V?$basic_string@DU?$char_traits@D@std@@V?$allocator@D@2@@std@@@2@V?$allocator@U?$pair@$$CBV?$basic_string@DU?$char_traits@D@std@@V?$allocator@D@2@@std@@Ulog_record@?A0x48cb695f@v2@fmi@cse@@@std@@@2@@std@@A 	 DATA
	?g_logRecords@?A0xa3fcd25c@v1@fmi@cse@@3V?$unordered_map@V?$basic_string@DU?$char_traits@D@std@@V?$allocator@D@2@@std@@Ulog_record@?A0xa3fcd25c@v1@fmi@cse@@U?$hash@V?$basic_string@DU?$char_traits@D@std@@V?$allocator@D@2@@std@@@2@U?$equal_to@V?$basic_string@DU?$char_traits@D@std@@V?$allocator@D@2@@std@@@2@V?$allocator@U?$pair@$$CBV?$basic_string@DU?$char_traits@D@std@@V?$allocator@D@2@@std@@Ulog_record@?A0xa3fcd25c@v1@fmi@cse@@@std@@@2@@std@@A 	 DATA
	?instance@?1??get_instance@?$lazy_singleton@U?$logger_singleton@Ulogger@log@cse@@@aux@sources@v2s_mt_nt6@log@boost@@V?$shared_ptr@U?$logger_holder@V?$severity_logger_mt@W4level@log@cse@@@sources@v2s_mt_nt6@log@boost@@@aux@sources@v2s_mt_nt6@log@boost@@@6@@aux@v2s_mt_nt6@log@boost@@KAAEAV?$shared_ptr@U?$logger_holder@V?$severity_logger_mt@W4level@log@cse@@@sources@v2s_mt_nt6@log@boost@@@aux@sources@v2s_mt_nt6@log@boost@@@6@XZ@4V76@A 	 DATA
	?path_env_var_mutex@?A0x3a3b4081@fmi@cse@@3Vmutex@std@@A 	 DATA
	?s@?1???$xmlattr@V?$basic_string@DU?$char_traits@D@std@@V?$allocator@D@2@@std@@@xml_parser@property_tree@boost@@YAAEBV?$basic_string@DU?$char_traits@D@std@@V?$allocator@D@2@@std@@XZ@4V45@A 	 DATA
	?s@?1???$xmlcomment@V?$basic_string@DU?$char_traits@D@std@@V?$allocator@D@2@@std@@@xml_parser@property_tree@boost@@YAAEBV?$basic_string@DU?$char_traits@D@std@@V?$allocator@D@2@@std@@XZ@4V45@A 	 DATA
	?s@?1???$xmltext@V?$basic_string@DU?$char_traits@D@std@@V?$allocator@D@2@@std@@@xml_parser@property_tree@boost@@YAAEBV?$basic_string@DU?$char_traits@D@std@@V?$allocator@D@2@@std@@XZ@4V45@A 	 DATA
	?severity@?A0x48cb695f@keywords@v2s_mt_nt6@log@boost@@3AEBU?$keyword@Useverity@tag@keywords@v2s_mt_nt6@log@boost@@@parameter@5@EB 	 DATA
	?severity@?A0xa3fcd25c@keywords@v2s_mt_nt6@log@boost@@3AEBU?$keyword@Useverity@tag@keywords@v2s_mt_nt6@log@boost@@@parameter@5@EB 	 DATA
	?severity@?A0xb2b0d31b@keywords@v2s_mt_nt6@log@boost@@3AEBU?$keyword@Useverity@tag@keywords@v2s_mt_nt6@log@boost@@@parameter@5@EB 	 DATA
	?state@?1??sha1_random_digest_state_@seed_rng@detail@uuids@boost@@CAPEAIXZ@4PAIA 	 DATA
	?zero@?1??nullstr@?$xml_base@D@rapidxml@detail@property_tree@boost@@KAPEADXZ@4DA 	 DATA
	??$?0$$BY03D$0A@@path@filesystem@std@@QEAA@AEAY03$$CBDW4format@012@@Z
	??$?0$$BY08_W$0A@@path@filesystem@std@@QEAA@AEAY08$$CB_WW4format@012@@Z
	??$?0$$BY0BF@D$0A@@path@filesystem@std@@QEAA@AEAY0BF@$$CBDW4format@012@@Z
	??$?0$$CBVfmu@v1@fmi@cse@@@?$shared_ptr@$$CBUmodel_description@cse@@@std@@QEAA@AEBV?$shared_ptr@$$CBVfmu@v1@fmi@cse@@@1@PEBUmodel_description@cse@@@Z
	??$?0$$CBVfmu@v2@fmi@cse@@@?$shared_ptr@$$CBUmodel_description@cse@@@std@@QEAA@AEBV?$shared_ptr@$$CBVfmu@v2@fmi@cse@@@1@PEBUmodel_description@cse@@@Z
	??$?0$$V@?$_Compressed_pair@V?$allocator@D@std@@V?$_String_val@U?$_Simple_types@D@std@@@2@$00@std@@QEAA@U_Zero_then_variadic_args_t@1@@Z
	??$?0$$V@?$_Compressed_pair@V?$allocator@U?$_Tree_node@U?$pair@$$CBV?$basic_string@DU?$char_traits@D@std@@V?$allocator@D@2@@std@@V?$weak_ptr@Vfmu@fmi@cse@@@2@@std@@PEAX@std@@@std@@V?$_Tree_val@U?$_Tree_simple_types@U?$pair@$$CBV?$basic_string@DU?$char_traits@D@std@@V?$allocator@D@2@@std@@V?$weak_ptr@Vfmu@fmi@cse@@@2@@std@@@std@@@2@$00@std@@QEAA@U_Zero_then_variadic_args_t@1@@Z
	??$?0$$V@?$_Compressed_pair@V?$allocator@U?$_Tree_node@U?$pair@$$CBVpath@filesystem@std@@V?$weak_ptr@Vfmu@fmi@cse@@@3@@std@@PEAX@std@@@std@@V?$_Tree_val@U?$_Tree_simple_types@U?$pair@$$CBVpath@filesystem@std@@V?$weak_ptr@Vfmu@fmi@cse@@@3@@std@@@std@@@2@$00@std@@QEAA@U_Zero_then_variadic_args_t@1@@Z
	??$?0$$V@?$_Compressed_pair@V?$allocator@Uvariable_description@cse@@@std@@V?$_Vector_val@U?$_Simple_types@Uvariable_description@cse@@@std@@@2@$00@std@@QEAA@U_Zero_then_variadic_args_t@1@@Z
	??$?0$$V@?$_Compressed_pair@V?$allocator@V?$weak_ptr@Vslave_instance@v1@fmi@cse@@@std@@@std@@V?$_Vector_val@U?$_Simple_types@V?$weak_ptr@Vslave_instance@v1@fmi@cse@@@std@@@std@@@2@$00@std@@QEAA@U_Zero_then_variadic_args_t@1@@Z
	??$?0$$V@?$_Compressed_pair@V?$allocator@V?$weak_ptr@Vslave_instance@v2@fmi@cse@@@std@@@std@@V?$_Vector_val@U?$_Simple_types@V?$weak_ptr@Vslave_instance@v2@fmi@cse@@@std@@@std@@@2@$00@std@@QEAA@U_Zero_then_variadic_args_t@1@@Z
	??$?0$$V@?$_Compressed_pair@V?$allocator@_W@std@@V?$_String_val@U?$_Simple_types@_W@std@@@2@$00@std@@QEAA@U_Zero_then_variadic_args_t@1@@Z
	??$?0AEAPEAU?$copy_map_entry@U?$sequenced_index_node@U?$ordered_index_node@Unull_augment_policy@detail@multi_index@boost@@U?$index_node_base@U?$pair@$$CBV?$basic_string@DU?$char_traits@D@std@@V?$allocator@D@2@@std@@V?$basic_ptree@V?$basic_string@DU?$char_traits@D@std@@V?$allocator@D@2@@std@@V12@U?$less@V?$basic_string@DU?$char_traits@D@std@@V?$allocator@D@2@@std@@@2@@property_tree@boost@@@std@@V?$allocator@U?$pair@$$CBV?$basic_string@DU?$char_traits@D@std@@V?$allocator@D@2@@std@@V?$basic_ptree@V?$basic_string@DU?$char_traits@D@std@@V?$allocator@D@2@@std@@V12@U?$less@V?$basic_string@DU?$char_traits@D@std@@V?$allocator@D@2@@std@@@2@@property_tree@boost@@@std@@@2@@234@@detail@multi_index@boost@@@detail@multi_index@boost@@@detail@multi_index@boost@@AEAPEAU0123@$0A@@?$pair@PEAU?$copy_map_entry@U?$sequenced_index_node@U?$ordered_index_node@Unull_augment_policy@detail@multi_index@boost@@U?$index_node_base@U?$pair@$$CBV?$basic_string@DU?$char_traits@D@std@@V?$allocator@D@2@@std@@V?$basic_ptree@V?$basic_string@DU?$char_traits@D@std@@V?$allocator@D@2@@std@@V12@U?$less@V?$basic_string@DU?$char_traits@D@std@@V?$allocator@D@2@@std@@@2@@property_tree@boost@@@std@@V?$allocator@U?$pair@$$CBV?$basic_string@DU?$char_traits@D@std@@V?$allocator@D@2@@std@@V?$basic_ptree@V?$basic_string@DU?$char_traits@D@std@@V?$allocator@D@2@@std@@V12@U?$less@V?$basic_string@DU?$char_traits@D@std@@V?$allocator@D@2@@std@@@2@@property_tree@boost@@@std@@@2@@234@@detail@multi_index@boost@@@detail@multi_index@boost@@@detail@multi_index@boost@@PEAU1234@@std@@QEAA@AEAPEAU?$copy_map_entry@U?$sequenced_index_node@U?$ordered_index_node@Unull_augment_policy@detail@multi_index@boost@@U?$index_node_base@U?$pair@$$CBV?$basic_string@DU?$char_traits@D@std@@V?$allocator@D@2@@std@@V?$basic_ptree@V?$basic_string@DU?$char_traits@D@std@@V?$allocator@D@2@@std@@V12@U?$less@V?$basic_string@DU?$char_traits@D@std@@V?$allocator@D@2@@std@@@2@@property_tree@boost@@@std@@V?$allocator@U?$pair@$$CBV?$basic_string@DU?$char_traits@D@std@@V?$allocator@D@2@@std@@V?$basic_ptree@V?$basic_string@DU?$char_traits@D@std@@V?$allocator@D@2@@std@@V12@U?$less@V?$basic_string@DU?$char_traits@D@std@@V?$allocator@D@2@@std@@@2@@property_tree@boost@@@std@@@2@@234@@detail@multi_index@boost@@@detail@multi_index@boost@@@detail@multi_index@boost@@0@Z
	??$?0AEAPEAU?$sequenced_index_node@U?$ordered_index_node@Unull_augment_policy@detail@multi_index@boost@@U?$index_node_base@U?$pair@$$CBV?$basic_string@DU?$char_traits@D@std@@V?$allocator@D@2@@std@@V?$basic_ptree@V?$basic_string@DU?$char_traits@D@std@@V?$allocator@D@2@@std@@V12@U?$less@V?$basic_string@DU?$char_traits@D@std@@V?$allocator@D@2@@std@@@2@@property_tree@boost@@@std@@V?$allocator@U?$pair@$$CBV?$basic_string@DU?$char_traits@D@std@@V?$allocator@D@2@@std@@V?$basic_ptree@V?$basic_string@DU?$char_traits@D@std@@V?$allocator@D@2@@std@@V12@U?$less@V?$basic_string@DU?$char_traits@D@std@@V?$allocator@D@2@@std@@@2@@property_tree@boost@@@std@@@2@@234@@detail@multi_index@boost@@@detail@multi_index@boost@@_N$0A@@?$pair@PEAU?$sequenced_index_node@U?$ordered_index_node@Unull_augment_policy@detail@multi_index@boost@@U?$index_node_base@U?$pair@$$CBV?$basic_string@DU?$char_traits@D@std@@V?$allocator@D@2@@std@@V?$basic_ptree@V?$basic_string@DU?$char_traits@D@std@@V?$allocator@D@2@@std@@V12@U?$less@V?$basic_string@DU?$char_traits@D@std@@V?$allocator@D@2@@std@@@2@@property_tree@boost@@@std@@V?$allocator@U?$pair@$$CBV?$basic_string@DU?$char_traits@D@std@@V?$allocator@D@2@@std@@V?$basic_ptree@V?$basic_string@DU?$char_traits@D@std@@V?$allocator@D@2@@std@@V12@U?$less@V?$basic_string@DU?$char_traits@D@std@@V?$allocator@D@2@@std@@@2@@property_tree@boost@@@std@@@2@@234@@detail@multi_index@boost@@@detail@multi_index@boost@@_N@std@@QEAA@AEAPEAU?$sequenced_index_node@U?$ordered_index_node@Unull_augment_policy@detail@multi_index@boost@@U?$index_node_base@U?$pair@$$CBV?$basic_string@DU?$char_traits@D@std@@V?$allocator@D@2@@std@@V?$basic_ptree@V?$basic_string@DU?$char_traits@D@std@@V?$allocator@D@2@@std@@V12@U?$less@V?$basic_string@DU?$char_traits@D@std@@V?$allocator@D@2@@std@@@2@@property_tree@boost@@@std@@V?$allocator@U?$pair@$$CBV?$basic_string@DU?$char_traits@D@std@@V?$allocator@D@2@@std@@V?$basic_ptree@V?$basic_string@DU?$char_traits@D@std@@V?$allocator@D@2@@std@@V12@U?$less@V?$basic_string@DU?$char_traits@D@std@@V?$allocator@D@2@@std@@@2@@property_tree@boost@@@std@@@2@@234@@detail@multi_index@boost@@@detail@multi_index@boost@@$$QEA_N@Z
	??$?0AEAPEAUjm_callbacks@@@?$_Compressed_pair@U?$default_delete@Ujm_callbacks@@@std@@PEAUjm_callbacks@@$00@std@@QEAA@U_Zero_then_variadic_args_t@1@AEAPEAUjm_callbacks@@@Z
	??$?0AEAPEAV_Facet_base@std@@@?$_Compressed_pair@U?$default_delete@V_Facet_base@std@@@std@@PEAV_Facet_base@2@$00@std@@QEAA@U_Zero_then_variadic_args_t@1@AEAPEAV_Facet_base@1@@Z
	??$?0AEAPEAVadditional_path@detail@fmi@cse@@@?$_Compressed_pair@U?$default_delete@Vadditional_path@detail@fmi@cse@@@std@@PEAVadditional_path@detail@fmi@cse@@$00@std@@QEAA@U_Zero_then_variadic_args_t@1@AEAPEAVadditional_path@detail@fmi@cse@@@Z
	??$?0AEAPEAVtemp_dir@utility@cse@@@?$_Compressed_pair@U?$default_delete@Vtemp_dir@utility@cse@@@std@@PEAVtemp_dir@utility@cse@@$00@std@@QEAA@U_Zero_then_variadic_args_t@1@AEAPEAVtemp_dir@utility@cse@@@Z
	??$?0AEAU?$equal_to@V?$basic_string@DU?$char_traits@D@std@@V?$allocator@D@2@@std@@@std@@M@?$_Compressed_pair@U?$equal_to@V?$basic_string@DU?$char_traits@D@std@@V?$allocator@D@2@@std@@@std@@M$00@std@@QEAA@U_One_then_variadic_args_t@1@AEAU?$equal_to@V?$basic_string@DU?$char_traits@D@std@@V?$allocator@D@2@@std@@@1@$$QEAM@Z
	??$?0AEAU?$hash@V?$basic_string@DU?$char_traits@D@std@@V?$allocator@D@2@@std@@@std@@U_One_then_variadic_args_t@1@AEAU?$equal_to@V?$basic_string@DU?$char_traits@D@std@@V?$allocator@D@2@@std@@@1@M@?$_Compressed_pair@U?$hash@V?$basic_string@DU?$char_traits@D@std@@V?$allocator@D@2@@std@@@std@@V?$_Compressed_pair@U?$equal_to@V?$basic_string@DU?$char_traits@D@std@@V?$allocator@D@2@@std@@@std@@M$00@2@$00@std@@QEAA@U_One_then_variadic_args_t@1@AEAU?$hash@V?$basic_string@DU?$char_traits@D@std@@V?$allocator@D@2@@std@@@1@$$QEAU21@AEAU?$equal_to@V?$basic_string@DU?$char_traits@D@std@@V?$allocator@D@2@@std@@@1@$$QEAM@Z
	??$?0AEAV?$_Tree_const_iterator@V?$_Tree_val@U?$_Tree_simple_types@U?$pair@$$CBV?$basic_string@DU?$char_traits@D@std@@V?$allocator@D@2@@std@@V?$weak_ptr@Vfmu@fmi@cse@@@2@@std@@@std@@@std@@@std@@AEAV01@$0A@@?$pair@V?$_Tree_const_iterator@V?$_Tree_val@U?$_Tree_simple_types@U?$pair@$$CBV?$basic_string@DU?$char_traits@D@std@@V?$allocator@D@2@@std@@V?$weak_ptr@Vfmu@fmi@cse@@@2@@std@@@std@@@std@@@std@@V12@@std@@QEAA@AEAV?$_Tree_const_iterator@V?$_Tree_val@U?$_Tree_simple_types@U?$pair@$$CBV?$basic_string@DU?$char_traits@D@std@@V?$allocator@D@2@@std@@V?$weak_ptr@Vfmu@fmi@cse@@@2@@std@@@std@@@std@@@1@0@Z
	??$?0AEAV?$_Tree_iterator@V?$_Tree_val@U?$_Tree_simple_types@U?$pair@$$CBV?$basic_string@DU?$char_traits@D@std@@V?$allocator@D@2@@std@@V?$weak_ptr@Vfmu@fmi@cse@@@2@@std@@@std@@@std@@@std@@_N$0A@@?$pair@V?$_Tree_iterator@V?$_Tree_val@U?$_Tree_simple_types@U?$pair@$$CBV?$basic_string@DU?$char_traits@D@std@@V?$allocator@D@2@@std@@V?$weak_ptr@Vfmu@fmi@cse@@@2@@std@@@std@@@std@@@std@@_N@std@@QEAA@AEAV?$_Tree_iterator@V?$_Tree_val@U?$_Tree_simple_types@U?$pair@$$CBV?$basic_string@DU?$char_traits@D@std@@V?$allocator@D@2@@std@@V?$weak_ptr@Vfmu@fmi@cse@@@2@@std@@@std@@@std@@@1@$$QEA_N@Z
	??$?0AEAV?$_Tree_iterator@V?$_Tree_val@U?$_Tree_simple_types@U?$pair@$$CBVpath@filesystem@std@@V?$weak_ptr@Vfmu@fmi@cse@@@3@@std@@@std@@@std@@@std@@_N$0A@@?$pair@V?$_Tree_iterator@V?$_Tree_val@U?$_Tree_simple_types@U?$pair@$$CBVpath@filesystem@std@@V?$weak_ptr@Vfmu@fmi@cse@@@3@@std@@@std@@@std@@@std@@_N@std@@QEAA@AEAV?$_Tree_iterator@V?$_Tree_val@U?$_Tree_simple_types@U?$pair@$$CBVpath@filesystem@std@@V?$weak_ptr@Vfmu@fmi@cse@@@3@@std@@@std@@@std@@@1@$$QEA_N@Z
	??$?0AEBU?$less@V?$basic_string@DU?$char_traits@D@std@@V?$allocator@D@2@@std@@@std@@U_Zero_then_variadic_args_t@1@@?$_Compressed_pair@U?$less@V?$basic_string@DU?$char_traits@D@std@@V?$allocator@D@2@@std@@@std@@V?$_Compressed_pair@V?$allocator@U?$_Tree_node@U?$pair@$$CBV?$basic_string@DU?$char_traits@D@std@@V?$allocator@D@2@@std@@V?$weak_ptr@Vfmu@fmi@cse@@@2@@std@@PEAX@std@@@std@@V?$_Tree_val@U?$_Tree_simple_types@U?$pair@$$CBV?$basic_string@DU?$char_traits@D@std@@V?$allocator@D@2@@std@@V?$weak_ptr@Vfmu@fmi@cse@@@2@@std@@@std@@@2@$00@2@$00@std@@QEAA@U_One_then_variadic_args_t@1@AEBU?$less@V?$basic_string@DU?$char_traits@D@std@@V?$allocator@D@2@@std@@@1@$$QEAU_Zero_then_variadic_args_t@1@@Z
	??$?0AEBU?$less@Vpath@filesystem@std@@@std@@U_Zero_then_variadic_args_t@1@@?$_Compressed_pair@U?$less@Vpath@filesystem@std@@@std@@V?$_Compressed_pair@V?$allocator@U?$_Tree_node@U?$pair@$$CBVpath@filesystem@std@@V?$weak_ptr@Vfmu@fmi@cse@@@3@@std@@PEAX@std@@@std@@V?$_Tree_val@U?$_Tree_simple_types@U?$pair@$$CBVpath@filesystem@std@@V?$weak_ptr@Vfmu@fmi@cse@@@3@@std@@@std@@@2@$00@2@$00@std@@QEAA@U_One_then_variadic_args_t@1@AEBU?$less@Vpath@filesystem@std@@@1@$$QEAU_Zero_then_variadic_args_t@1@@Z
	??$?0AEBV?$allocator@D@std@@$$V@?$_Compressed_pair@V?$allocator@D@std@@V?$_String_val@U?$_Simple_types@D@std@@@2@$00@std@@QEAA@U_One_then_variadic_args_t@1@AEBV?$allocator@D@1@@Z
	??$?0AEBV?$allocator@D@std@@$$V@?$_Compressed_pair@V?$allocator@D@std@@V?$_Vector_val@U?$_Simple_types@D@std@@@2@$00@std@@QEAA@U_One_then_variadic_args_t@1@AEBV?$allocator@D@1@@Z
	??$?0AEBV?$allocator@D@std@@X@?$_String_alloc@U?$_String_base_types@DV?$allocator@D@std@@@std@@@std@@QEAA@AEBV?$allocator@D@1@@Z
	??$?0AEBV?$allocator@D@std@@X@?$_Vector_alloc@U?$_Vec_base_types@DV?$allocator@D@std@@@std@@@std@@QEAA@AEBV?$allocator@D@1@@Z
	??$?0AEBV?$allocator@H@std@@$$V@?$_Compressed_pair@V?$allocator@H@std@@V?$_Vector_val@U?$_Simple_types@H@std@@@2@$00@std@@QEAA@U_One_then_variadic_args_t@1@AEBV?$allocator@H@1@@Z
	??$?0AEBV?$allocator@H@std@@X@?$_Vector_alloc@U?$_Vec_base_types@HV?$allocator@H@std@@@std@@@std@@QEAA@AEBV?$allocator@H@1@@Z
	??$?0AEBV?$allocator@PEBD@std@@$$V@?$_Compressed_pair@V?$allocator@PEBD@std@@V?$_Vector_val@U?$_Simple_types@PEBD@std@@@2@$00@std@@QEAA@U_One_then_variadic_args_t@1@AEBV?$allocator@PEBD@1@@Z
	??$?0AEBV?$allocator@PEBD@std@@X@?$_Vector_alloc@U?$_Vec_base_types@PEBDV?$allocator@PEBD@std@@@std@@@std@@QEAA@AEBV?$allocator@PEBD@1@@Z
	??$?0AEBV?$allocator@U?$pair@$$CBV?$basic_string@DU?$char_traits@D@std@@V?$allocator@D@2@@std@@V?$basic_ptree@V?$basic_string@DU?$char_traits@D@std@@V?$allocator@D@2@@std@@V12@U?$less@V?$basic_string@DU?$char_traits@D@std@@V?$allocator@D@2@@std@@@2@@property_tree@boost@@@std@@@std@@X@?$base_from_member@V?$allocator@U?$sequenced_index_node@U?$ordered_index_node@Unull_augment_policy@detail@multi_index@boost@@U?$index_node_base@U?$pair@$$CBV?$basic_string@DU?$char_traits@D@std@@V?$allocator@D@2@@std@@V?$basic_ptree@V?$basic_string@DU?$char_traits@D@std@@V?$allocator@D@2@@std@@V12@U?$less@V?$basic_string@DU?$char_traits@D@std@@V?$allocator@D@2@@std@@@2@@property_tree@boost@@@std@@V?$allocator@U?$pair@$$CBV?$basic_string@DU?$char_traits@D@std@@V?$allocator@D@2@@std@@V?$basic_ptree@V?$basic_string@DU?$char_traits@D@std@@V?$allocator@D@2@@std@@V12@U?$less@V?$basic_string@DU?$char_traits@D@std@@V?$allocator@D@2@@std@@@2@@property_tree@boost@@@std@@@2@@234@@detail@multi_index@boost@@@detail@multi_index@boost@@@std@@$0A@@boost@@IEAA@AEBV?$allocator@U?$pair@$$CBV?$basic_string@DU?$char_traits@D@std@@V?$allocator@D@2@@std@@V?$basic_ptree@V?$basic_string@DU?$char_traits@D@std@@V?$allocator@D@2@@std@@V12@U?$less@V?$basic_string@DU?$char_traits@D@std@@V?$allocator@D@2@@std@@@2@@property_tree@boost@@@std@@@std@@@Z
	??$?0AEBV?$allocator@U?$sequenced_index_node@U?$ordered_index_node@Unull_augment_policy@detail@multi_index@boost@@U?$index_node_base@U?$pair@$$CBV?$basic_string@DU?$char_traits@D@std@@V?$allocator@D@2@@std@@V?$basic_ptree@V?$basic_string@DU?$char_traits@D@std@@V?$allocator@D@2@@std@@V12@U?$less@V?$basic_string@DU?$char_traits@D@std@@V?$allocator@D@2@@std@@@2@@property_tree@boost@@@std@@V?$allocator@U?$pair@$$CBV?$basic_string@DU?$char_traits@D@std@@V?$allocator@D@2@@std@@V?$basic_ptree@V?$basic_string@DU?$char_traits@D@std@@V?$allocator@D@2@@std@@V12@U?$less@V?$basic_string@DU?$char_traits@D@std@@V?$allocator@D@2@@std@@@2@@property_tree@boost@@@std@@@2@@234@@detail@multi_index@boost@@@detail@multi_index@boost@@@std@@X@?$base_from_member@V?$allocator@U?$sequenced_index_node@U?$ordered_index_node@Unull_augment_policy@detail@multi_index@boost@@U?$index_node_base@U?$pair@$$CBV?$basic_string@DU?$char_traits@D@std@@V?$allocator@D@2@@std@@V?$basic_ptree@V?$basic_string@DU?$char_traits@D@std@@V?$allocator@D@2@@std@@V12@U?$less@V?$basic_string@DU?$char_traits@D@std@@V?$allocator@D@2@@std@@@2@@property_tree@boost@@@std@@V?$allocator@U?$pair@$$CBV?$basic_string@DU?$char_traits@D@std@@V?$allocator@D@2@@std@@V?$basic_ptree@V?$basic_string@DU?$char_traits@D@std@@V?$allocator@D@2@@std@@V12@U?$less@V?$basic_string@DU?$char_traits@D@std@@V?$allocator@D@2@@std@@@2@@property_tree@boost@@@std@@@2@@234@@detail@multi_index@boost@@@detail@multi_index@boost@@@std@@$0A@@boost@@IEAA@AEBV?$allocator@U?$sequenced_index_node@U?$ordered_index_node@Unull_augment_policy@detail@multi_index@boost@@U?$index_node_base@U?$pair@$$CBV?$basic_string@DU?$char_traits@D@std@@V?$allocator@D@2@@std@@V?$basic_ptree@V?$basic_string@DU?$char_traits@D@std@@V?$allocator@D@2@@std@@V12@U?$less@V?$basic_string@DU?$char_traits@D@std@@V?$allocator@D@2@@std@@@2@@property_tree@boost@@@std@@V?$allocator@U?$pair@$$CBV?$basic_string@DU?$char_traits@D@std@@V?$allocator@D@2@@std@@V?$basic_ptree@V?$basic_string@DU?$char_traits@D@std@@V?$allocator@D@2@@std@@V12@U?$less@V?$basic_string@DU?$char_traits@D@std@@V?$allocator@D@2@@std@@@2@@property_tree@boost@@@std@@@2@@234@@detail@multi_index@boost@@@detail@multi_index@boost@@@std@@@Z
	??$?0AEBV?$allocator@_W@std@@$$V@?$_Compressed_pair@V?$allocator@_W@std@@V?$_String_val@U?$_Simple_types@_W@std@@@2@$00@std@@QEAA@U_One_then_variadic_args_t@1@AEBV?$allocator@_W@1@@Z
	??$?0AEBV?$allocator@_W@std@@X@?$_String_alloc@U?$_String_base_types@_WV?$allocator@_W@std@@@std@@@std@@QEAA@AEBV?$allocator@_W@1@@Z
	??$?0AEBV?$basic_string@DU?$char_traits@D@std@@V?$allocator@D@2@@std@@$$Z$$V@?$pair@$$CBV?$basic_string@DU?$char_traits@D@std@@V?$allocator@D@2@@std@@V?$weak_ptr@Vfmu@fmi@cse@@@2@@std@@QEAA@Upiecewise_construct_t@1@V?$tuple@AEBV?$basic_string@DU?$char_traits@D@std@@V?$allocator@D@2@@std@@@1@V?$tuple@$$V@1@@Z
	??$?0AEBV?$basic_string@DU?$char_traits@D@std@@V?$allocator@D@2@@std@@$0A@@?$tuple@AEBV?$basic_string@DU?$char_traits@D@std@@V?$allocator@D@2@@std@@@std@@QEAA@AEBV?$basic_string@DU?$char_traits@D@std@@V?$allocator@D@2@@1@@Z
	??$?0AEBV?$basic_string@DU?$char_traits@D@std@@V?$allocator@D@2@@std@@@?$_Tuple_val@AEBV?$basic_string@DU?$char_traits@D@std@@V?$allocator@D@2@@std@@@std@@QEAA@AEBV?$basic_string@DU?$char_traits@D@std@@V?$allocator@D@2@@1@@Z
	??$?0AEBV?$basic_string@DU?$char_traits@D@std@@V?$allocator@D@2@@std@@V?$basic_ptree@V?$basic_string@DU?$char_traits@D@std@@V?$allocator@D@2@@std@@V12@U?$less@V?$basic_string@DU?$char_traits@D@std@@V?$allocator@D@2@@std@@@2@@property_tree@boost@@$0A@@?$pair@V?$basic_string@DU?$char_traits@D@std@@V?$allocator@D@2@@std@@V?$basic_ptree@V?$basic_string@DU?$char_traits@D@std@@V?$allocator@D@2@@std@@V12@U?$less@V?$basic_string@DU?$char_traits@D@std@@V?$allocator@D@2@@std@@@2@@property_tree@boost@@@std@@QEAA@AEBV?$basic_string@DU?$char_traits@D@std@@V?$allocator@D@2@@1@$$QEAV?$basic_ptree@V?$basic_string@DU?$char_traits@D@std@@V?$allocator@D@2@@std@@V12@U?$less@V?$basic_string@DU?$char_traits@D@std@@V?$allocator@D@2@@std@@@2@@property_tree@boost@@@Z
	??$?0AEBVpath@filesystem@std@@$$Z$$V@?$pair@$$CBVpath@filesystem@std@@V?$weak_ptr@Vfmu@fmi@cse@@@3@@std@@QEAA@Upiecewise_construct_t@1@V?$tuple@AEBVpath@filesystem@std@@@1@V?$tuple@$$V@1@@Z
	??$?0AEBVpath@filesystem@std@@$0A@@?$tuple@AEBVpath@filesystem@std@@@std@@QEAA@AEBVpath@filesystem@1@@Z
	??$?0AEBVpath@filesystem@std@@@?$_Tuple_val@AEBVpath@filesystem@std@@@std@@QEAA@AEBVpath@filesystem@1@@Z
	??$?0D@?$allocator@U_Container_proxy@std@@@std@@QEAA@AEBV?$allocator@D@1@@Z
	??$?0H@?$allocator@U_Container_proxy@std@@@std@@QEAA@AEBV?$allocator@H@1@@Z
	??$?0P6AXPEAUevent@@@Z$0A@@?$unique_ptr@Uevent@@P6AXPEAU1@@Z@std@@QEAA@PEAUevent@@$$QEAP6AX0@Z@Z
	??$?0P6AXPEAUevent@@@ZAEAPEAU0@@?$_Compressed_pair@P6AXPEAUevent@@@ZPEAU1@$0A@@std@@QEAA@U_One_then_variadic_args_t@1@$$QEAP6AXPEAUevent@@@ZAEAPEAU3@@Z
	??$?0P6AXPEAUevent_base@@@Z$0A@@?$unique_ptr@Uevent_base@@P6AXPEAU1@@Z@std@@QEAA@PEAUevent_base@@$$QEAP6AX0@Z@Z
	??$?0P6AXPEAUevent_base@@@ZAEAPEAU0@@?$_Compressed_pair@P6AXPEAUevent_base@@@ZPEAU1@$0A@@std@@QEAA@U_One_then_variadic_args_t@1@$$QEAP6AXPEAUevent_base@@@ZAEAPEAU3@@Z
	??$?0P6AXPEAUfmi_xml_context_t@@@Z$0A@@?$unique_ptr@Ufmi_xml_context_t@@P6AXPEAU1@@Z@std@@QEAA@PEAUfmi_xml_context_t@@$$QEAP6AX0@Z@Z
	??$?0P6AXPEAUfmi_xml_context_t@@@ZAEAPEAU0@@?$_Compressed_pair@P6AXPEAUfmi_xml_context_t@@@ZPEAU1@$0A@@std@@QEAA@U_One_then_variadic_args_t@1@$$QEAP6AXPEAUfmi_xml_context_t@@@ZAEAPEAU3@@Z
	??$?0PEADV?$basic_ptree@V?$basic_string@DU?$char_traits@D@std@@V?$allocator@D@2@@std@@V12@U?$less@V?$basic_string@DU?$char_traits@D@std@@V?$allocator@D@2@@std@@@2@@property_tree@boost@@$0A@@?$pair@$$CBV?$basic_string@DU?$char_traits@D@std@@V?$allocator@D@2@@std@@V?$basic_ptree@V?$basic_string@DU?$char_traits@D@std@@V?$allocator@D@2@@std@@V12@U?$less@V?$basic_string@DU?$char_traits@D@std@@V?$allocator@D@2@@std@@@2@@property_tree@boost@@@std@@QEAA@$$QEAU?$pair@PEADV?$basic_ptree@V?$basic_string@DU?$char_traits@D@std@@V?$allocator@D@2@@std@@V12@U?$less@V?$basic_string@DU?$char_traits@D@std@@V?$allocator@D@2@@std@@@2@@property_tree@boost@@@1@@Z
	??$?0PEADV?$basic_ptree@V?$basic_string@DU?$char_traits@D@std@@V?$allocator@D@2@@std@@V12@U?$less@V?$basic_string@DU?$char_traits@D@std@@V?$allocator@D@2@@std@@@2@@property_tree@boost@@$0A@@?$pair@PEADV?$basic_ptree@V?$basic_string@DU?$char_traits@D@std@@V?$allocator@D@2@@std@@V12@U?$less@V?$basic_string@DU?$char_traits@D@std@@V?$allocator@D@2@@std@@@2@@property_tree@boost@@@std@@QEAA@$$QEAPEAD$$QEAV?$basic_ptree@V?$basic_string@DU?$char_traits@D@std@@V?$allocator@D@2@@std@@V12@U?$less@V?$basic_string@DU?$char_traits@D@std@@V?$allocator@D@2@@std@@@2@@property_tree@boost@@@Z
	??$?0PEAU?$logger_holder@V?$severity_logger_mt@W4level@log@cse@@@sources@v2s_mt_nt6@log@boost@@@aux@sources@v2s_mt_nt6@log@boost@@V?$sp_ms_deleter@U?$logger_holder@V?$severity_logger_mt@W4level@log@cse@@@sources@v2s_mt_nt6@log@boost@@@aux@sources@v2s_mt_nt6@log@boost@@@detail@5@@shared_count@detail@boost@@QEAA@PEAU?$logger_holder@V?$severity_logger_mt@W4level@log@cse@@@sources@v2s_mt_nt6@log@boost@@@aux@sources@v2s_mt_nt6@log@2@U?$sp_inplace_tag@V?$sp_ms_deleter@U?$logger_holder@V?$severity_logger_mt@W4level@log@cse@@@sources@v2s_mt_nt6@log@boost@@@aux@sources@v2s_mt_nt6@log@boost@@@detail@boost@@@12@@Z
	??$?0PEAUevent@@P6AXPEAU0@@Z@?$_Unique_ptr_base@Uevent@@P6AXPEAU1@@Z@std@@QEAA@PEAUevent@@$$QEAP6AX0@Z@Z
	??$?0PEAUevent_base@@P6AXPEAU0@@Z@?$_Unique_ptr_base@Uevent_base@@P6AXPEAU1@@Z@std@@QEAA@PEAUevent_base@@$$QEAP6AX0@Z@Z
	??$?0PEAUfmi_xml_context_t@@P6AXPEAU0@@Z@?$_Unique_ptr_base@Ufmi_xml_context_t@@P6AXPEAU1@@Z@std@@QEAA@PEAUfmi_xml_context_t@@$$QEAP6AX0@Z@Z
	??$?0PEAUjm_callbacks@@@?$_Unique_ptr_base@Ujm_callbacks@@U?$default_delete@Ujm_callbacks@@@std@@@std@@QEAA@PEAUjm_callbacks@@@Z
	??$?0PEAUjm_callbacks@@U?$default_delete@Ujm_callbacks@@@std@@@?$_Unique_ptr_base@Ujm_callbacks@@U?$default_delete@Ujm_callbacks@@@std@@@std@@QEAA@PEAUjm_callbacks@@$$QEAU?$default_delete@Ujm_callbacks@@@1@@Z
	??$?0PEAV_Facet_base@std@@@?$_Unique_ptr_base@V_Facet_base@std@@U?$default_delete@V_Facet_base@std@@@2@@std@@QEAA@PEAV_Facet_base@1@@Z
	??$?0PEAVadditional_path@detail@fmi@cse@@@?$_Unique_ptr_base@Vadditional_path@detail@fmi@cse@@U?$default_delete@Vadditional_path@detail@fmi@cse@@@std@@@std@@QEAA@PEAVadditional_path@detail@fmi@cse@@@Z
	??$?0PEAVtemp_dir@utility@cse@@@?$_Unique_ptr_base@Vtemp_dir@utility@cse@@U?$default_delete@Vtemp_dir@utility@cse@@@std@@@std@@QEAA@PEAVtemp_dir@utility@cse@@@Z
	??$?0PEBD@?$allocator@U_Container_proxy@std@@@std@@QEAA@AEBV?$allocator@PEBD@1@@Z
	??$?0PEB_W$0A@@path@filesystem@std@@QEAA@AEBQEB_WW4format@012@@Z
	??$?0U?$_Tree_node@U?$pair@$$CBV?$basic_string@DU?$char_traits@D@std@@V?$allocator@D@2@@std@@V?$weak_ptr@Vfmu@fmi@cse@@@2@@std@@PEAX@std@@@?$allocator@U_Container_proxy@std@@@std@@QEAA@AEBV?$allocator@U?$_Tree_node@U?$pair@$$CBV?$basic_string@DU?$char_traits@D@std@@V?$allocator@D@2@@std@@V?$weak_ptr@Vfmu@fmi@cse@@@2@@std@@PEAX@std@@@1@@Z
	??$?0U?$_Tree_node@U?$pair@$$CBVpath@filesystem@std@@V?$weak_ptr@Vfmu@fmi@cse@@@3@@std@@PEAX@std@@@?$allocator@U_Container_proxy@std@@@std@@QEAA@AEBV?$allocator@U?$_Tree_node@U?$pair@$$CBVpath@filesystem@std@@V?$weak_ptr@Vfmu@fmi@cse@@@3@@std@@PEAX@std@@@1@@Z
	??$?0U?$default_delete@Ujm_callbacks@@@std@@$0A@@?$unique_ptr@Ujm_callbacks@@U?$default_delete@Ujm_callbacks@@@std@@@std@@QEAA@PEAUjm_callbacks@@@Z
	??$?0U?$default_delete@Ujm_callbacks@@@std@@AEAPEAUjm_callbacks@@@?$_Compressed_pair@U?$default_delete@Ujm_callbacks@@@std@@PEAUjm_callbacks@@$00@std@@QEAA@U_One_then_variadic_args_t@1@$$QEAU?$default_delete@Ujm_callbacks@@@1@AEAPEAUjm_callbacks@@@Z
	??$?0U?$default_delete@V_Facet_base@std@@@std@@$0A@@?$unique_ptr@V_Facet_base@std@@U?$default_delete@V_Facet_base@std@@@2@@std@@QEAA@PEAV_Facet_base@1@@Z
	??$?0U?$default_delete@Vadditional_path@detail@fmi@cse@@@std@@$0A@@?$unique_ptr@Vadditional_path@detail@fmi@cse@@U?$default_delete@Vadditional_path@detail@fmi@cse@@@std@@@std@@QEAA@PEAVadditional_path@detail@fmi@cse@@@Z
	??$?0U?$default_delete@Vadditional_path@detail@fmi@cse@@@std@@$0A@@?$unique_ptr@Vadditional_path@detail@fmi@cse@@U?$default_delete@Vadditional_path@detail@fmi@cse@@@std@@@std@@QEAA@XZ
	??$?0U?$default_delete@Vtemp_dir@utility@cse@@@std@@$0A@@?$unique_ptr@Vtemp_dir@utility@cse@@U?$default_delete@Vtemp_dir@utility@cse@@@std@@@std@@QEAA@PEAVtemp_dir@utility@cse@@@Z
	??$?0U?$default_delete@Vtemp_dir@utility@cse@@@std@@$0A@@?$unique_ptr@Vtemp_dir@utility@cse@@U?$default_delete@Vtemp_dir@utility@cse@@@std@@@std@@QEAA@XZ
	??$?0U?$integral_constant@_N$00@std@@@_Unused_parameter@std@@QEAA@$$QEAU?$integral_constant@_N$00@1@@Z
	??$?0U?$logger_holder@V?$severity_logger_mt@W4level@log@cse@@@sources@v2s_mt_nt6@log@boost@@@aux@sources@v2s_mt_nt6@log@boost@@@?$shared_ptr@U?$logger_holder@V?$severity_logger_mt@W4level@log@cse@@@sources@v2s_mt_nt6@log@boost@@@aux@sources@v2s_mt_nt6@log@boost@@@boost@@QEAA@AEBV01@PEAU?$logger_holder@V?$severity_logger_mt@W4level@log@cse@@@sources@v2s_mt_nt6@log@boost@@@aux@sources@v2s_mt_nt6@log@1@@Z
	??$?0U?$logger_holder@V?$severity_logger_mt@W4level@log@cse@@@sources@v2s_mt_nt6@log@boost@@@aux@sources@v2s_mt_nt6@log@boost@@@?$shared_ptr@Ulogger_holder_base@aux@sources@v2s_mt_nt6@log@boost@@@boost@@QEAA@$$QEAV?$shared_ptr@U?$logger_holder@V?$severity_logger_mt@W4level@log@cse@@@sources@v2s_mt_nt6@log@boost@@@aux@sources@v2s_mt_nt6@log@boost@@@1@Usp_empty@detail@1@@Z
	??$?0U?$logger_holder@V?$severity_logger_mt@W4level@log@cse@@@sources@v2s_mt_nt6@log@boost@@@aux@sources@v2s_mt_nt6@log@boost@@U?$sp_inplace_tag@V?$sp_ms_deleter@U?$logger_holder@V?$severity_logger_mt@W4level@log@cse@@@sources@v2s_mt_nt6@log@boost@@@aux@sources@v2s_mt_nt6@log@boost@@@detail@boost@@@detail@5@@?$shared_ptr@U?$logger_holder@V?$severity_logger_mt@W4level@log@cse@@@sources@v2s_mt_nt6@log@boost@@@aux@sources@v2s_mt_nt6@log@boost@@@boost@@QEAA@PEAU?$logger_holder@V?$severity_logger_mt@W4level@log@cse@@@sources@v2s_mt_nt6@log@boost@@@aux@sources@v2s_mt_nt6@log@1@U?$sp_inplace_tag@V?$sp_ms_deleter@U?$logger_holder@V?$severity_logger_mt@W4level@log@cse@@@sources@v2s_mt_nt6@log@boost@@@aux@sources@v2s_mt_nt6@log@boost@@@detail@boost@@@detail@1@@Z
	??$?0U?$pair@$$CBV?$basic_string@DU?$char_traits@D@std@@V?$allocator@D@2@@std@@V?$basic_ptree@V?$basic_string@DU?$char_traits@D@std@@V?$allocator@D@2@@std@@V12@U?$less@V?$basic_string@DU?$char_traits@D@std@@V?$allocator@D@2@@std@@@2@@property_tree@boost@@@std@@@?$allocator@U?$copy_map_entry@U?$sequenced_index_node@U?$ordered_index_node@Unull_augment_policy@detail@multi_index@boost@@U?$index_node_base@U?$pair@$$CBV?$basic_string@DU?$char_traits@D@std@@V?$allocator@D@2@@std@@V?$basic_ptree@V?$basic_string@DU?$char_traits@D@std@@V?$allocator@D@2@@std@@V12@U?$less@V?$basic_string@DU?$char_traits@D@std@@V?$allocator@D@2@@std@@@2@@property_tree@boost@@@std@@V?$allocator@U?$pair@$$CBV?$basic_string@DU?$char_traits@D@std@@V?$allocator@D@2@@std@@V?$basic_ptree@V?$basic_string@DU?$char_traits@D@std@@V?$allocator@D@2@@std@@V12@U?$less@V?$basic_string@DU?$char_traits@D@std@@V?$allocator@D@2@@std@@@2@@property_tree@boost@@@std@@@2@@234@@detail@multi_index@boost@@@detail@multi_index@boost@@@detail@multi_index@boost@@@std@@QEAA@AEBV?$allocator@U?$pair@$$CBV?$basic_string@DU?$char_traits@D@std@@V?$allocator@D@2@@std@@V?$basic_ptree@V?$basic_string@DU?$char_traits@D@std@@V?$allocator@D@2@@std@@V12@U?$less@V?$basic_string@DU?$char_traits@D@std@@V?$allocator@D@2@@std@@@2@@property_tree@boost@@@std@@@1@@Z
	??$?0U?$pair@$$CBV?$basic_string@DU?$char_traits@D@std@@V?$allocator@D@2@@std@@V?$basic_ptree@V?$basic_string@DU?$char_traits@D@std@@V?$allocator@D@2@@std@@V12@U?$less@V?$basic_string@DU?$char_traits@D@std@@V?$allocator@D@2@@std@@@2@@property_tree@boost@@@std@@@?$allocator@U?$sequenced_index_node@U?$ordered_index_node@Unull_augment_policy@detail@multi_index@boost@@U?$index_node_base@U?$pair@$$CBV?$basic_string@DU?$char_traits@D@std@@V?$allocator@D@2@@std@@V?$basic_ptree@V?$basic_string@DU?$char_traits@D@std@@V?$allocator@D@2@@std@@V12@U?$less@V?$basic_string@DU?$char_traits@D@std@@V?$allocator@D@2@@std@@@2@@property_tree@boost@@@std@@V?$allocator@U?$pair@$$CBV?$basic_string@DU?$char_traits@D@std@@V?$allocator@D@2@@std@@V?$basic_ptree@V?$basic_string@DU?$char_traits@D@std@@V?$allocator@D@2@@std@@V12@U?$less@V?$basic_string@DU?$char_traits@D@std@@V?$allocator@D@2@@std@@@2@@property_tree@boost@@@std@@@2@@234@@detail@multi_index@boost@@@detail@multi_index@boost@@@std@@QEAA@AEBV?$allocator@U?$pair@$$CBV?$basic_string@DU?$char_traits@D@std@@V?$allocator@D@2@@std@@V?$basic_ptree@V?$basic_string@DU?$char_traits@D@std@@V?$allocator@D@2@@std@@V12@U?$less@V?$basic_string@DU?$char_traits@D@std@@V?$allocator@D@2@@std@@@2@@property_tree@boost@@@std@@@1@@Z
	??$?0U?$sequenced_index_node@U?$ordered_index_node@Unull_augment_policy@detail@multi_index@boost@@U?$index_node_base@U?$pair@$$CBV?$basic_string@DU?$char_traits@D@std@@V?$allocator@D@2@@std@@V?$basic_ptree@V?$basic_string@DU?$char_traits@D@std@@V?$allocator@D@2@@std@@V12@U?$less@V?$basic_string@DU?$char_traits@D@std@@V?$allocator@D@2@@std@@@2@@property_tree@boost@@@std@@V?$allocator@U?$pair@$$CBV?$basic_string@DU?$char_traits@D@std@@V?$allocator@D@2@@std@@V?$basic_ptree@V?$basic_string@DU?$char_traits@D@std@@V?$allocator@D@2@@std@@V12@U?$less@V?$basic_string@DU?$char_traits@D@std@@V?$allocator@D@2@@std@@@2@@property_tree@boost@@@std@@@2@@234@@detail@multi_index@boost@@@detail@multi_index@boost@@@?$allocator@U?$pair@$$CBV?$basic_string@DU?$char_traits@D@std@@V?$allocator@D@2@@std@@V?$basic_ptree@V?$basic_string@DU?$char_traits@D@std@@V?$allocator@D@2@@std@@V12@U?$less@V?$basic_string@DU?$char_traits@D@std@@V?$allocator@D@2@@std@@@2@@property_tree@boost@@@std@@@std@@QEAA@AEBV?$allocator@U?$sequenced_index_node@U?$ordered_index_node@Unull_augment_policy@detail@multi_index@boost@@U?$index_node_base@U?$pair@$$CBV?$basic_string@DU?$char_traits@D@std@@V?$allocator@D@2@@std@@V?$basic_ptree@V?$basic_string@DU?$char_traits@D@std@@V?$allocator@D@2@@std@@V12@U?$less@V?$basic_string@DU?$char_traits@D@std@@V?$allocator@D@2@@std@@@2@@property_tree@boost@@@std@@V?$allocator@U?$pair@$$CBV?$basic_string@DU?$char_traits@D@std@@V?$allocator@D@2@@std@@V?$basic_ptree@V?$basic_string@DU?$char_traits@D@std@@V?$allocator@D@2@@std@@V12@U?$less@V?$basic_string@DU?$char_traits@D@std@@V?$allocator@D@2@@std@@@2@@property_tree@boost@@@std@@@2@@234@@detail@multi_index@boost@@@detail@multi_index@boost@@@1@@Z
	??$?0U_Creator@_Dir_enum_impl@filesystem@std@@AEBW4directory_options@23@@?$_Ref_count_obj@U_Dir_enum_impl@filesystem@std@@@std@@QEAA@$$QEAU_Creator@_Dir_enum_impl@filesystem@1@AEBW4directory_options@41@@Z
	??$?0U_Exact_args_t@std@@$0A@@?$tuple@$$V@std@@QEAA@U_Exact_args_t@1@@Z
	??$?0U_Exact_args_t@std@@AEBV?$basic_string@DU?$char_traits@D@std@@V?$allocator@D@2@@1@$$V$0A@@?$tuple@AEBV?$basic_string@DU?$char_traits@D@std@@V?$allocator@D@2@@std@@@std@@QEAA@U_Exact_args_t@1@AEBV?$basic_string@DU?$char_traits@D@std@@V?$allocator@D@2@@1@@Z
	??$?0U_Exact_args_t@std@@AEBVpath@filesystem@1@$$V$0A@@?$tuple@AEBVpath@filesystem@std@@@std@@QEAA@U_Exact_args_t@1@AEBVpath@filesystem@1@@Z
	??$?0U_Exact_args_t@std@@V?$basic_string@DU?$char_traits@D@std@@V?$allocator@D@2@@1@$$V$0A@@?$tuple@$$QEAV?$basic_string@DU?$char_traits@D@std@@V?$allocator@D@2@@std@@@std@@QEAA@U_Exact_args_t@1@$$QEAV?$basic_string@DU?$char_traits@D@std@@V?$allocator@D@2@@1@@Z
	??$?0Ulogger_holder_base@aux@sources@v2s_mt_nt6@log@boost@@@?$shared_ptr@U?$logger_holder@V?$severity_logger_mt@W4level@log@cse@@@sources@v2s_mt_nt6@log@boost@@@aux@sources@v2s_mt_nt6@log@boost@@@boost@@QEAA@AEBV?$shared_ptr@Ulogger_holder_base@aux@sources@v2s_mt_nt6@log@boost@@@1@PEAU?$logger_holder@V?$severity_logger_mt@W4level@log@cse@@@sources@v2s_mt_nt6@log@boost@@@aux@sources@v2s_mt_nt6@log@1@@Z
	??$?0Uvariable_description@cse@@@?$allocator@U_Container_proxy@std@@@std@@QEAA@AEBV?$allocator@Uvariable_description@cse@@@1@@Z
	??$?0V?$_String_iterator@V?$_String_val@U?$_Simple_types@D@std@@@std@@@std@@X@?$basic_string@DU?$char_traits@D@std@@V?$allocator@D@2@@std@@QEAA@V?$_String_iterator@V?$_String_val@U?$_Simple_types@D@std@@@std@@@1@0AEBV?$allocator@D@1@@Z
	??$?0V?$_Tree_iterator@V?$_Tree_val@U?$_Tree_simple_types@U?$pair@$$CBV?$basic_string@DU?$char_traits@D@std@@V?$allocator@D@2@@std@@V?$weak_ptr@Vfmu@fmi@cse@@@2@@std@@@std@@@std@@@std@@_N$0A@@?$pair@V?$_Tree_iterator@V?$_Tree_val@U?$_Tree_simple_types@U?$pair@$$CBV?$basic_string@DU?$char_traits@D@std@@V?$allocator@D@2@@std@@V?$weak_ptr@Vfmu@fmi@cse@@@2@@std@@@std@@@std@@@std@@_N@std@@QEAA@$$QEAV?$_Tree_iterator@V?$_Tree_val@U?$_Tree_simple_types@U?$pair@$$CBV?$basic_string@DU?$char_traits@D@std@@V?$allocator@D@2@@std@@V?$weak_ptr@Vfmu@fmi@cse@@@2@@std@@@std@@@std@@@1@$$QEA_N@Z
	??$?0V?$_Tree_iterator@V?$_Tree_val@U?$_Tree_simple_types@U?$pair@$$CBVpath@filesystem@std@@V?$weak_ptr@Vfmu@fmi@cse@@@3@@std@@@std@@@std@@@std@@_N$0A@@?$pair@V?$_Tree_iterator@V?$_Tree_val@U?$_Tree_simple_types@U?$pair@$$CBVpath@filesystem@std@@V?$weak_ptr@Vfmu@fmi@cse@@@3@@std@@@std@@@std@@@std@@_N@std@@QEAA@$$QEAV?$_Tree_iterator@V?$_Tree_val@U?$_Tree_simple_types@U?$pair@$$CBVpath@filesystem@std@@V?$weak_ptr@Vfmu@fmi@cse@@@3@@std@@@std@@@std@@@1@$$QEA_N@Z
	??$?0V?$allocator@D@std@@$$V@?$_Compressed_pair@V?$allocator@D@std@@V?$_String_val@U?$_Simple_types@D@std@@@2@$00@std@@QEAA@U_One_then_variadic_args_t@1@$$QEAV?$allocator@D@1@@Z
	??$?0V?$allocator@D@std@@X@?$_String_alloc@U?$_String_base_types@DV?$allocator@D@std@@@std@@@std@@QEAA@$$QEAV?$allocator@D@1@@Z
	??$?0V?$allocator@Uvariable_description@cse@@@std@@$$V@?$_Compressed_pair@V?$allocator@Uvariable_description@cse@@@std@@V?$_Vector_val@U?$_Simple_types@Uvariable_description@cse@@@std@@@2@$00@std@@QEAA@U_One_then_variadic_args_t@1@$$QEAV?$allocator@Uvariable_description@cse@@@1@@Z
	??$?0V?$allocator@Uvariable_description@cse@@@std@@X@?$_Vector_alloc@U?$_Vec_base_types@Uvariable_description@cse@@V?$allocator@Uvariable_description@cse@@@std@@@std@@@std@@QEAA@$$QEAV?$allocator@Uvariable_description@cse@@@1@@Z
	??$?0V?$allocator@_W@std@@$$V@?$_Compressed_pair@V?$allocator@_W@std@@V?$_String_val@U?$_Simple_types@_W@std@@@2@$00@std@@QEAA@U_One_then_variadic_args_t@1@$$QEAV?$allocator@_W@1@@Z
	??$?0V?$allocator@_W@std@@X@?$_String_alloc@U?$_String_base_types@_WV?$allocator@_W@std@@@std@@@std@@QEAA@$$QEAV?$allocator@_W@1@@Z
	??$?0V?$basic_ptree@V?$basic_string@DU?$char_traits@D@std@@V?$allocator@D@2@@std@@V12@U?$less@V?$basic_string@DU?$char_traits@D@std@@V?$allocator@D@2@@std@@@2@@property_tree@boost@@@?$optional@AEBV?$basic_ptree@V?$basic_string@DU?$char_traits@D@std@@V?$allocator@D@2@@std@@V12@U?$less@V?$basic_string@DU?$char_traits@D@std@@V?$allocator@D@2@@std@@@2@@property_tree@boost@@@boost@@QEAA@AEAV?$basic_ptree@V?$basic_string@DU?$char_traits@D@std@@V?$allocator@D@2@@std@@V12@U?$less@V?$basic_string@DU?$char_traits@D@std@@V?$allocator@D@2@@std@@@2@@property_tree@1@PEAX@Z
	??$?0V?$basic_string@DU?$char_traits@D@std@@V?$allocator@D@2@@std@@$$V$0A@@?$tuple@$$QEAV?$basic_string@DU?$char_traits@D@std@@V?$allocator@D@2@@std@@@std@@QEAA@$$QEAV?$basic_string@DU?$char_traits@D@std@@V?$allocator@D@2@@1@@Z
	??$?0V?$basic_string@DU?$char_traits@D@std@@V?$allocator@D@2@@std@@$0A@@path@filesystem@std@@QEAA@AEBV?$basic_string@DU?$char_traits@D@std@@V?$allocator@D@2@@2@W4format@012@@Z
	??$?0V?$basic_string@DU?$char_traits@D@std@@V?$allocator@D@2@@std@@@?$_Tuple_val@$$QEAV?$basic_string@DU?$char_traits@D@std@@V?$allocator@D@2@@std@@@std@@QEAA@$$QEAV?$basic_string@DU?$char_traits@D@std@@V?$allocator@D@2@@1@@Z
	??$?0V?$basic_string@DU?$char_traits@D@std@@V?$allocator@D@2@@std@@V?$basic_ptree@V?$basic_string@DU?$char_traits@D@std@@V?$allocator@D@2@@std@@V12@U?$less@V?$basic_string@DU?$char_traits@D@std@@V?$allocator@D@2@@std@@@2@@property_tree@boost@@$0A@@?$pair@$$CBV?$basic_string@DU?$char_traits@D@std@@V?$allocator@D@2@@std@@V?$basic_ptree@V?$basic_string@DU?$char_traits@D@std@@V?$allocator@D@2@@std@@V12@U?$less@V?$basic_string@DU?$char_traits@D@std@@V?$allocator@D@2@@std@@@2@@property_tree@boost@@@std@@QEAA@$$QEAU?$pair@V?$basic_string@DU?$char_traits@D@std@@V?$allocator@D@2@@std@@V?$basic_ptree@V?$basic_string@DU?$char_traits@D@std@@V?$allocator@D@2@@std@@V12@U?$less@V?$basic_string@DU?$char_traits@D@std@@V?$allocator@D@2@@std@@@2@@property_tree@boost@@@1@@Z
	??$?0V?$basic_string_view@DU?$char_traits@D@std@@@std@@X@?$basic_string@DU?$char_traits@D@std@@V?$allocator@D@2@@std@@QEAA@AEBV?$basic_string_view@DU?$char_traits@D@std@@@1@AEBV?$allocator@D@1@@Z
	??$?0V?$basic_string_view@_WU?$char_traits@_W@std@@@std@@$0A@@path@filesystem@std@@QEAA@AEBV?$basic_string_view@_WU?$char_traits@_W@std@@@2@W4format@012@@Z
	??$?0V?$basic_string_view@_WU?$char_traits@_W@std@@@std@@X@?$basic_string@_WU?$char_traits@_W@std@@V?$allocator@_W@2@@std@@QEAA@AEBV?$basic_string_view@_WU?$char_traits@_W@std@@@1@AEBV?$allocator@_W@1@@Z
	??$?0V?$bidir_node_iterator@U?$sequenced_index_node@U?$ordered_index_node@Unull_augment_policy@detail@multi_index@boost@@U?$index_node_base@U?$pair@$$CBV?$basic_string@DU?$char_traits@D@std@@V?$allocator@D@2@@std@@V?$basic_ptree@V?$basic_string@DU?$char_traits@D@std@@V?$allocator@D@2@@std@@V12@U?$less@V?$basic_string@DU?$char_traits@D@std@@V?$allocator@D@2@@std@@@2@@property_tree@boost@@@std@@V?$allocator@U?$pair@$$CBV?$basic_string@DU?$char_traits@D@std@@V?$allocator@D@2@@std@@V?$basic_ptree@V?$basic_string@DU?$char_traits@D@std@@V?$allocator@D@2@@std@@V12@U?$less@V?$basic_string@DU?$char_traits@D@std@@V?$allocator@D@2@@std@@@2@@property_tree@boost@@@std@@@2@@234@@detail@multi_index@boost@@@detail@multi_index@boost@@@detail@multi_index@boost@@AEA_N$0A@@?$pair@V?$bidir_node_iterator@U?$sequenced_index_node@U?$ordered_index_node@Unull_augment_policy@detail@multi_index@boost@@U?$index_node_base@U?$pair@$$CBV?$basic_string@DU?$char_traits@D@std@@V?$allocator@D@2@@std@@V?$basic_ptree@V?$basic_string@DU?$char_traits@D@std@@V?$allocator@D@2@@std@@V12@U?$less@V?$basic_string@DU?$char_traits@D@std@@V?$allocator@D@2@@std@@@2@@property_tree@boost@@@std@@V?$allocator@U?$pair@$$CBV?$basic_string@DU?$char_traits@D@std@@V?$allocator@D@2@@std@@V?$basic_ptree@V?$basic_string@DU?$char_traits@D@std@@V?$allocator@D@2@@std@@V12@U?$less@V?$basic_string@DU?$char_traits@D@std@@V?$allocator@D@2@@std@@@2@@property_tree@boost@@@std@@@2@@234@@detail@multi_index@boost@@@detail@multi_index@boost@@@detail@multi_index@boost@@_N@std@@QEAA@$$QEAV?$bidir_node_iterator@U?$sequenced_index_node@U?$ordered_index_node@Unull_augment_policy@detail@multi_index@boost@@U?$index_node_base@U?$pair@$$CBV?$basic_string@DU?$char_traits@D@std@@V?$allocator@D@2@@std@@V?$basic_ptree@V?$basic_string@DU?$char_traits@D@std@@V?$allocator@D@2@@std@@V12@U?$less@V?$basic_string@DU?$char_traits@D@std@@V?$allocator@D@2@@std@@@2@@property_tree@boost@@@std@@V?$allocator@U?$pair@$$CBV?$basic_string@DU?$char_traits@D@std@@V?$allocator@D@2@@std@@V?$basic_ptree@V?$basic_string@DU?$char_traits@D@std@@V?$allocator@D@2@@std@@V12@U?$less@V?$basic_string@DU?$char_traits@D@std@@V?$allocator@D@2@@std@@@2@@property_tree@boost@@@std@@@2@@234@@detail@multi_index@boost@@@detail@multi_index@boost@@@detail@multi_index@boost@@AEA_N@Z
	??$?0V?$istreambuf_iterator@DU?$char_traits@D@std@@@std@@X@?$vector@DV?$allocator@D@std@@@std@@QEAA@V?$istreambuf_iterator@DU?$char_traits@D@std@@@1@0AEBV?$allocator@D@1@@Z
	??$?0V?$mersenne_twister_engine@I$0CA@$0CHA@$0BIN@$0BP@$0JJAILANP@$0L@$0PPPPPPPP@$06$0JNCMFGIA@$0P@$0OPMGAAAA@$0BC@$0GMAHIJGF@@random@boost@@@?$shared_ptr@V?$mersenne_twister_engine@I$0CA@$0CHA@$0BIN@$0BP@$0JJAILANP@$0L@$0PPPPPPPP@$06$0JNCMFGIA@$0P@$0OPMGAAAA@$0BC@$0GMAHIJGF@@random@boost@@@boost@@QEAA@PEAV?$mersenne_twister_engine@I$0CA@$0CHA@$0BIN@$0BP@$0JJAILANP@$0L@$0PPPPPPPP@$06$0JNCMFGIA@$0P@$0OPMGAAAA@$0BC@$0GMAHIJGF@@random@1@@Z
	??$?0V?$mersenne_twister_engine@I$0CA@$0CHA@$0BIN@$0BP@$0JJAILANP@$0L@$0PPPPPPPP@$06$0JNCMFGIA@$0P@$0OPMGAAAA@$0BC@$0GMAHIJGF@@random@boost@@@shared_count@detail@boost@@QEAA@PEAV?$mersenne_twister_engine@I$0CA@$0CHA@$0BIN@$0BP@$0JJAILANP@$0L@$0PPPPPPPP@$06$0JNCMFGIA@$0P@$0OPMGAAAA@$0BC@$0GMAHIJGF@@random@2@@Z
	??$?0V?$string_path@V?$basic_string@DU?$char_traits@D@std@@V?$allocator@D@2@@std@@U?$id_translator@V?$basic_string@DU?$char_traits@D@std@@V?$allocator@D@2@@std@@@property_tree@boost@@@property_tree@boost@@@any@boost@@QEAA@AEBV?$string_path@V?$basic_string@DU?$char_traits@D@std@@V?$allocator@D@2@@std@@U?$id_translator@V?$basic_string@DU?$char_traits@D@std@@V?$allocator@D@2@@std@@@property_tree@boost@@@property_tree@1@@Z
	??$?0V?$string_path@V?$basic_string@DU?$char_traits@D@std@@V?$allocator@D@2@@std@@U?$id_translator@V?$basic_string@DU?$char_traits@D@std@@V?$allocator@D@2@@std@@@property_tree@boost@@@property_tree@boost@@@ptree_bad_path@property_tree@boost@@QEAA@AEBV?$basic_string@DU?$char_traits@D@std@@V?$allocator@D@2@@std@@AEBV?$string_path@V?$basic_string@DU?$char_traits@D@std@@V?$allocator@D@2@@std@@U?$id_translator@V?$basic_string@DU?$char_traits@D@std@@V?$allocator@D@2@@std@@@property_tree@boost@@@12@@Z
	??$?0V?$tuple@AEBV?$basic_string@DU?$char_traits@D@std@@V?$allocator@D@2@@std@@@std@@V?$tuple@$$V@1@$0A@$$Z$S@?$pair@$$CBV?$basic_string@DU?$char_traits@D@std@@V?$allocator@D@2@@std@@V?$weak_ptr@Vfmu@fmi@cse@@@2@@std@@QEAA@AEAV?$tuple@AEBV?$basic_string@DU?$char_traits@D@std@@V?$allocator@D@2@@std@@@1@AEAV?$tuple@$$V@1@U?$integer_sequence@_K$0A@@1@U?$integer_sequence@_K$S@1@@Z
	??$?0V?$tuple@AEBVpath@filesystem@std@@@std@@V?$tuple@$$V@1@$0A@$$Z$S@?$pair@$$CBVpath@filesystem@std@@V?$weak_ptr@Vfmu@fmi@cse@@@3@@std@@QEAA@AEAV?$tuple@AEBVpath@filesystem@std@@@1@AEAV?$tuple@$$V@1@U?$integer_sequence@_K$0A@@1@U?$integer_sequence@_K$S@1@@Z
	??$?0V?$weak_ptr@Vslave_instance@v1@fmi@cse@@@std@@@?$allocator@U_Container_proxy@std@@@std@@QEAA@AEBV?$allocator@V?$weak_ptr@Vslave_instance@v1@fmi@cse@@@std@@@1@@Z
	??$?0V?$weak_ptr@Vslave_instance@v2@fmi@cse@@@std@@@?$allocator@U_Container_proxy@std@@@std@@QEAA@AEBV?$allocator@V?$weak_ptr@Vslave_instance@v2@fmi@cse@@@std@@@1@@Z
	??$?0Vfmu@fmi@cse@@$0A@@?$weak_ptr@Vfmu@fmi@cse@@@std@@QEAA@AEBV?$shared_ptr@Vfmu@fmi@cse@@@1@@Z
	??$?0Vfmu@fmi@cse@@@?$shared_ptr@Vfmu@v1@fmi@cse@@@std@@QEAA@AEBV?$shared_ptr@Vfmu@fmi@cse@@@1@PEAVfmu@v1@fmi@cse@@@Z
	??$?0Vfmu@fmi@cse@@@?$shared_ptr@Vfmu@v2@fmi@cse@@@std@@QEAA@AEBV?$shared_ptr@Vfmu@fmi@cse@@@1@PEAVfmu@v2@fmi@cse@@@Z
	??$?0Vfmu@v1@fmi@cse@@$0A@@?$shared_ptr@$$CBVfmu@v1@fmi@cse@@@std@@QEAA@AEBV?$weak_ptr@Vfmu@v1@fmi@cse@@@1@@Z
	??$?0Vfmu@v1@fmi@cse@@$0A@@?$shared_ptr@Vfmu@fmi@cse@@@std@@QEAA@PEAVfmu@v1@fmi@cse@@@Z
	??$?0Vfmu@v1@fmi@cse@@$0A@@?$shared_ptr@Vfmu@v1@fmi@cse@@@std@@QEAA@AEBV?$weak_ptr@Vfmu@v1@fmi@cse@@@1@@Z
	??$?0Vfmu@v1@fmi@cse@@$0A@@?$weak_ptr@Vfmu@v1@fmi@cse@@@std@@QEAA@AEBV?$shared_ptr@Vfmu@v1@fmi@cse@@@1@@Z
	??$?0Vfmu@v1@fmi@cse@@@?$shared_ptr@Vfmu@fmi@cse@@@std@@QEAA@AEBV?$shared_ptr@Vfmu@v1@fmi@cse@@@1@PEAVfmu@fmi@cse@@@Z
	??$?0Vfmu@v2@fmi@cse@@$0A@@?$shared_ptr@$$CBVfmu@v2@fmi@cse@@@std@@QEAA@AEBV?$weak_ptr@Vfmu@v2@fmi@cse@@@1@@Z
	??$?0Vfmu@v2@fmi@cse@@$0A@@?$shared_ptr@Vfmu@fmi@cse@@@std@@QEAA@PEAVfmu@v2@fmi@cse@@@Z
	??$?0Vfmu@v2@fmi@cse@@$0A@@?$shared_ptr@Vfmu@v2@fmi@cse@@@std@@QEAA@AEBV?$weak_ptr@Vfmu@v2@fmi@cse@@@1@@Z
	??$?0Vfmu@v2@fmi@cse@@$0A@@?$weak_ptr@Vfmu@v2@fmi@cse@@@std@@QEAA@AEBV?$shared_ptr@Vfmu@v2@fmi@cse@@@1@@Z
	??$?0Vfmu@v2@fmi@cse@@@?$shared_ptr@Vfmu@fmi@cse@@@std@@QEAA@AEBV?$shared_ptr@Vfmu@v2@fmi@cse@@@1@PEAVfmu@fmi@cse@@@Z
	??$?0Vimporter@fmi@cse@@$0A@@?$shared_ptr@Vimporter@fmi@cse@@@std@@QEAA@AEBV?$weak_ptr@Vimporter@fmi@cse@@@1@@Z
	??$?0Vimporter@fmi@cse@@$0A@@?$shared_ptr@Vimporter@fmi@cse@@@std@@QEAA@PEAVimporter@fmi@cse@@@Z
	??$?0Vimporter@fmi@cse@@$0A@@?$weak_ptr@Vimporter@fmi@cse@@@std@@QEAA@AEBV?$shared_ptr@Vimporter@fmi@cse@@@1@@Z
	??$?0Vimporter@fmi@cse@@@?$shared_ptr@Vimporter@fmi@cse@@@std@@QEAA@AEBV01@PEAVimporter@fmi@cse@@@Z
	??$?0Vslave_instance@v1@fmi@cse@@$0A@@?$shared_ptr@Vslave_instance@v1@fmi@cse@@@std@@QEAA@PEAVslave_instance@v1@fmi@cse@@@Z
	??$?0Vslave_instance@v1@fmi@cse@@$0A@@?$weak_ptr@Vslave_instance@v1@fmi@cse@@@std@@QEAA@AEBV?$shared_ptr@Vslave_instance@v1@fmi@cse@@@1@@Z
	??$?0Vslave_instance@v1@fmi@cse@@@?$shared_ptr@Vslave_instance@fmi@cse@@@std@@QEAA@AEBV?$shared_ptr@Vslave_instance@v1@fmi@cse@@@1@PEAVslave_instance@fmi@cse@@@Z
	??$?0Vslave_instance@v2@fmi@cse@@$0A@@?$shared_ptr@Vslave_instance@v2@fmi@cse@@@std@@QEAA@PEAVslave_instance@v2@fmi@cse@@@Z
	??$?0Vslave_instance@v2@fmi@cse@@$0A@@?$weak_ptr@Vslave_instance@v2@fmi@cse@@@std@@QEAA@AEBV?$shared_ptr@Vslave_instance@v2@fmi@cse@@@1@@Z
	??$?0Vslave_instance@v2@fmi@cse@@@?$shared_ptr@Vslave_instance@fmi@cse@@@std@@QEAA@AEBV?$shared_ptr@Vslave_instance@v2@fmi@cse@@@1@PEAVslave_instance@fmi@cse@@@Z
	??$?0_JX@?$duration@_JU?$ratio@$00$0JIJGIA@@std@@@chrono@std@@QEAA@AEB_J@Z
	??$?0_W@?$allocator@U_Container_proxy@std@@@std@@QEAA@AEBV?$allocator@_W@1@@Z
	??$?4Vfmu@fmi@cse@@@?$weak_ptr@Vfmu@fmi@cse@@@std@@QEAAAEAV01@AEBV?$shared_ptr@Vfmu@fmi@cse@@@1@@Z
	??$?4Vfmu@v1@fmi@cse@@@?$weak_ptr@Vfmu@v1@fmi@cse@@@std@@QEAAAEAV01@AEBV?$shared_ptr@Vfmu@v1@fmi@cse@@@1@@Z
	??$?4Vfmu@v2@fmi@cse@@@?$weak_ptr@Vfmu@v2@fmi@cse@@@std@@QEAAAEAV01@AEBV?$shared_ptr@Vfmu@v2@fmi@cse@@@1@@Z
	??$?4Vimporter@fmi@cse@@@?$weak_ptr@Vimporter@fmi@cse@@@std@@QEAAAEAV01@AEBV?$shared_ptr@Vimporter@fmi@cse@@@1@@Z
	??$?4W4level@log@cse@@@?$keyword@Useverity@tag@keywords@v2s_mt_nt6@log@boost@@@parameter@boost@@QEBA?BU?$tagged_argument@Useverity@tag@keywords@v2s_mt_nt6@log@boost@@$$CBW4level@5cse@@@aux@12@AEBW4level@log@cse@@@Z
	??$?4W4level@log@cse@@@?$keyword@Useverity@tag@keywords@v2s_mt_nt6@log@boost@@@parameter@boost@@QEBA?BU?$tagged_argument@Useverity@tag@keywords@v2s_mt_nt6@log@boost@@W4level@5cse@@@aux@12@AEAW4level@log@cse@@@Z
	??$?6DU?$char_traits@D@std@@V?$allocator@D@1@@std@@YAAEAV?$basic_ostream@DU?$char_traits@D@std@@@0@AEAV10@AEBV?$basic_string@DU?$char_traits@D@std@@V?$allocator@D@2@@0@@Z
	??$?6DU?$char_traits@D@std@@V?$allocator@D@1@@v2s_mt_nt6@log@boost@@YAAEAV?$basic_formatting_ostream@DU?$char_traits@D@std@@V?$allocator@D@2@@012@AEAV3012@AEAV?$basic_string@DU?$char_traits@D@std@@V?$allocator@D@2@@std@@@Z
	??$?6DU?$char_traits@D@std@@_J@std@@YAAEAV?$basic_ostream@DU?$char_traits@D@std@@@0@AEAV10@AEBU?$_Smanip@_J@0@@Z
	??$?6U?$char_traits@D@std@@@std@@YAAEAV?$basic_ostream@DU?$char_traits@D@std@@@0@AEAV10@D@Z
	??$?6U?$char_traits@D@std@@@std@@YAAEAV?$basic_ostream@DU?$char_traits@D@std@@@0@AEAV10@PEBD@Z
	??$?6V?$basic_record_ostream@D@v2s_mt_nt6@log@boost@@V?$basic_string@DU?$char_traits@D@std@@V?$allocator@D@2@@std@@@v2s_mt_nt6@log@boost@@YAAEAV?$basic_record_ostream@D@012@AEAV3012@AEAV?$basic_string@DU?$char_traits@D@std@@V?$allocator@D@2@@std@@@Z
	??$?8DD@std@@YA_NAEBV?$allocator@D@0@0@Z
	??$?8DU?$char_traits@D@std@@@std@@YA_NAEBV?$istreambuf_iterator@DU?$char_traits@D@std@@@0@0@Z
	??$?8DU?$char_traits@D@std@@V?$allocator@D@1@@std@@YA_NAEBV?$basic_string@DU?$char_traits@D@std@@V?$allocator@D@2@@0@0@Z
	??$?8DU?$char_traits@D@std@@V?$allocator@D@1@@std@@YA_NAEBV?$basic_string@DU?$char_traits@D@std@@V?$allocator@D@2@@0@QEBD@Z
	??$?8U?$ordered_index_node@Unull_augment_policy@detail@multi_index@boost@@U?$index_node_base@U?$pair@$$CBV?$basic_string@DU?$char_traits@D@std@@V?$allocator@D@2@@std@@V?$basic_ptree@V?$basic_string@DU?$char_traits@D@std@@V?$allocator@D@2@@std@@V12@U?$less@V?$basic_string@DU?$char_traits@D@std@@V?$allocator@D@2@@std@@@2@@property_tree@boost@@@std@@V?$allocator@U?$pair@$$CBV?$basic_string@DU?$char_traits@D@std@@V?$allocator@D@2@@std@@V?$basic_ptree@V?$basic_string@DU?$char_traits@D@std@@V?$allocator@D@2@@std@@V12@U?$less@V?$basic_string@DU?$char_traits@D@std@@V?$allocator@D@2@@std@@@2@@property_tree@boost@@@std@@@2@@234@@detail@multi_index@boost@@@detail@multi_index@boost@@YA_NAEBV?$bidir_node_iterator@U?$ordered_index_node@Unull_augment_policy@detail@multi_index@boost@@U?$index_node_base@U?$pair@$$CBV?$basic_string@DU?$char_traits@D@std@@V?$allocator@D@2@@std@@V?$basic_ptree@V?$basic_string@DU?$char_traits@D@std@@V?$allocator@D@2@@std@@V12@U?$less@V?$basic_string@DU?$char_traits@D@std@@V?$allocator@D@2@@std@@@2@@property_tree@boost@@@std@@V?$allocator@U?$pair@$$CBV?$basic_string@DU?$char_traits@D@std@@V?$allocator@D@2@@std@@V?$basic_ptree@V?$basic_string@DU?$char_traits@D@std@@V?$allocator@D@2@@std@@V12@U?$less@V?$basic_string@DU?$char_traits@D@std@@V?$allocator@D@2@@std@@@2@@property_tree@boost@@@std@@@2@@234@@detail@multi_index@boost@@@012@0@Z
	??$?8U?$sequenced_index_node@U?$ordered_index_node@Unull_augment_policy@detail@multi_index@boost@@U?$index_node_base@U?$pair@$$CBV?$basic_string@DU?$char_traits@D@std@@V?$allocator@D@2@@std@@V?$basic_ptree@V?$basic_string@DU?$char_traits@D@std@@V?$allocator@D@2@@std@@V12@U?$less@V?$basic_string@DU?$char_traits@D@std@@V?$allocator@D@2@@std@@@2@@property_tree@boost@@@std@@V?$allocator@U?$pair@$$CBV?$basic_string@DU?$char_traits@D@std@@V?$allocator@D@2@@std@@V?$basic_ptree@V?$basic_string@DU?$char_traits@D@std@@V?$allocator@D@2@@std@@V12@U?$less@V?$basic_string@DU?$char_traits@D@std@@V?$allocator@D@2@@std@@@2@@property_tree@boost@@@std@@@2@@234@@detail@multi_index@boost@@@detail@multi_index@boost@@@detail@multi_index@boost@@YA_NAEBV?$bidir_node_iterator@U?$sequenced_index_node@U?$ordered_index_node@Unull_augment_policy@detail@multi_index@boost@@U?$index_node_base@U?$pair@$$CBV?$basic_string@DU?$char_traits@D@std@@V?$allocator@D@2@@std@@V?$basic_ptree@V?$basic_string@DU?$char_traits@D@std@@V?$allocator@D@2@@std@@V12@U?$less@V?$basic_string@DU?$char_traits@D@std@@V?$allocator@D@2@@std@@@2@@property_tree@boost@@@std@@V?$allocator@U?$pair@$$CBV?$basic_string@DU?$char_traits@D@std@@V?$allocator@D@2@@std@@V?$basic_ptree@V?$basic_string@DU?$char_traits@D@std@@V?$allocator@D@2@@std@@V12@U?$less@V?$basic_string@DU?$char_traits@D@std@@V?$allocator@D@2@@std@@@2@@property_tree@boost@@@std@@@2@@234@@detail@multi_index@boost@@@detail@multi_index@boost@@@012@0@Z
	??$?8Ufmi_xml_context_t@@P6AXPEAU0@@Z@std@@YA_NAEBV?$unique_ptr@Ufmi_xml_context_t@@P6AXPEAU1@@Z@0@$$T@Z
	??$?8V?$generator_iterator@Vseed_rng@detail@uuids@boost@@@detail@uuids@boost@@IUsingle_pass_traversal_tag@iterators@3@AEBI_JV0123@IU453@AEBI_J@iterators@boost@@YA_NAEBV?$iterator_facade@V?$generator_iterator@Vseed_rng@detail@uuids@boost@@@detail@uuids@boost@@IUsingle_pass_traversal_tag@iterators@4@AEBI_J@01@0@Z
	??$?8Vconst_assoc_iterator@?$basic_ptree@V?$basic_string@DU?$char_traits@D@std@@V?$allocator@D@2@@std@@V12@U?$less@V?$basic_string@DU?$char_traits@D@std@@V?$allocator@D@2@@std@@@2@@property_tree@boost@@U?$pair@$$CBV?$basic_string@DU?$char_traits@D@std@@V?$allocator@D@2@@std@@V?$basic_ptree@V?$basic_string@DU?$char_traits@D@std@@V?$allocator@D@2@@std@@V12@U?$less@V?$basic_string@DU?$char_traits@D@std@@V?$allocator@D@2@@std@@@2@@property_tree@boost@@@std@@Ubidirectional_traversal_tag@iterators@3@AEBU45@_JV0123@U45@U673@AEBU45@_J@iterators@boost@@YA_NAEBV?$iterator_facade@Vconst_assoc_iterator@?$basic_ptree@V?$basic_string@DU?$char_traits@D@std@@V?$allocator@D@2@@std@@V12@U?$less@V?$basic_string@DU?$char_traits@D@std@@V?$allocator@D@2@@std@@@2@@property_tree@boost@@U?$pair@$$CBV?$basic_string@DU?$char_traits@D@std@@V?$allocator@D@2@@std@@V?$basic_ptree@V?$basic_string@DU?$char_traits@D@std@@V?$allocator@D@2@@std@@V12@U?$less@V?$basic_string@DU?$char_traits@D@std@@V?$allocator@D@2@@std@@@2@@property_tree@boost@@@std@@Ubidirectional_traversal_tag@iterators@4@AEBU56@_J@01@0@Z
	??$?8Vstl_type_index@typeindex@boost@@Vtype_info@@@typeindex@boost@@YA_NAEBV?$type_index_facade@Vstl_type_index@typeindex@boost@@Vtype_info@@@01@0@Z
	??$?9DD@std@@YA_NAEBV?$allocator@D@0@0@Z
	??$?9DU?$char_traits@D@std@@@std@@YA_NAEBV?$istreambuf_iterator@DU?$char_traits@D@std@@@0@0@Z
	??$?9U_Dir_enum_impl@filesystem@std@@U012@@std@@YA_NAEBV?$shared_ptr@U_Dir_enum_impl@filesystem@std@@@0@0@Z
	??$?9_W_W@std@@YA_NAEBV?$allocator@_W@0@0@Z
	??$?AW4level@log@cse@@@?$tagged_argument@Useverity@tag@keywords@v2s_mt_nt6@log@boost@@$$CBW4level@5cse@@@aux@parameter@boost@@QEBAAEBW4level@log@cse@@AEBU?$default_@Useverity@tag@keywords@v2s_mt_nt6@log@boost@@W4level@5cse@@@123@@Z
	??$?AW4level@log@cse@@@?$tagged_argument@Useverity@tag@keywords@v2s_mt_nt6@log@boost@@W4level@5cse@@@aux@parameter@boost@@QEBAAEAW4level@log@cse@@AEBU?$default_@Useverity@tag@keywords@v2s_mt_nt6@log@boost@@W4level@5cse@@@123@@Z
	??$?CU_Dir_enum_impl@filesystem@std@@$0A@@?$shared_ptr@U_Dir_enum_impl@filesystem@std@@@std@@QEBAPEAU_Dir_enum_impl@filesystem@1@XZ
	??$?CVfmu@fmi@cse@@$0A@@?$shared_ptr@Vfmu@fmi@cse@@@std@@QEBAPEAVfmu@fmi@cse@@XZ
	??$?CVfmu@v1@fmi@cse@@$0A@@?$shared_ptr@Vfmu@v1@fmi@cse@@@std@@QEBAPEAVfmu@v1@fmi@cse@@XZ
	??$?CVfmu@v2@fmi@cse@@$0A@@?$shared_ptr@Vfmu@v2@fmi@cse@@@std@@QEBAPEAVfmu@v2@fmi@cse@@XZ
	??$?CVimporter@fmi@cse@@$0A@@?$shared_ptr@Vimporter@fmi@cse@@@std@@QEBAPEAVimporter@fmi@cse@@XZ
	??$?D$$CBUmodel_description@cse@@$0A@@?$shared_ptr@$$CBUmodel_description@cse@@@std@@QEBAAEBUmodel_description@cse@@XZ
	??$?DU_Dir_enum_impl@filesystem@std@@$0A@@?$shared_ptr@U_Dir_enum_impl@filesystem@std@@@std@@QEBAAEAU_Dir_enum_impl@filesystem@1@XZ
	??$?EV?$generator_iterator@Vseed_rng@detail@uuids@boost@@@detail@uuids@boost@@IUsingle_pass_traversal_tag@iterators@3@AEBI_J@iterators@boost@@YA?AV?$postfix_increment_proxy@V?$generator_iterator@Vseed_rng@detail@uuids@boost@@@detail@uuids@boost@@@detail@01@AEAV?$iterator_facade@V?$generator_iterator@Vseed_rng@detail@uuids@boost@@@detail@uuids@boost@@IUsingle_pass_traversal_tag@iterators@4@AEBI_J@01@H@Z
	??$?HDU?$char_traits@D@std@@V?$allocator@D@1@@std@@YA?AV?$basic_string@DU?$char_traits@D@std@@V?$allocator@D@2@@0@$$QEAV10@0@Z
	??$?HDU?$char_traits@D@std@@V?$allocator@D@1@@std@@YA?AV?$basic_string@DU?$char_traits@D@std@@V?$allocator@D@2@@0@$$QEAV10@AEBV10@@Z
	??$?HDU?$char_traits@D@std@@V?$allocator@D@1@@std@@YA?AV?$basic_string@DU?$char_traits@D@std@@V?$allocator@D@2@@0@$$QEAV10@QEBD@Z
	??$?HDU?$char_traits@D@std@@V?$allocator@D@1@@std@@YA?AV?$basic_string@DU?$char_traits@D@std@@V?$allocator@D@2@@0@AEBV10@QEBD@Z
	??$?HDU?$char_traits@D@std@@V?$allocator@D@1@@std@@YA?AV?$basic_string@DU?$char_traits@D@std@@V?$allocator@D@2@@0@QEBD$$QEAV10@@Z
	??$?HDU?$char_traits@D@std@@V?$allocator@D@1@@std@@YA?AV?$basic_string@DU?$char_traits@D@std@@V?$allocator@D@2@@0@QEBDAEBV10@@Z
	??$?H_WU?$char_traits@_W@std@@V?$allocator@_W@1@@std@@YA?AV?$basic_string@_WU?$char_traits@_W@std@@V?$allocator@_W@2@@0@$$QEAV10@0@Z
	??$?H_WU?$char_traits@_W@std@@V?$allocator@_W@1@@std@@YA?AV?$basic_string@_WU?$char_traits@_W@std@@V?$allocator@_W@2@@0@AEBV10@0@Z
	??$?MDU?$char_traits@D@std@@V?$allocator@D@1@@std@@YA_NAEBV?$basic_string@DU?$char_traits@D@std@@V?$allocator@D@2@@0@0@Z
	??$?MU_File_time_clock@filesystem@std@@V?$duration@_JU?$ratio@$00$0JIJGIA@@std@@@chrono@2@V342@@chrono@std@@YA_NAEBV?$time_point@U_File_time_clock@filesystem@std@@V?$duration@_JU?$ratio@$00$0JIJGIA@@std@@@chrono@3@@01@0@Z
	??$?M_JU?$ratio@$00$0JIJGIA@@std@@_JU01@@chrono@std@@YA_NAEBV?$duration@_JU?$ratio@$00$0JIJGIA@@std@@@01@0@Z
	??$?OU_File_time_clock@filesystem@std@@V?$duration@_JU?$ratio@$00$0JIJGIA@@std@@@chrono@2@V342@@chrono@std@@YA_NAEBV?$time_point@U_File_time_clock@filesystem@std@@V?$duration@_JU?$ratio@$00$0JIJGIA@@std@@@chrono@3@@01@0@Z
	??$?RAEAU?$copy_map_entry@U?$sequenced_index_node@U?$ordered_index_node@Unull_augment_policy@detail@multi_index@boost@@U?$index_node_base@U?$pair@$$CBV?$basic_string@DU?$char_traits@D@std@@V?$allocator@D@2@@std@@V?$basic_ptree@V?$basic_string@DU?$char_traits@D@std@@V?$allocator@D@2@@std@@V12@U?$less@V?$basic_string@DU?$char_traits@D@std@@V?$allocator@D@2@@std@@@2@@property_tree@boost@@@std@@V?$allocator@U?$pair@$$CBV?$basic_string@DU?$char_traits@D@std@@V?$allocator@D@2@@std@@V?$basic_ptree@V?$basic_string@DU?$char_traits@D@std@@V?$allocator@D@2@@std@@V12@U?$less@V?$basic_string@DU?$char_traits@D@std@@V?$allocator@D@2@@std@@@2@@property_tree@boost@@@std@@@2@@234@@detail@multi_index@boost@@@detail@multi_index@boost@@@detail@multi_index@boost@@AEAU0123@@?$less@X@std@@QEBA_NAEAU?$copy_map_entry@U?$sequenced_index_node@U?$ordered_index_node@Unull_augment_policy@detail@multi_index@boost@@U?$index_node_base@U?$pair@$$CBV?$basic_string@DU?$char_traits@D@std@@V?$allocator@D@2@@std@@V?$basic_ptree@V?$basic_string@DU?$char_traits@D@std@@V?$allocator@D@2@@std@@V12@U?$less@V?$basic_string@DU?$char_traits@D@std@@V?$allocator@D@2@@std@@@2@@property_tree@boost@@@std@@V?$allocator@U?$pair@$$CBV?$basic_string@DU?$char_traits@D@std@@V?$allocator@D@2@@std@@V?$basic_ptree@V?$basic_string@DU?$char_traits@D@std@@V?$allocator@D@2@@std@@V12@U?$less@V?$basic_string@DU?$char_traits@D@std@@V?$allocator@D@2@@std@@@2@@property_tree@boost@@@std@@@2@@234@@detail@multi_index@boost@@@detail@multi_index@boost@@@detail@multi_index@boost@@0@Z
	??$?RAEBU?$copy_map_entry@U?$sequenced_index_node@U?$ordered_index_node@Unull_augment_policy@detail@multi_index@boost@@U?$index_node_base@U?$pair@$$CBV?$basic_string@DU?$char_traits@D@std@@V?$allocator@D@2@@std@@V?$basic_ptree@V?$basic_string@DU?$char_traits@D@std@@V?$allocator@D@2@@std@@V12@U?$less@V?$basic_string@DU?$char_traits@D@std@@V?$allocator@D@2@@std@@@2@@property_tree@boost@@@std@@V?$allocator@U?$pair@$$CBV?$basic_string@DU?$char_traits@D@std@@V?$allocator@D@2@@std@@V?$basic_ptree@V?$basic_string@DU?$char_traits@D@std@@V?$allocator@D@2@@std@@V12@U?$less@V?$basic_string@DU?$char_traits@D@std@@V?$allocator@D@2@@std@@@2@@property_tree@boost@@@std@@@2@@234@@detail@multi_index@boost@@@detail@multi_index@boost@@@detail@multi_index@boost@@AEBU0123@@?$less@X@std@@QEBA_NAEBU?$copy_map_entry@U?$sequenced_index_node@U?$ordered_index_node@Unull_augment_policy@detail@multi_index@boost@@U?$index_node_base@U?$pair@$$CBV?$basic_string@DU?$char_traits@D@std@@V?$allocator@D@2@@std@@V?$basic_ptree@V?$basic_string@DU?$char_traits@D@std@@V?$allocator@D@2@@std@@V12@U?$less@V?$basic_string@DU?$char_traits@D@std@@V?$allocator@D@2@@std@@@2@@property_tree@boost@@@std@@V?$allocator@U?$pair@$$CBV?$basic_string@DU?$char_traits@D@std@@V?$allocator@D@2@@std@@V?$basic_ptree@V?$basic_string@DU?$char_traits@D@std@@V?$allocator@D@2@@std@@V12@U?$less@V?$basic_string@DU?$char_traits@D@std@@V?$allocator@D@2@@std@@@2@@property_tree@boost@@@std@@@2@@234@@detail@multi_index@boost@@@detail@multi_index@boost@@@detail@multi_index@boost@@0@Z
	??$?RD@is_classifiedF@detail@algorithm@boost@@QEBA_ND@Z
	??$?RV?$mersenne_twister_engine@I$0CA@$0CHA@$0BIN@$0BP@$0JJAILANP@$0L@$0PPPPPPPP@$06$0JNCMFGIA@$0P@$0OPMGAAAA@$0BC@$0GMAHIJGF@@random@boost@@@?$uniform_int@K@boost@@QEBAKAEAV?$mersenne_twister_engine@I$0CA@$0CHA@$0BIN@$0BP@$0JJAILANP@$0L@$0PPPPPPPP@$06$0JNCMFGIA@$0P@$0OPMGAAAA@$0BC@$0GMAHIJGF@@random@1@@Z
	??$?RV?$mersenne_twister_engine@I$0CA@$0CHA@$0BIN@$0BP@$0JJAILANP@$0L@$0PPPPPPPP@$06$0JNCMFGIA@$0P@$0OPMGAAAA@$0BC@$0GMAHIJGF@@random@boost@@@?$uniform_int_distribution@K@random@boost@@QEBAKAEAV?$mersenne_twister_engine@I$0CA@$0CHA@$0BIN@$0BP@$0JJAILANP@$0L@$0PPPPPPPP@$06$0JNCMFGIA@$0P@$0OPMGAAAA@$0BC@$0GMAHIJGF@@12@@Z
	??$?UW4level@log@cse@@@?$keyword@Useverity@tag@keywords@v2s_mt_nt6@log@boost@@@parameter@boost@@QEBA?AU?$default_@Useverity@tag@keywords@v2s_mt_nt6@log@boost@@W4level@5cse@@@aux@12@AEAW4level@log@cse@@@Z
	??$?YV?$basic_string_view@DU?$char_traits@D@std@@@std@@X@?$basic_string@DU?$char_traits@D@std@@V?$allocator@D@2@@std@@QEAAAEAV01@AEBV?$basic_string_view@DU?$char_traits@D@std@@@1@@Z
	??$?_0V?$basic_string_view@_WU?$char_traits@_W@std@@@std@@$0A@@path@filesystem@std@@QEAAAEAV012@AEBV?$basic_string_view@_WU?$char_traits@_W@std@@@2@@Z
	??$_Adl_verify_range@PEADPEAD@std@@YAXAEBQEAD0@Z
	??$_Adl_verify_range@PEAU?$copy_map_entry@U?$sequenced_index_node@U?$ordered_index_node@Unull_augment_policy@detail@multi_index@boost@@U?$index_node_base@U?$pair@$$CBV?$basic_string@DU?$char_traits@D@std@@V?$allocator@D@2@@std@@V?$basic_ptree@V?$basic_string@DU?$char_traits@D@std@@V?$allocator@D@2@@std@@V12@U?$less@V?$basic_string@DU?$char_traits@D@std@@V?$allocator@D@2@@std@@@2@@property_tree@boost@@@std@@V?$allocator@U?$pair@$$CBV?$basic_string@DU?$char_traits@D@std@@V?$allocator@D@2@@std@@V?$basic_ptree@V?$basic_string@DU?$char_traits@D@std@@V?$allocator@D@2@@std@@V12@U?$less@V?$basic_string@DU?$char_traits@D@std@@V?$allocator@D@2@@std@@@2@@property_tree@boost@@@std@@@2@@234@@detail@multi_index@boost@@@detail@multi_index@boost@@@detail@multi_index@boost@@PEAU1234@@std@@YAXAEBQEAU?$copy_map_entry@U?$sequenced_index_node@U?$ordered_index_node@Unull_augment_policy@detail@multi_index@boost@@U?$index_node_base@U?$pair@$$CBV?$basic_string@DU?$char_traits@D@std@@V?$allocator@D@2@@std@@V?$basic_ptree@V?$basic_string@DU?$char_traits@D@std@@V?$allocator@D@2@@std@@V12@U?$less@V?$basic_string@DU?$char_traits@D@std@@V?$allocator@D@2@@std@@@2@@property_tree@boost@@@std@@V?$allocator@U?$pair@$$CBV?$basic_string@DU?$char_traits@D@std@@V?$allocator@D@2@@std@@V?$basic_ptree@V?$basic_string@DU?$char_traits@D@std@@V?$allocator@D@2@@std@@V12@U?$less@V?$basic_string@DU?$char_traits@D@std@@V?$allocator@D@2@@std@@@2@@property_tree@boost@@@std@@@2@@234@@detail@multi_index@boost@@@detail@multi_index@boost@@@detail@multi_index@boost@@0@Z
	??$_Adl_verify_range@PEAV?$weak_ptr@Vslave_instance@v1@fmi@cse@@@std@@PEAV12@@std@@YAXAEBQEAV?$weak_ptr@Vslave_instance@v1@fmi@cse@@@0@0@Z
	??$_Adl_verify_range@PEAV?$weak_ptr@Vslave_instance@v2@fmi@cse@@@std@@PEAV12@@std@@YAXAEBQEAV?$weak_ptr@Vslave_instance@v2@fmi@cse@@@0@0@Z
	??$_Adl_verify_range@PEBU?$copy_map_entry@U?$sequenced_index_node@U?$ordered_index_node@Unull_augment_policy@detail@multi_index@boost@@U?$index_node_base@U?$pair@$$CBV?$basic_string@DU?$char_traits@D@std@@V?$allocator@D@2@@std@@V?$basic_ptree@V?$basic_string@DU?$char_traits@D@std@@V?$allocator@D@2@@std@@V12@U?$less@V?$basic_string@DU?$char_traits@D@std@@V?$allocator@D@2@@std@@@2@@property_tree@boost@@@std@@V?$allocator@U?$pair@$$CBV?$basic_string@DU?$char_traits@D@std@@V?$allocator@D@2@@std@@V?$basic_ptree@V?$basic_string@DU?$char_traits@D@std@@V?$allocator@D@2@@std@@V12@U?$less@V?$basic_string@DU?$char_traits@D@std@@V?$allocator@D@2@@std@@@2@@property_tree@boost@@@std@@@2@@234@@detail@multi_index@boost@@@detail@multi_index@boost@@@detail@multi_index@boost@@PEBU1234@@std@@YAXAEBQEBU?$copy_map_entry@U?$sequenced_index_node@U?$ordered_index_node@Unull_augment_policy@detail@multi_index@boost@@U?$index_node_base@U?$pair@$$CBV?$basic_string@DU?$char_traits@D@std@@V?$allocator@D@2@@std@@V?$basic_ptree@V?$basic_string@DU?$char_traits@D@std@@V?$allocator@D@2@@std@@V12@U?$less@V?$basic_string@DU?$char_traits@D@std@@V?$allocator@D@2@@std@@@2@@property_tree@boost@@@std@@V?$allocator@U?$pair@$$CBV?$basic_string@DU?$char_traits@D@std@@V?$allocator@D@2@@std@@V?$basic_ptree@V?$basic_string@DU?$char_traits@D@std@@V?$allocator@D@2@@std@@V12@U?$less@V?$basic_string@DU?$char_traits@D@std@@V?$allocator@D@2@@std@@@2@@property_tree@boost@@@std@@@2@@234@@detail@multi_index@boost@@@detail@multi_index@boost@@@detail@multi_index@boost@@0@Z
	??$_Adl_verify_range@PEB_WPEB_W@std@@YAXAEBQEB_W0@Z
	??$_Adl_verify_range@V?$_String_const_iterator@V?$_String_val@U?$_Simple_types@D@std@@@std@@@std@@V12@@std@@YAXAEBV?$_String_const_iterator@V?$_String_val@U?$_Simple_types@D@std@@@std@@@0@0@Z
	??$_Adl_verify_range@V?$_String_iterator@V?$_String_val@U?$_Simple_types@D@std@@@std@@@std@@V12@@std@@YAXAEBV?$_String_iterator@V?$_String_val@U?$_Simple_types@D@std@@@std@@@0@0@Z
	??$_Adl_verify_range@V?$_Vector_iterator@V?$_Vector_val@U?$_Simple_types@V?$weak_ptr@Vslave_instance@v1@fmi@cse@@@std@@@std@@@std@@@std@@V12@@std@@YAXAEBV?$_Vector_iterator@V?$_Vector_val@U?$_Simple_types@V?$weak_ptr@Vslave_instance@v1@fmi@cse@@@std@@@std@@@std@@@0@0@Z
	??$_Adl_verify_range@V?$_Vector_iterator@V?$_Vector_val@U?$_Simple_types@V?$weak_ptr@Vslave_instance@v2@fmi@cse@@@std@@@std@@@std@@@std@@V12@@std@@YAXAEBV?$_Vector_iterator@V?$_Vector_val@U?$_Simple_types@V?$weak_ptr@Vslave_instance@v2@fmi@cse@@@std@@@std@@@std@@@0@0@Z
	??$_Adl_verify_range@V?$istreambuf_iterator@DU?$char_traits@D@std@@@std@@V12@@std@@YAXAEBV?$istreambuf_iterator@DU?$char_traits@D@std@@@0@0@Z
	??$_Advance1@PEBU?$copy_map_entry@U?$sequenced_index_node@U?$ordered_index_node@Unull_augment_policy@detail@multi_index@boost@@U?$index_node_base@U?$pair@$$CBV?$basic_string@DU?$char_traits@D@std@@V?$allocator@D@2@@std@@V?$basic_ptree@V?$basic_string@DU?$char_traits@D@std@@V?$allocator@D@2@@std@@V12@U?$less@V?$basic_string@DU?$char_traits@D@std@@V?$allocator@D@2@@std@@@2@@property_tree@boost@@@std@@V?$allocator@U?$pair@$$CBV?$basic_string@DU?$char_traits@D@std@@V?$allocator@D@2@@std@@V?$basic_ptree@V?$basic_string@DU?$char_traits@D@std@@V?$allocator@D@2@@std@@V12@U?$less@V?$basic_string@DU?$char_traits@D@std@@V?$allocator@D@2@@std@@@2@@property_tree@boost@@@std@@@2@@234@@detail@multi_index@boost@@@detail@multi_index@boost@@@detail@multi_index@boost@@_J@std@@YAXAEAPEBU?$copy_map_entry@U?$sequenced_index_node@U?$ordered_index_node@Unull_augment_policy@detail@multi_index@boost@@U?$index_node_base@U?$pair@$$CBV?$basic_string@DU?$char_traits@D@std@@V?$allocator@D@2@@std@@V?$basic_ptree@V?$basic_string@DU?$char_traits@D@std@@V?$allocator@D@2@@std@@V12@U?$less@V?$basic_string@DU?$char_traits@D@std@@V?$allocator@D@2@@std@@@2@@property_tree@boost@@@std@@V?$allocator@U?$pair@$$CBV?$basic_string@DU?$char_traits@D@std@@V?$allocator@D@2@@std@@V?$basic_ptree@V?$basic_string@DU?$char_traits@D@std@@V?$allocator@D@2@@std@@V12@U?$less@V?$basic_string@DU?$char_traits@D@std@@V?$allocator@D@2@@std@@@2@@property_tree@boost@@@std@@@2@@234@@detail@multi_index@boost@@@detail@multi_index@boost@@@detail@multi_index@boost@@_JUrandom_access_iterator_tag@0@@Z
	??$_Advance1@V?$_String_iterator@V?$_String_val@U?$_Simple_types@D@std@@@std@@@std@@_J@std@@YAXAEAV?$_String_iterator@V?$_String_val@U?$_Simple_types@D@std@@@std@@@0@_JUrandom_access_iterator_tag@0@@Z
	??$_Alias_construct_from@$$CBVfmu@v1@fmi@cse@@@?$_Ptr_base@$$CBUmodel_description@cse@@@std@@IEAAXAEBV?$shared_ptr@$$CBVfmu@v1@fmi@cse@@@1@PEBUmodel_description@cse@@@Z
	??$_Alias_construct_from@$$CBVfmu@v2@fmi@cse@@@?$_Ptr_base@$$CBUmodel_description@cse@@@std@@IEAAXAEBV?$shared_ptr@$$CBVfmu@v2@fmi@cse@@@1@PEBUmodel_description@cse@@@Z
	??$_Alias_construct_from@Vfmu@fmi@cse@@@?$_Ptr_base@Vfmu@v1@fmi@cse@@@std@@IEAAXAEBV?$shared_ptr@Vfmu@fmi@cse@@@1@PEAVfmu@v1@fmi@cse@@@Z
	??$_Alias_construct_from@Vfmu@fmi@cse@@@?$_Ptr_base@Vfmu@v2@fmi@cse@@@std@@IEAAXAEBV?$shared_ptr@Vfmu@fmi@cse@@@1@PEAVfmu@v2@fmi@cse@@@Z
	??$_Alias_construct_from@Vfmu@v1@fmi@cse@@@?$_Ptr_base@Vfmu@fmi@cse@@@std@@IEAAXAEBV?$shared_ptr@Vfmu@v1@fmi@cse@@@1@PEAVfmu@fmi@cse@@@Z
	??$_Alias_construct_from@Vfmu@v2@fmi@cse@@@?$_Ptr_base@Vfmu@fmi@cse@@@std@@IEAAXAEBV?$shared_ptr@Vfmu@v2@fmi@cse@@@1@PEAVfmu@fmi@cse@@@Z
	??$_Alias_construct_from@Vimporter@fmi@cse@@@?$_Ptr_base@Vimporter@fmi@cse@@@std@@IEAAXAEBV?$shared_ptr@Vimporter@fmi@cse@@@1@PEAVimporter@fmi@cse@@@Z
	??$_Alias_construct_from@Vslave_instance@v1@fmi@cse@@@?$_Ptr_base@Vslave_instance@fmi@cse@@@std@@IEAAXAEBV?$shared_ptr@Vslave_instance@v1@fmi@cse@@@1@PEAVslave_instance@fmi@cse@@@Z
	??$_Alias_construct_from@Vslave_instance@v2@fmi@cse@@@?$_Ptr_base@Vslave_instance@fmi@cse@@@std@@IEAAXAEBV?$shared_ptr@Vslave_instance@v2@fmi@cse@@@1@PEAVslave_instance@fmi@cse@@@Z
	??$_Allocate@$0BA@U_Default_allocate_traits@std@@$0A@@std@@YAPEAX_K@Z
	??$_Allocate_manually_vector_aligned@U_Default_allocate_traits@std@@@std@@YAPEAX_K@Z
	??$_Buy_if_not_node@AEAU?$pair@$$CBV?$basic_string@DU?$char_traits@D@std@@V?$allocator@D@2@@std@@V?$weak_ptr@Vfmu@fmi@cse@@@2@@std@@@?$_Tree@V?$_Tmap_traits@V?$basic_string@DU?$char_traits@D@std@@V?$allocator@D@2@@std@@V?$weak_ptr@Vfmu@fmi@cse@@@2@U?$less@V?$basic_string@DU?$char_traits@D@std@@V?$allocator@D@2@@std@@@2@V?$allocator@U?$pair@$$CBV?$basic_string@DU?$char_traits@D@std@@V?$allocator@D@2@@std@@V?$weak_ptr@Vfmu@fmi@cse@@@2@@std@@@2@$0A@@std@@@std@@IEAAPEAU?$_Tree_node@U?$pair@$$CBV?$basic_string@DU?$char_traits@D@std@@V?$allocator@D@2@@std@@V?$weak_ptr@Vfmu@fmi@cse@@@2@@std@@PEAX@1@PEAU21@AEAU?$pair@$$CBV?$basic_string@DU?$char_traits@D@std@@V?$allocator@D@2@@std@@V?$weak_ptr@Vfmu@fmi@cse@@@2@@1@@Z
	??$_Buy_if_not_node@AEAU?$pair@$$CBVpath@filesystem@std@@V?$weak_ptr@Vfmu@fmi@cse@@@3@@std@@@?$_Tree@V?$_Tmap_traits@Vpath@filesystem@std@@V?$weak_ptr@Vfmu@fmi@cse@@@3@U?$less@Vpath@filesystem@std@@@3@V?$allocator@U?$pair@$$CBVpath@filesystem@std@@V?$weak_ptr@Vfmu@fmi@cse@@@3@@std@@@3@$0A@@std@@@std@@IEAAPEAU?$_Tree_node@U?$pair@$$CBVpath@filesystem@std@@V?$weak_ptr@Vfmu@fmi@cse@@@3@@std@@PEAX@1@PEAU21@AEAU?$pair@$$CBVpath@filesystem@std@@V?$weak_ptr@Vfmu@fmi@cse@@@3@@1@@Z
	??$_Buynode@AEBUpiecewise_construct_t@std@@V?$tuple@AEBV?$basic_string@DU?$char_traits@D@std@@V?$allocator@D@2@@std@@@2@V?$tuple@$$V@2@@?$_Tree_comp_alloc@V?$_Tmap_traits@V?$basic_string@DU?$char_traits@D@std@@V?$allocator@D@2@@std@@V?$weak_ptr@Vfmu@fmi@cse@@@2@U?$less@V?$basic_string@DU?$char_traits@D@std@@V?$allocator@D@2@@std@@@2@V?$allocator@U?$pair@$$CBV?$basic_string@DU?$char_traits@D@std@@V?$allocator@D@2@@std@@V?$weak_ptr@Vfmu@fmi@cse@@@2@@std@@@2@$0A@@std@@@std@@QEAAPEAU?$_Tree_node@U?$pair@$$CBV?$basic_string@DU?$char_traits@D@std@@V?$allocator@D@2@@std@@V?$weak_ptr@Vfmu@fmi@cse@@@2@@std@@PEAX@1@AEBUpiecewise_construct_t@1@$$QEAV?$tuple@AEBV?$basic_string@DU?$char_traits@D@std@@V?$allocator@D@2@@std@@@1@$$QEAV?$tuple@$$V@1@@Z
	??$_Buynode@AEBUpiecewise_construct_t@std@@V?$tuple@AEBVpath@filesystem@std@@@2@V?$tuple@$$V@2@@?$_Tree_comp_alloc@V?$_Tmap_traits@Vpath@filesystem@std@@V?$weak_ptr@Vfmu@fmi@cse@@@3@U?$less@Vpath@filesystem@std@@@3@V?$allocator@U?$pair@$$CBVpath@filesystem@std@@V?$weak_ptr@Vfmu@fmi@cse@@@3@@std@@@3@$0A@@std@@@std@@QEAAPEAU?$_Tree_node@U?$pair@$$CBVpath@filesystem@std@@V?$weak_ptr@Vfmu@fmi@cse@@@3@@std@@PEAX@1@AEBUpiecewise_construct_t@1@$$QEAV?$tuple@AEBVpath@filesystem@std@@@1@$$QEAV?$tuple@$$V@1@@Z
	??$_Const_cast@$$CBD@std@@YAPEADPEBD@Z
	??$_Const_cast@$$CBV?$weak_ptr@Vslave_instance@v1@fmi@cse@@@std@@@std@@YAPEAV?$weak_ptr@Vslave_instance@v1@fmi@cse@@@0@PEBV10@@Z
	??$_Const_cast@$$CBV?$weak_ptr@Vslave_instance@v2@fmi@cse@@@std@@@std@@YAPEAV?$weak_ptr@Vslave_instance@v2@fmi@cse@@@0@PEBV10@@Z
	??$_Construct_from_weak@Vfmu@fmi@cse@@@?$_Ptr_base@Vfmu@fmi@cse@@@std@@IEAA_NAEBV?$weak_ptr@Vfmu@fmi@cse@@@1@@Z
	??$_Construct_from_weak@Vfmu@v1@fmi@cse@@@?$_Ptr_base@$$CBVfmu@v1@fmi@cse@@@std@@IEAA_NAEBV?$weak_ptr@Vfmu@v1@fmi@cse@@@1@@Z
	??$_Construct_from_weak@Vfmu@v1@fmi@cse@@@?$_Ptr_base@Vfmu@v1@fmi@cse@@@std@@IEAA_NAEBV?$weak_ptr@Vfmu@v1@fmi@cse@@@1@@Z
	??$_Construct_from_weak@Vfmu@v2@fmi@cse@@@?$_Ptr_base@$$CBVfmu@v2@fmi@cse@@@std@@IEAA_NAEBV?$weak_ptr@Vfmu@v2@fmi@cse@@@1@@Z
	??$_Construct_from_weak@Vfmu@v2@fmi@cse@@@?$_Ptr_base@Vfmu@v2@fmi@cse@@@std@@IEAA_NAEBV?$weak_ptr@Vfmu@v2@fmi@cse@@@1@@Z
	??$_Construct_from_weak@Vimporter@fmi@cse@@@?$_Ptr_base@Vimporter@fmi@cse@@@std@@IEAA_NAEBV?$weak_ptr@Vimporter@fmi@cse@@@1@@Z
	??$_Convert_Source_to_wide@$$BY03DU_Normal_conversion@filesystem@std@@@filesystem@std@@YA?AV?$basic_string@_WU?$char_traits@_W@std@@V?$allocator@_W@2@@1@AEAY03$$CBDU_Normal_conversion@01@@Z
	??$_Convert_Source_to_wide@$$BY08_WU_Normal_conversion@filesystem@std@@@filesystem@std@@YA?AV?$basic_string@_WU?$char_traits@_W@std@@V?$allocator@_W@2@@1@AEAY08$$CB_WU_Normal_conversion@01@@Z
	??$_Convert_Source_to_wide@$$BY0BF@DU_Normal_conversion@filesystem@std@@@filesystem@std@@YA?AV?$basic_string@_WU?$char_traits@_W@std@@V?$allocator@_W@2@@1@AEAY0BF@$$CBDU_Normal_conversion@01@@Z
	??$_Convert_Source_to_wide@PEB_WU_Normal_conversion@filesystem@std@@@filesystem@std@@YA?AV?$basic_string@_WU?$char_traits@_W@std@@V?$allocator@_W@2@@1@AEBQEB_WU_Normal_conversion@01@@Z
	??$_Convert_Source_to_wide@V?$basic_string@DU?$char_traits@D@std@@V?$allocator@D@2@@std@@U_Normal_conversion@filesystem@2@@filesystem@std@@YA?AV?$basic_string@_WU?$char_traits@_W@std@@V?$allocator@_W@2@@1@AEBV?$basic_string@DU?$char_traits@D@std@@V?$allocator@D@2@@1@U_Normal_conversion@01@@Z
	??$_Convert_Source_to_wide@V?$basic_string_view@_WU?$char_traits@_W@std@@@std@@U_Normal_conversion@filesystem@2@@filesystem@std@@YA?AV?$basic_string@_WU?$char_traits@_W@std@@V?$allocator@_W@2@@1@AEBV?$basic_string_view@_WU?$char_traits@_W@std@@@1@U_Normal_conversion@01@@Z
	??$_Convert_size@_K@std@@YA_K_K@Z
	??$_Convert_stringoid_to_wide@U_Normal_conversion@filesystem@std@@@filesystem@std@@YA?AV?$basic_string@_WU?$char_traits@_W@std@@V?$allocator@_W@2@@1@V?$basic_string_view@DU?$char_traits@D@std@@@1@U_Normal_conversion@01@@Z
	??$_Convert_stringoid_to_wide@U_Normal_conversion@filesystem@std@@@filesystem@std@@YA?AV?$basic_string@_WU?$char_traits@_W@std@@V?$allocator@_W@2@@1@V?$basic_string_view@_WU?$char_traits@_W@std@@@1@U_Normal_conversion@01@@Z
	??$_Convert_wide_to@DU?$char_traits@D@std@@V?$allocator@D@2@@filesystem@std@@YA?AV?$basic_string@DU?$char_traits@D@std@@V?$allocator@D@2@@1@V?$basic_string_view@_WU?$char_traits@_W@std@@@1@AEBV?$allocator@D@1@@Z
	??$_Convert_wide_to_narrow@U?$char_traits@D@std@@V?$allocator@D@2@@filesystem@std@@YA?AV?$basic_string@DU?$char_traits@D@std@@V?$allocator@D@2@@1@W4__std_code_page@@V?$basic_string_view@_WU?$char_traits@_W@std@@@1@AEBV?$allocator@D@1@@Z
	??$_Copy_backward_memmove@PEAU?$copy_map_entry@U?$sequenced_index_node@U?$ordered_index_node@Unull_augment_policy@detail@multi_index@boost@@U?$index_node_base@U?$pair@$$CBV?$basic_string@DU?$char_traits@D@std@@V?$allocator@D@2@@std@@V?$basic_ptree@V?$basic_string@DU?$char_traits@D@std@@V?$allocator@D@2@@std@@V12@U?$less@V?$basic_string@DU?$char_traits@D@std@@V?$allocator@D@2@@std@@@2@@property_tree@boost@@@std@@V?$allocator@U?$pair@$$CBV?$basic_string@DU?$char_traits@D@std@@V?$allocator@D@2@@std@@V?$basic_ptree@V?$basic_string@DU?$char_traits@D@std@@V?$allocator@D@2@@std@@V12@U?$less@V?$basic_string@DU?$char_traits@D@std@@V?$allocator@D@2@@std@@@2@@property_tree@boost@@@std@@@2@@234@@detail@multi_index@boost@@@detail@multi_index@boost@@@detail@multi_index@boost@@PEAU1234@@std@@YAPEAU?$copy_map_entry@U?$sequenced_index_node@U?$ordered_index_node@Unull_augment_policy@detail@multi_index@boost@@U?$index_node_base@U?$pair@$$CBV?$basic_string@DU?$char_traits@D@std@@V?$allocator@D@2@@std@@V?$basic_ptree@V?$basic_string@DU?$char_traits@D@std@@V?$allocator@D@2@@std@@V12@U?$less@V?$basic_string@DU?$char_traits@D@std@@V?$allocator@D@2@@std@@@2@@property_tree@boost@@@std@@V?$allocator@U?$pair@$$CBV?$basic_string@DU?$char_traits@D@std@@V?$allocator@D@2@@std@@V?$basic_ptree@V?$basic_string@DU?$char_traits@D@std@@V?$allocator@D@2@@std@@V12@U?$less@V?$basic_string@DU?$char_traits@D@std@@V?$allocator@D@2@@std@@@2@@property_tree@boost@@@std@@@2@@234@@detail@multi_index@boost@@@detail@multi_index@boost@@@detail@multi_index@boost@@PEAU1234@00@Z
	??$_Copy_construct_from@Vfmu@v1@fmi@cse@@@?$_Ptr_base@Vfmu@v1@fmi@cse@@@std@@IEAAXAEBV?$shared_ptr@Vfmu@v1@fmi@cse@@@1@@Z
	??$_Copy_construct_from@Vfmu@v2@fmi@cse@@@?$_Ptr_base@Vfmu@v2@fmi@cse@@@std@@IEAAXAEBV?$shared_ptr@Vfmu@v2@fmi@cse@@@1@@Z
	??$_Copy_construct_from@Vimporter@fmi@cse@@@?$_Ptr_base@Vimporter@fmi@cse@@@std@@IEAAXAEBV?$shared_ptr@Vimporter@fmi@cse@@@1@@Z
	??$_Copy_memmove@PEADPEAD@std@@YAPEADPEAD00@Z
	??$_Deallocate@$0BA@$0A@@std@@YAXPEAX_K@Z
	??$_Deallocate_plain@V?$allocator@U_Container_proxy@std@@@std@@$0A@@std@@YAXAEAV?$allocator@U_Container_proxy@std@@@0@QEAU_Container_proxy@0@@Z
	??$_Debug_lt_pred@AEAU?$less@V?$basic_string@DU?$char_traits@D@std@@V?$allocator@D@2@@std@@@std@@AEBV?$basic_string@DU?$char_traits@D@std@@V?$allocator@D@2@@2@AEBV32@@std@@YA_NAEAU?$less@V?$basic_string@DU?$char_traits@D@std@@V?$allocator@D@2@@std@@@0@AEBV?$basic_string@DU?$char_traits@D@std@@V?$allocator@D@2@@0@1@Z
	??$_Debug_lt_pred@AEAU?$less@Vpath@filesystem@std@@@std@@AEBVpath@filesystem@2@AEBV342@@std@@YA_NAEAU?$less@Vpath@filesystem@std@@@0@AEBVpath@filesystem@0@1@Z
	??$_Debug_lt_pred@AEAU?$less@X@std@@AEAU?$copy_map_entry@U?$sequenced_index_node@U?$ordered_index_node@Unull_augment_policy@detail@multi_index@boost@@U?$index_node_base@U?$pair@$$CBV?$basic_string@DU?$char_traits@D@std@@V?$allocator@D@2@@std@@V?$basic_ptree@V?$basic_string@DU?$char_traits@D@std@@V?$allocator@D@2@@std@@V12@U?$less@V?$basic_string@DU?$char_traits@D@std@@V?$allocator@D@2@@std@@@2@@property_tree@boost@@@std@@V?$allocator@U?$pair@$$CBV?$basic_string@DU?$char_traits@D@std@@V?$allocator@D@2@@std@@V?$basic_ptree@V?$basic_string@DU?$char_traits@D@std@@V?$allocator@D@2@@std@@V12@U?$less@V?$basic_string@DU?$char_traits@D@std@@V?$allocator@D@2@@std@@@2@@property_tree@boost@@@std@@@2@@234@@detail@multi_index@boost@@@detail@multi_index@boost@@@detail@multi_index@boost@@AEAU3456@@std@@YA_NAEAU?$less@X@0@AEAU?$copy_map_entry@U?$sequenced_index_node@U?$ordered_index_node@Unull_augment_policy@detail@multi_index@boost@@U?$index_node_base@U?$pair@$$CBV?$basic_string@DU?$char_traits@D@std@@V?$allocator@D@2@@std@@V?$basic_ptree@V?$basic_string@DU?$char_traits@D@std@@V?$allocator@D@2@@std@@V12@U?$less@V?$basic_string@DU?$char_traits@D@std@@V?$allocator@D@2@@std@@@2@@property_tree@boost@@@std@@V?$allocator@U?$pair@$$CBV?$basic_string@DU?$char_traits@D@std@@V?$allocator@D@2@@std@@V?$basic_ptree@V?$basic_string@DU?$char_traits@D@std@@V?$allocator@D@2@@std@@V12@U?$less@V?$basic_string@DU?$char_traits@D@std@@V?$allocator@D@2@@std@@@2@@property_tree@boost@@@std@@@2@@234@@detail@multi_index@boost@@@detail@multi_index@boost@@@detail@multi_index@boost@@1@Z
	??$_Debug_lt_pred@AEBU?$less@V?$basic_string@DU?$char_traits@D@std@@V?$allocator@D@2@@std@@@std@@AEBV?$basic_string@DU?$char_traits@D@std@@V?$allocator@D@2@@2@AEBV32@@std@@YA_NAEBU?$less@V?$basic_string@DU?$char_traits@D@std@@V?$allocator@D@2@@std@@@0@AEBV?$basic_string@DU?$char_traits@D@std@@V?$allocator@D@2@@0@1@Z
	??$_Debug_lt_pred@AEBU?$less@Vpath@filesystem@std@@@std@@AEBVpath@filesystem@2@AEBV342@@std@@YA_NAEBU?$less@Vpath@filesystem@std@@@0@AEBVpath@filesystem@0@1@Z
	??$_Destroy_range1@V?$allocator@D@std@@@std@@YAXPEAD0AEAV?$allocator@D@0@U?$integral_constant@_N$00@0@@Z
	??$_Destroy_range1@V?$allocator@H@std@@@std@@YAXPEAH0AEAV?$allocator@H@0@U?$integral_constant@_N$00@0@@Z
	??$_Destroy_range1@V?$allocator@PEBD@std@@@std@@YAXPEAPEBD0AEAV?$allocator@PEBD@0@U?$integral_constant@_N$00@0@@Z
	??$_Destroy_range1@V?$allocator@Uvariable_description@cse@@@std@@@std@@YAXPEAUvariable_description@cse@@0AEAV?$allocator@Uvariable_description@cse@@@0@U?$integral_constant@_N$0A@@0@@Z
	??$_Destroy_range1@V?$allocator@V?$weak_ptr@Vslave_instance@v1@fmi@cse@@@std@@@std@@@std@@YAXPEAV?$weak_ptr@Vslave_instance@v1@fmi@cse@@@0@0AEAV?$allocator@V?$weak_ptr@Vslave_instance@v1@fmi@cse@@@std@@@0@U?$integral_constant@_N$0A@@0@@Z
	??$_Destroy_range1@V?$allocator@V?$weak_ptr@Vslave_instance@v2@fmi@cse@@@std@@@std@@@std@@YAXPEAV?$weak_ptr@Vslave_instance@v2@fmi@cse@@@0@0AEAV?$allocator@V?$weak_ptr@Vslave_instance@v2@fmi@cse@@@std@@@0@U?$integral_constant@_N$0A@@0@@Z
	??$_Destroy_range@V?$allocator@D@std@@@std@@YAXPEAD0AEAV?$allocator@D@0@@Z
	??$_Destroy_range@V?$allocator@H@std@@@std@@YAXPEAH0AEAV?$allocator@H@0@@Z
	??$_Destroy_range@V?$allocator@PEBD@std@@@std@@YAXPEAPEBD0AEAV?$allocator@PEBD@0@@Z
	??$_Destroy_range@V?$allocator@Uvariable_description@cse@@@std@@@std@@YAXPEAUvariable_description@cse@@0AEAV?$allocator@Uvariable_description@cse@@@0@@Z
	??$_Destroy_range@V?$allocator@V?$weak_ptr@Vslave_instance@v1@fmi@cse@@@std@@@std@@@std@@YAXPEAV?$weak_ptr@Vslave_instance@v1@fmi@cse@@@0@0AEAV?$allocator@V?$weak_ptr@Vslave_instance@v1@fmi@cse@@@std@@@0@@Z
	??$_Destroy_range@V?$allocator@V?$weak_ptr@Vslave_instance@v2@fmi@cse@@@std@@@std@@@std@@YAXPEAV?$weak_ptr@Vslave_instance@v2@fmi@cse@@@0@0AEAV?$allocator@V?$weak_ptr@Vslave_instance@v2@fmi@cse@@@std@@@0@@Z
	??$_Distance1@PEBU?$copy_map_entry@U?$sequenced_index_node@U?$ordered_index_node@Unull_augment_policy@detail@multi_index@boost@@U?$index_node_base@U?$pair@$$CBV?$basic_string@DU?$char_traits@D@std@@V?$allocator@D@2@@std@@V?$basic_ptree@V?$basic_string@DU?$char_traits@D@std@@V?$allocator@D@2@@std@@V12@U?$less@V?$basic_string@DU?$char_traits@D@std@@V?$allocator@D@2@@std@@@2@@property_tree@boost@@@std@@V?$allocator@U?$pair@$$CBV?$basic_string@DU?$char_traits@D@std@@V?$allocator@D@2@@std@@V?$basic_ptree@V?$basic_string@DU?$char_traits@D@std@@V?$allocator@D@2@@std@@V12@U?$less@V?$basic_string@DU?$char_traits@D@std@@V?$allocator@D@2@@std@@@2@@property_tree@boost@@@std@@@2@@234@@detail@multi_index@boost@@@detail@multi_index@boost@@@detail@multi_index@boost@@@std@@YA_JPEBU?$copy_map_entry@U?$sequenced_index_node@U?$ordered_index_node@Unull_augment_policy@detail@multi_index@boost@@U?$index_node_base@U?$pair@$$CBV?$basic_string@DU?$char_traits@D@std@@V?$allocator@D@2@@std@@V?$basic_ptree@V?$basic_string@DU?$char_traits@D@std@@V?$allocator@D@2@@std@@V12@U?$less@V?$basic_string@DU?$char_traits@D@std@@V?$allocator@D@2@@std@@@2@@property_tree@boost@@@std@@V?$allocator@U?$pair@$$CBV?$basic_string@DU?$char_traits@D@std@@V?$allocator@D@2@@std@@V?$basic_ptree@V?$basic_string@DU?$char_traits@D@std@@V?$allocator@D@2@@std@@V12@U?$less@V?$basic_string@DU?$char_traits@D@std@@V?$allocator@D@2@@std@@@2@@property_tree@boost@@@std@@@2@@234@@detail@multi_index@boost@@@detail@multi_index@boost@@@detail@multi_index@boost@@0Urandom_access_iterator_tag@0@@Z
	??$_Distance1@V?$_String_const_iterator@V?$_String_val@U?$_Simple_types@D@std@@@std@@@std@@@std@@YA_JV?$_String_const_iterator@V?$_String_val@U?$_Simple_types@D@std@@@std@@@0@0Urandom_access_iterator_tag@0@@Z
	??$_Distance1@V?$_Tree_const_iterator@V?$_Tree_val@U?$_Tree_simple_types@U?$pair@$$CBV?$basic_string@DU?$char_traits@D@std@@V?$allocator@D@2@@std@@V?$weak_ptr@Vfmu@fmi@cse@@@2@@std@@@std@@@std@@@std@@@std@@YA_JV?$_Tree_const_iterator@V?$_Tree_val@U?$_Tree_simple_types@U?$pair@$$CBV?$basic_string@DU?$char_traits@D@std@@V?$allocator@D@2@@std@@V?$weak_ptr@Vfmu@fmi@cse@@@2@@std@@@std@@@std@@@0@0Uinput_iterator_tag@0@@Z
	??$_Emplace_back@AEAUvariable_description@cse@@@?$_Uninitialized_backout_al@PEAUvariable_description@cse@@V?$allocator@Uvariable_description@cse@@@std@@@std@@QEAAXAEAUvariable_description@cse@@@Z
	??$_Emplace_back@Uvariable_description@cse@@@?$_Uninitialized_backout_al@PEAUvariable_description@cse@@V?$allocator@Uvariable_description@cse@@@std@@@std@@QEAAX$$QEAUvariable_description@cse@@@Z
	??$_Emplace_back@V?$weak_ptr@Vslave_instance@v1@fmi@cse@@@std@@@?$_Uninitialized_backout_al@PEAV?$weak_ptr@Vslave_instance@v1@fmi@cse@@@std@@V?$allocator@V?$weak_ptr@Vslave_instance@v1@fmi@cse@@@std@@@2@@std@@QEAAX$$QEAV?$weak_ptr@Vslave_instance@v1@fmi@cse@@@1@@Z
	??$_Emplace_back@V?$weak_ptr@Vslave_instance@v2@fmi@cse@@@std@@@?$_Uninitialized_backout_al@PEAV?$weak_ptr@Vslave_instance@v2@fmi@cse@@@std@@V?$allocator@V?$weak_ptr@Vslave_instance@v2@fmi@cse@@@std@@@2@@std@@QEAAX$$QEAV?$weak_ptr@Vslave_instance@v2@fmi@cse@@@1@@Z
	??$_Emplace_back_with_unused_capacity@D@?$vector@DV?$allocator@D@std@@@std@@AEAAAEAD$$QEAD@Z
	??$_Emplace_back_with_unused_capacity@Uvariable_description@cse@@@?$vector@Uvariable_description@cse@@V?$allocator@Uvariable_description@cse@@@std@@@std@@AEAAAEAUvariable_description@cse@@$$QEAU23@@Z
	??$_Emplace_back_with_unused_capacity@V?$weak_ptr@Vslave_instance@v1@fmi@cse@@@std@@@?$vector@V?$weak_ptr@Vslave_instance@v1@fmi@cse@@@std@@V?$allocator@V?$weak_ptr@Vslave_instance@v1@fmi@cse@@@std@@@2@@std@@AEAAAEAV?$weak_ptr@Vslave_instance@v1@fmi@cse@@@1@$$QEAV21@@Z
	??$_Emplace_back_with_unused_capacity@V?$weak_ptr@Vslave_instance@v2@fmi@cse@@@std@@@?$vector@V?$weak_ptr@Vslave_instance@v2@fmi@cse@@@std@@V?$allocator@V?$weak_ptr@Vslave_instance@v2@fmi@cse@@@std@@@2@@std@@AEAAAEAV?$weak_ptr@Vslave_instance@v2@fmi@cse@@@1@$$QEAV21@@Z
	??$_Emplace_reallocate@D@?$vector@DV?$allocator@D@std@@@std@@QEAAPEADQEAD$$QEAD@Z
	??$_Emplace_reallocate@Uvariable_description@cse@@@?$vector@Uvariable_description@cse@@V?$allocator@Uvariable_description@cse@@@std@@@std@@QEAAPEAUvariable_description@cse@@QEAU23@$$QEAU23@@Z
	??$_Emplace_reallocate@V?$weak_ptr@Vslave_instance@v1@fmi@cse@@@std@@@?$vector@V?$weak_ptr@Vslave_instance@v1@fmi@cse@@@std@@V?$allocator@V?$weak_ptr@Vslave_instance@v1@fmi@cse@@@std@@@2@@std@@QEAAPEAV?$weak_ptr@Vslave_instance@v1@fmi@cse@@@1@QEAV21@$$QEAV21@@Z
	??$_Emplace_reallocate@V?$weak_ptr@Vslave_instance@v2@fmi@cse@@@std@@@?$vector@V?$weak_ptr@Vslave_instance@v2@fmi@cse@@@std@@V?$allocator@V?$weak_ptr@Vslave_instance@v2@fmi@cse@@@std@@@2@@std@@QEAAPEAV?$weak_ptr@Vslave_instance@v2@fmi@cse@@@1@QEAV21@$$QEAV21@@Z
	??$_Enable_shared_from_this1@U_Dir_enum_impl@filesystem@std@@U123@@std@@YAXAEBV?$shared_ptr@U_Dir_enum_impl@filesystem@std@@@0@PEAU_Dir_enum_impl@filesystem@0@U?$integral_constant@_N$0A@@0@@Z
	??$_Enable_shared_from_this1@Vfmu@fmi@cse@@V1v1@23@@std@@YAXAEBV?$shared_ptr@Vfmu@fmi@cse@@@0@PEAVfmu@v1@fmi@cse@@U?$integral_constant@_N$00@0@@Z
	??$_Enable_shared_from_this1@Vfmu@fmi@cse@@V1v2@23@@std@@YAXAEBV?$shared_ptr@Vfmu@fmi@cse@@@0@PEAVfmu@v2@fmi@cse@@U?$integral_constant@_N$00@0@@Z
	??$_Enable_shared_from_this1@Vimporter@fmi@cse@@V123@@std@@YAXAEBV?$shared_ptr@Vimporter@fmi@cse@@@0@PEAVimporter@fmi@cse@@U?$integral_constant@_N$00@0@@Z
	??$_Enable_shared_from_this1@Vslave_instance@v1@fmi@cse@@V1234@@std@@YAXAEBV?$shared_ptr@Vslave_instance@v1@fmi@cse@@@0@PEAVslave_instance@v1@fmi@cse@@U?$integral_constant@_N$0A@@0@@Z
	??$_Enable_shared_from_this1@Vslave_instance@v2@fmi@cse@@V1234@@std@@YAXAEBV?$shared_ptr@Vslave_instance@v2@fmi@cse@@@0@PEAVslave_instance@v2@fmi@cse@@U?$integral_constant@_N$0A@@0@@Z
	??$_Enable_shared_from_this@U_Dir_enum_impl@filesystem@std@@U123@@std@@YAXAEBV?$shared_ptr@U_Dir_enum_impl@filesystem@std@@@0@PEAU_Dir_enum_impl@filesystem@0@@Z
	??$_Enable_shared_from_this@Vfmu@fmi@cse@@V1v1@23@@std@@YAXAEBV?$shared_ptr@Vfmu@fmi@cse@@@0@PEAVfmu@v1@fmi@cse@@@Z
	??$_Enable_shared_from_this@Vfmu@fmi@cse@@V1v2@23@@std@@YAXAEBV?$shared_ptr@Vfmu@fmi@cse@@@0@PEAVfmu@v2@fmi@cse@@@Z
	??$_Enable_shared_from_this@Vimporter@fmi@cse@@V123@@std@@YAXAEBV?$shared_ptr@Vimporter@fmi@cse@@@0@PEAVimporter@fmi@cse@@@Z
	??$_Enable_shared_from_this@Vslave_instance@v1@fmi@cse@@V1234@@std@@YAXAEBV?$shared_ptr@Vslave_instance@v1@fmi@cse@@@0@PEAVslave_instance@v1@fmi@cse@@@Z
	??$_Enable_shared_from_this@Vslave_instance@v2@fmi@cse@@V1234@@std@@YAXAEBV?$shared_ptr@Vslave_instance@v2@fmi@cse@@@0@PEAVslave_instance@v2@fmi@cse@@@Z
	??$_Eqrange@V?$basic_string@DU?$char_traits@D@std@@V?$allocator@D@2@@std@@@?$_Tree@V?$_Tmap_traits@V?$basic_string@DU?$char_traits@D@std@@V?$allocator@D@2@@std@@V?$weak_ptr@Vfmu@fmi@cse@@@2@U?$less@V?$basic_string@DU?$char_traits@D@std@@V?$allocator@D@2@@std@@@2@V?$allocator@U?$pair@$$CBV?$basic_string@DU?$char_traits@D@std@@V?$allocator@D@2@@std@@V?$weak_ptr@Vfmu@fmi@cse@@@2@@std@@@2@$0A@@std@@@std@@IEBA?AU?$pair@V?$_Tree_const_iterator@V?$_Tree_val@U?$_Tree_simple_types@U?$pair@$$CBV?$basic_string@DU?$char_traits@D@std@@V?$allocator@D@2@@std@@V?$weak_ptr@Vfmu@fmi@cse@@@2@@std@@@std@@@std@@@std@@V12@@1@AEBV?$basic_string@DU?$char_traits@D@std@@V?$allocator@D@2@@1@@Z
	??$_Fgetc@D@std@@YA_NAEADPEAU_iobuf@@@Z
	??$_Find_unchecked1@PEADD@std@@YAPEADPEADQEADAEBDU?$integral_constant@_N$00@0@@Z
	??$_Find_unchecked@PEADD@std@@YAPEADQEAD0AEBD@Z
	??$_Fputc@D@std@@YA_NDPEAU_iobuf@@@Z
	??$_Freenode0@V?$allocator@U?$_Tree_node@U?$pair@$$CBV?$basic_string@DU?$char_traits@D@std@@V?$allocator@D@2@@std@@V?$weak_ptr@Vfmu@fmi@cse@@@2@@std@@PEAX@std@@@std@@@?$_Tree_node@U?$pair@$$CBV?$basic_string@DU?$char_traits@D@std@@V?$allocator@D@2@@std@@V?$weak_ptr@Vfmu@fmi@cse@@@2@@std@@PEAX@std@@SAXAEAV?$allocator@U?$_Tree_node@U?$pair@$$CBV?$basic_string@DU?$char_traits@D@std@@V?$allocator@D@2@@std@@V?$weak_ptr@Vfmu@fmi@cse@@@2@@std@@PEAX@std@@@1@PEAU01@@Z
	??$_Freenode0@V?$allocator@U?$_Tree_node@U?$pair@$$CBVpath@filesystem@std@@V?$weak_ptr@Vfmu@fmi@cse@@@3@@std@@PEAX@std@@@std@@@?$_Tree_node@U?$pair@$$CBVpath@filesystem@std@@V?$weak_ptr@Vfmu@fmi@cse@@@3@@std@@PEAX@std@@SAXAEAV?$allocator@U?$_Tree_node@U?$pair@$$CBVpath@filesystem@std@@V?$weak_ptr@Vfmu@fmi@cse@@@3@@std@@PEAX@std@@@1@PEAU01@@Z
	??$_Get_size_of_n@$00@std@@YA_K_K@Z
	??$_Get_size_of_n@$01@std@@YA_K_K@Z
	??$_Get_size_of_n@$03@std@@YA_K_K@Z
	??$_Get_size_of_n@$07@std@@YA_K_K@Z
	??$_Get_size_of_n@$0BA@@std@@YA_K_K@Z
	??$_Get_size_of_n@$0DI@@std@@YA_K_K@Z
	??$_Get_size_of_n@$0EA@@std@@YA_K_K@Z
	??$_Get_size_of_n@$0FI@@std@@YA_K_K@Z
	??$_Get_size_of_n@$0GI@@std@@YA_K_K@Z
	??$_Get_size_of_n@$0IA@@std@@YA_K_K@Z
	??$_Get_unwrapped@$$CBU?$copy_map_entry@U?$sequenced_index_node@U?$ordered_index_node@Unull_augment_policy@detail@multi_index@boost@@U?$index_node_base@U?$pair@$$CBV?$basic_string@DU?$char_traits@D@std@@V?$allocator@D@2@@std@@V?$basic_ptree@V?$basic_string@DU?$char_traits@D@std@@V?$allocator@D@2@@std@@V12@U?$less@V?$basic_string@DU?$char_traits@D@std@@V?$allocator@D@2@@std@@@2@@property_tree@boost@@@std@@V?$allocator@U?$pair@$$CBV?$basic_string@DU?$char_traits@D@std@@V?$allocator@D@2@@std@@V?$basic_ptree@V?$basic_string@DU?$char_traits@D@std@@V?$allocator@D@2@@std@@V12@U?$less@V?$basic_string@DU?$char_traits@D@std@@V?$allocator@D@2@@std@@@2@@property_tree@boost@@@std@@@2@@234@@detail@multi_index@boost@@@detail@multi_index@boost@@@detail@multi_index@boost@@@std@@YAPEBU?$copy_map_entry@U?$sequenced_index_node@U?$ordered_index_node@Unull_augment_policy@detail@multi_index@boost@@U?$index_node_base@U?$pair@$$CBV?$basic_string@DU?$char_traits@D@std@@V?$allocator@D@2@@std@@V?$basic_ptree@V?$basic_string@DU?$char_traits@D@std@@V?$allocator@D@2@@std@@V12@U?$less@V?$basic_string@DU?$char_traits@D@std@@V?$allocator@D@2@@std@@@2@@property_tree@boost@@@std@@V?$allocator@U?$pair@$$CBV?$basic_string@DU?$char_traits@D@std@@V?$allocator@D@2@@std@@V?$basic_ptree@V?$basic_string@DU?$char_traits@D@std@@V?$allocator@D@2@@std@@V12@U?$less@V?$basic_string@DU?$char_traits@D@std@@V?$allocator@D@2@@std@@@2@@property_tree@boost@@@std@@@2@@234@@detail@multi_index@boost@@@detail@multi_index@boost@@@detail@multi_index@boost@@QEBU1234@@Z
	??$_Get_unwrapped@$$CB_W@std@@YAPEB_WQEB_W@Z
	??$_Get_unwrapped@D@std@@YAPEADQEAD@Z
	??$_Get_unwrapped@U?$copy_map_entry@U?$sequenced_index_node@U?$ordered_index_node@Unull_augment_policy@detail@multi_index@boost@@U?$index_node_base@U?$pair@$$CBV?$basic_string@DU?$char_traits@D@std@@V?$allocator@D@2@@std@@V?$basic_ptree@V?$basic_string@DU?$char_traits@D@std@@V?$allocator@D@2@@std@@V12@U?$less@V?$basic_string@DU?$char_traits@D@std@@V?$allocator@D@2@@std@@@2@@property_tree@boost@@@std@@V?$allocator@U?$pair@$$CBV?$basic_string@DU?$char_traits@D@std@@V?$allocator@D@2@@std@@V?$basic_ptree@V?$basic_string@DU?$char_traits@D@std@@V?$allocator@D@2@@std@@V12@U?$less@V?$basic_string@DU?$char_traits@D@std@@V?$allocator@D@2@@std@@@2@@property_tree@boost@@@std@@@2@@234@@detail@multi_index@boost@@@detail@multi_index@boost@@@detail@multi_index@boost@@@std@@YAPEAU?$copy_map_entry@U?$sequenced_index_node@U?$ordered_index_node@Unull_augment_policy@detail@multi_index@boost@@U?$index_node_base@U?$pair@$$CBV?$basic_string@DU?$char_traits@D@std@@V?$allocator@D@2@@std@@V?$basic_ptree@V?$basic_string@DU?$char_traits@D@std@@V?$allocator@D@2@@std@@V12@U?$less@V?$basic_string@DU?$char_traits@D@std@@V?$allocator@D@2@@std@@@2@@property_tree@boost@@@std@@V?$allocator@U?$pair@$$CBV?$basic_string@DU?$char_traits@D@std@@V?$allocator@D@2@@std@@V?$basic_ptree@V?$basic_string@DU?$char_traits@D@std@@V?$allocator@D@2@@std@@V12@U?$less@V?$basic_string@DU?$char_traits@D@std@@V?$allocator@D@2@@std@@@2@@property_tree@boost@@@std@@@2@@234@@detail@multi_index@boost@@@detail@multi_index@boost@@@detail@multi_index@boost@@QEAU1234@@Z
	??$_Get_unwrapped@Uvariable_description@cse@@@std@@YAPEAUvariable_description@cse@@QEAU12@@Z
	??$_Get_unwrapped@V?$_String_iterator@V?$_String_val@U?$_Simple_types@D@std@@@std@@@std@@$0A@@std@@YAPEADAEBV?$_String_iterator@V?$_String_val@U?$_Simple_types@D@std@@@std@@@0@@Z
	??$_Get_unwrapped@V?$_Vector_iterator@V?$_Vector_val@U?$_Simple_types@V?$weak_ptr@Vslave_instance@v1@fmi@cse@@@std@@@std@@@std@@@std@@$0A@@std@@YAPEAV?$weak_ptr@Vslave_instance@v1@fmi@cse@@@0@AEBV?$_Vector_iterator@V?$_Vector_val@U?$_Simple_types@V?$weak_ptr@Vslave_instance@v1@fmi@cse@@@std@@@std@@@std@@@0@@Z
	??$_Get_unwrapped@V?$_Vector_iterator@V?$_Vector_val@U?$_Simple_types@V?$weak_ptr@Vslave_instance@v2@fmi@cse@@@std@@@std@@@std@@@std@@$0A@@std@@YAPEAV?$weak_ptr@Vslave_instance@v2@fmi@cse@@@0@AEBV?$_Vector_iterator@V?$_Vector_val@U?$_Simple_types@V?$weak_ptr@Vslave_instance@v2@fmi@cse@@@std@@@std@@@std@@@0@@Z
	??$_Get_unwrapped@V?$istreambuf_iterator@DU?$char_traits@D@std@@@std@@$0A@@std@@YAAEBV?$istreambuf_iterator@DU?$char_traits@D@std@@@0@AEBV10@@Z
	??$_Get_unwrapped@V?$weak_ptr@Vslave_instance@v1@fmi@cse@@@std@@@std@@YAPEAV?$weak_ptr@Vslave_instance@v1@fmi@cse@@@0@QEAV10@@Z
	??$_Get_unwrapped@V?$weak_ptr@Vslave_instance@v2@fmi@cse@@@std@@@std@@YAPEAV?$weak_ptr@Vslave_instance@v2@fmi@cse@@@0@QEAV10@@Z
	??$_Get_unwrapped_n@D_J$0A@@std@@YAPEADQEAD_J@Z
	??$_Get_unwrapped_n@Uvariable_description@cse@@_J$0A@@std@@YAPEAUvariable_description@cse@@QEAU12@_J@Z
	??$_Get_unwrapped_n@V?$weak_ptr@Vslave_instance@v1@fmi@cse@@@std@@_J$0A@@std@@YAPEAV?$weak_ptr@Vslave_instance@v1@fmi@cse@@@0@QEAV10@_J@Z
	??$_Get_unwrapped_n@V?$weak_ptr@Vslave_instance@v2@fmi@cse@@@std@@_J$0A@@std@@YAPEAV?$weak_ptr@Vslave_instance@v2@fmi@cse@@@0@QEAV10@_J@Z
	??$_Get_unwrapped_unverified@$$CB_W@std@@YAPEB_WQEB_W@Z
	??$_Getvals@_W@?$time_get@DV?$istreambuf_iterator@DU?$char_traits@D@std@@@std@@@std@@IEAAX_WAEBV_Locinfo@1@@Z
	??$_Getvals@_W@?$time_get@_WV?$istreambuf_iterator@_WU?$char_traits@_W@std@@@std@@@std@@IEAAX_WAEBV_Locinfo@1@@Z
	??$_Guess_median_unchecked@PEAU?$copy_map_entry@U?$sequenced_index_node@U?$ordered_index_node@Unull_augment_policy@detail@multi_index@boost@@U?$index_node_base@U?$pair@$$CBV?$basic_string@DU?$char_traits@D@std@@V?$allocator@D@2@@std@@V?$basic_ptree@V?$basic_string@DU?$char_traits@D@std@@V?$allocator@D@2@@std@@V12@U?$less@V?$basic_string@DU?$char_traits@D@std@@V?$allocator@D@2@@std@@@2@@property_tree@boost@@@std@@V?$allocator@U?$pair@$$CBV?$basic_string@DU?$char_traits@D@std@@V?$allocator@D@2@@std@@V?$basic_ptree@V?$basic_string@DU?$char_traits@D@std@@V?$allocator@D@2@@std@@V12@U?$less@V?$basic_string@DU?$char_traits@D@std@@V?$allocator@D@2@@std@@@2@@property_tree@boost@@@std@@@2@@234@@detail@multi_index@boost@@@detail@multi_index@boost@@@detail@multi_index@boost@@U?$less@X@std@@@std@@YAXPEAU?$copy_map_entry@U?$sequenced_index_node@U?$ordered_index_node@Unull_augment_policy@detail@multi_index@boost@@U?$index_node_base@U?$pair@$$CBV?$basic_string@DU?$char_traits@D@std@@V?$allocator@D@2@@std@@V?$basic_ptree@V?$basic_string@DU?$char_traits@D@std@@V?$allocator@D@2@@std@@V12@U?$less@V?$basic_string@DU?$char_traits@D@std@@V?$allocator@D@2@@std@@@2@@property_tree@boost@@@std@@V?$allocator@U?$pair@$$CBV?$basic_string@DU?$char_traits@D@std@@V?$allocator@D@2@@std@@V?$basic_ptree@V?$basic_string@DU?$char_traits@D@std@@V?$allocator@D@2@@std@@V12@U?$less@V?$basic_string@DU?$char_traits@D@std@@V?$allocator@D@2@@std@@@2@@property_tree@boost@@@std@@@2@@234@@detail@multi_index@boost@@@detail@multi_index@boost@@@detail@multi_index@boost@@00U?$less@X@0@@Z
	??$_Hash_array_representation@D@std@@YA_KQEBD_K@Z
	??$_Idl_distance@PEADPEAD@std@@YA_JAEBQEAD0@Z
	??$_Idl_distance@PEAUvariable_description@cse@@PEAU12@@std@@YA_JAEBQEAUvariable_description@cse@@0@Z
	??$_Idl_distance@PEAV?$weak_ptr@Vslave_instance@v1@fmi@cse@@@std@@PEAV12@@std@@YA_JAEBQEAV?$weak_ptr@Vslave_instance@v1@fmi@cse@@@0@0@Z
	??$_Idl_distance@PEAV?$weak_ptr@Vslave_instance@v2@fmi@cse@@@std@@PEAV12@@std@@YA_JAEBQEAV?$weak_ptr@Vslave_instance@v2@fmi@cse@@@0@0@Z
	??$_Immortalize@V_Generic_error_category@std@@@std@@YAAEAV_Generic_error_category@0@XZ
	??$_Immortalize@V_System_error_category@std@@@std@@YAAEAV_System_error_category@0@XZ
	??$_Immortalize_impl@V_Generic_error_category@std@@@std@@YAHPEAX0PEAPEAX@Z
	??$_Immortalize_impl@V_System_error_category@std@@@std@@YAHPEAX0PEAPEAX@Z
	??$_Initialize_dir_enum@U_Dir_enum_impl@filesystem@std@@@_Dir_enum_impl@filesystem@std@@SA?AW4__std_win_error@@AEAV?$shared_ptr@U_Dir_enum_impl@filesystem@std@@@2@AEBVpath@12@W4directory_options@12@@Z
	??$_Insert_at@AEAU?$pair@$$CBV?$basic_string@DU?$char_traits@D@std@@V?$allocator@D@2@@std@@V?$weak_ptr@Vfmu@fmi@cse@@@2@@std@@PEAU?$_Tree_node@U?$pair@$$CBV?$basic_string@DU?$char_traits@D@std@@V?$allocator@D@2@@std@@V?$weak_ptr@Vfmu@fmi@cse@@@2@@std@@PEAX@2@@?$_Tree@V?$_Tmap_traits@V?$basic_string@DU?$char_traits@D@std@@V?$allocator@D@2@@std@@V?$weak_ptr@Vfmu@fmi@cse@@@2@U?$less@V?$basic_string@DU?$char_traits@D@std@@V?$allocator@D@2@@std@@@2@V?$allocator@U?$pair@$$CBV?$basic_string@DU?$char_traits@D@std@@V?$allocator@D@2@@std@@V?$weak_ptr@Vfmu@fmi@cse@@@2@@std@@@2@$0A@@std@@@std@@IEAA?AV?$_Tree_iterator@V?$_Tree_val@U?$_Tree_simple_types@U?$pair@$$CBV?$basic_string@DU?$char_traits@D@std@@V?$allocator@D@2@@std@@V?$weak_ptr@Vfmu@fmi@cse@@@2@@std@@@std@@@std@@@1@_NPEAU?$_Tree_node@U?$pair@$$CBV?$basic_string@DU?$char_traits@D@std@@V?$allocator@D@2@@std@@V?$weak_ptr@Vfmu@fmi@cse@@@2@@std@@PEAX@1@AEAU?$pair@$$CBV?$basic_string@DU?$char_traits@D@std@@V?$allocator@D@2@@std@@V?$weak_ptr@Vfmu@fmi@cse@@@2@@1@1@Z
	??$_Insert_at@AEAU?$pair@$$CBVpath@filesystem@std@@V?$weak_ptr@Vfmu@fmi@cse@@@3@@std@@PEAU?$_Tree_node@U?$pair@$$CBVpath@filesystem@std@@V?$weak_ptr@Vfmu@fmi@cse@@@3@@std@@PEAX@2@@?$_Tree@V?$_Tmap_traits@Vpath@filesystem@std@@V?$weak_ptr@Vfmu@fmi@cse@@@3@U?$less@Vpath@filesystem@std@@@3@V?$allocator@U?$pair@$$CBVpath@filesystem@std@@V?$weak_ptr@Vfmu@fmi@cse@@@3@@std@@@3@$0A@@std@@@std@@IEAA?AV?$_Tree_iterator@V?$_Tree_val@U?$_Tree_simple_types@U?$pair@$$CBVpath@filesystem@std@@V?$weak_ptr@Vfmu@fmi@cse@@@3@@std@@@std@@@std@@@1@_NPEAU?$_Tree_node@U?$pair@$$CBVpath@filesystem@std@@V?$weak_ptr@Vfmu@fmi@cse@@@3@@std@@PEAX@1@AEAU?$pair@$$CBVpath@filesystem@std@@V?$weak_ptr@Vfmu@fmi@cse@@@3@@1@1@Z
	??$_Insert_hint@AEAU?$pair@$$CBV?$basic_string@DU?$char_traits@D@std@@V?$allocator@D@2@@std@@V?$weak_ptr@Vfmu@fmi@cse@@@2@@std@@PEAU?$_Tree_node@U?$pair@$$CBV?$basic_string@DU?$char_traits@D@std@@V?$allocator@D@2@@std@@V?$weak_ptr@Vfmu@fmi@cse@@@2@@std@@PEAX@2@@?$_Tree@V?$_Tmap_traits@V?$basic_string@DU?$char_traits@D@std@@V?$allocator@D@2@@std@@V?$weak_ptr@Vfmu@fmi@cse@@@2@U?$less@V?$basic_string@DU?$char_traits@D@std@@V?$allocator@D@2@@std@@@2@V?$allocator@U?$pair@$$CBV?$basic_string@DU?$char_traits@D@std@@V?$allocator@D@2@@std@@V?$weak_ptr@Vfmu@fmi@cse@@@2@@std@@@2@$0A@@std@@@std@@IEAA?AV?$_Tree_iterator@V?$_Tree_val@U?$_Tree_simple_types@U?$pair@$$CBV?$basic_string@DU?$char_traits@D@std@@V?$allocator@D@2@@std@@V?$weak_ptr@Vfmu@fmi@cse@@@2@@std@@@std@@@std@@@1@V?$_Tree_const_iterator@V?$_Tree_val@U?$_Tree_simple_types@U?$pair@$$CBV?$basic_string@DU?$char_traits@D@std@@V?$allocator@D@2@@std@@V?$weak_ptr@Vfmu@fmi@cse@@@2@@std@@@std@@@std@@@1@AEAU?$pair@$$CBV?$basic_string@DU?$char_traits@D@std@@V?$allocator@D@2@@std@@V?$weak_ptr@Vfmu@fmi@cse@@@2@@1@PEAU?$_Tree_node@U?$pair@$$CBV?$basic_string@DU?$char_traits@D@std@@V?$allocator@D@2@@std@@V?$weak_ptr@Vfmu@fmi@cse@@@2@@std@@PEAX@1@@Z
	??$_Insert_hint@AEAU?$pair@$$CBVpath@filesystem@std@@V?$weak_ptr@Vfmu@fmi@cse@@@3@@std@@PEAU?$_Tree_node@U?$pair@$$CBVpath@filesystem@std@@V?$weak_ptr@Vfmu@fmi@cse@@@3@@std@@PEAX@2@@?$_Tree@V?$_Tmap_traits@Vpath@filesystem@std@@V?$weak_ptr@Vfmu@fmi@cse@@@3@U?$less@Vpath@filesystem@std@@@3@V?$allocator@U?$pair@$$CBVpath@filesystem@std@@V?$weak_ptr@Vfmu@fmi@cse@@@3@@std@@@3@$0A@@std@@@std@@IEAA?AV?$_Tree_iterator@V?$_Tree_val@U?$_Tree_simple_types@U?$pair@$$CBVpath@filesystem@std@@V?$weak_ptr@Vfmu@fmi@cse@@@3@@std@@@std@@@std@@@1@V?$_Tree_const_iterator@V?$_Tree_val@U?$_Tree_simple_types@U?$pair@$$CBVpath@filesystem@std@@V?$weak_ptr@Vfmu@fmi@cse@@@3@@std@@@std@@@std@@@1@AEAU?$pair@$$CBVpath@filesystem@std@@V?$weak_ptr@Vfmu@fmi@cse@@@3@@1@PEAU?$_Tree_node@U?$pair@$$CBVpath@filesystem@std@@V?$weak_ptr@Vfmu@fmi@cse@@@3@@std@@PEAX@1@@Z
	??$_Insert_nohint@AEAU?$pair@$$CBV?$basic_string@DU?$char_traits@D@std@@V?$allocator@D@2@@std@@V?$weak_ptr@Vfmu@fmi@cse@@@2@@std@@PEAU?$_Tree_node@U?$pair@$$CBV?$basic_string@DU?$char_traits@D@std@@V?$allocator@D@2@@std@@V?$weak_ptr@Vfmu@fmi@cse@@@2@@std@@PEAX@2@@?$_Tree@V?$_Tmap_traits@V?$basic_string@DU?$char_traits@D@std@@V?$allocator@D@2@@std@@V?$weak_ptr@Vfmu@fmi@cse@@@2@U?$less@V?$basic_string@DU?$char_traits@D@std@@V?$allocator@D@2@@std@@@2@V?$allocator@U?$pair@$$CBV?$basic_string@DU?$char_traits@D@std@@V?$allocator@D@2@@std@@V?$weak_ptr@Vfmu@fmi@cse@@@2@@std@@@2@$0A@@std@@@std@@IEAA?AU?$pair@V?$_Tree_iterator@V?$_Tree_val@U?$_Tree_simple_types@U?$pair@$$CBV?$basic_string@DU?$char_traits@D@std@@V?$allocator@D@2@@std@@V?$weak_ptr@Vfmu@fmi@cse@@@2@@std@@@std@@@std@@@std@@_N@1@_NAEAU?$pair@$$CBV?$basic_string@DU?$char_traits@D@std@@V?$allocator@D@2@@std@@V?$weak_ptr@Vfmu@fmi@cse@@@2@@1@PEAU?$_Tree_node@U?$pair@$$CBV?$basic_string@DU?$char_traits@D@std@@V?$allocator@D@2@@std@@V?$weak_ptr@Vfmu@fmi@cse@@@2@@std@@PEAX@1@@Z
	??$_Insert_nohint@AEAU?$pair@$$CBVpath@filesystem@std@@V?$weak_ptr@Vfmu@fmi@cse@@@3@@std@@PEAU?$_Tree_node@U?$pair@$$CBVpath@filesystem@std@@V?$weak_ptr@Vfmu@fmi@cse@@@3@@std@@PEAX@2@@?$_Tree@V?$_Tmap_traits@Vpath@filesystem@std@@V?$weak_ptr@Vfmu@fmi@cse@@@3@U?$less@Vpath@filesystem@std@@@3@V?$allocator@U?$pair@$$CBVpath@filesystem@std@@V?$weak_ptr@Vfmu@fmi@cse@@@3@@std@@@3@$0A@@std@@@std@@IEAA?AU?$pair@V?$_Tree_iterator@V?$_Tree_val@U?$_Tree_simple_types@U?$pair@$$CBVpath@filesystem@std@@V?$weak_ptr@Vfmu@fmi@cse@@@3@@std@@@std@@@std@@@std@@_N@1@_NAEAU?$pair@$$CBVpath@filesystem@std@@V?$weak_ptr@Vfmu@fmi@cse@@@3@@1@PEAU?$_Tree_node@U?$pair@$$CBVpath@filesystem@std@@V?$weak_ptr@Vfmu@fmi@cse@@@3@@std@@PEAX@1@@Z
	??$_Insert_string@DU?$char_traits@D@std@@_K@std@@YAAEAV?$basic_ostream@DU?$char_traits@D@std@@@0@AEAV10@QEBD_K@Z
	??$_Insertion_sort_unchecked@PEAU?$copy_map_entry@U?$sequenced_index_node@U?$ordered_index_node@Unull_augment_policy@detail@multi_index@boost@@U?$index_node_base@U?$pair@$$CBV?$basic_string@DU?$char_traits@D@std@@V?$allocator@D@2@@std@@V?$basic_ptree@V?$basic_string@DU?$char_traits@D@std@@V?$allocator@D@2@@std@@V12@U?$less@V?$basic_string@DU?$char_traits@D@std@@V?$allocator@D@2@@std@@@2@@property_tree@boost@@@std@@V?$allocator@U?$pair@$$CBV?$basic_string@DU?$char_traits@D@std@@V?$allocator@D@2@@std@@V?$basic_ptree@V?$basic_string@DU?$char_traits@D@std@@V?$allocator@D@2@@std@@V12@U?$less@V?$basic_string@DU?$char_traits@D@std@@V?$allocator@D@2@@std@@@2@@property_tree@boost@@@std@@@2@@234@@detail@multi_index@boost@@@detail@multi_index@boost@@@detail@multi_index@boost@@U?$less@X@std@@@std@@YAPEAU?$copy_map_entry@U?$sequenced_index_node@U?$ordered_index_node@Unull_augment_policy@detail@multi_index@boost@@U?$index_node_base@U?$pair@$$CBV?$basic_string@DU?$char_traits@D@std@@V?$allocator@D@2@@std@@V?$basic_ptree@V?$basic_string@DU?$char_traits@D@std@@V?$allocator@D@2@@std@@V12@U?$less@V?$basic_string@DU?$char_traits@D@std@@V?$allocator@D@2@@std@@@2@@property_tree@boost@@@std@@V?$allocator@U?$pair@$$CBV?$basic_string@DU?$char_traits@D@std@@V?$allocator@D@2@@std@@V?$basic_ptree@V?$basic_string@DU?$char_traits@D@std@@V?$allocator@D@2@@std@@V12@U?$less@V?$basic_string@DU?$char_traits@D@std@@V?$allocator@D@2@@std@@@2@@property_tree@boost@@@std@@@2@@234@@detail@multi_index@boost@@@detail@multi_index@boost@@@detail@multi_index@boost@@PEAU1234@QEAU1234@U?$less@X@0@@Z
	??$_Kfn@$$CBV?$basic_string@DU?$char_traits@D@std@@V?$allocator@D@2@@std@@V?$weak_ptr@Vfmu@fmi@cse@@@2@@?$_Tmap_traits@V?$basic_string@DU?$char_traits@D@std@@V?$allocator@D@2@@std@@V?$weak_ptr@Vfmu@fmi@cse@@@2@U?$less@V?$basic_string@DU?$char_traits@D@std@@V?$allocator@D@2@@std@@@2@V?$allocator@U?$pair@$$CBV?$basic_string@DU?$char_traits@D@std@@V?$allocator@D@2@@std@@V?$weak_ptr@Vfmu@fmi@cse@@@2@@std@@@2@$0A@@std@@SAAEBV?$basic_string@DU?$char_traits@D@std@@V?$allocator@D@2@@1@AEBU?$pair@$$CBV?$basic_string@DU?$char_traits@D@std@@V?$allocator@D@2@@std@@V?$weak_ptr@Vfmu@fmi@cse@@@2@@1@@Z
	??$_Kfn@$$CBVpath@filesystem@std@@V?$weak_ptr@Vfmu@fmi@cse@@@3@@?$_Tmap_traits@Vpath@filesystem@std@@V?$weak_ptr@Vfmu@fmi@cse@@@3@U?$less@Vpath@filesystem@std@@@3@V?$allocator@U?$pair@$$CBVpath@filesystem@std@@V?$weak_ptr@Vfmu@fmi@cse@@@3@@std@@@3@$0A@@std@@SAAEBVpath@filesystem@1@AEBU?$pair@$$CBVpath@filesystem@std@@V?$weak_ptr@Vfmu@fmi@cse@@@3@@1@@Z
	??$_Lbound@V?$basic_string@DU?$char_traits@D@std@@V?$allocator@D@2@@std@@@?$_Tree@V?$_Tmap_traits@V?$basic_string@DU?$char_traits@D@std@@V?$allocator@D@2@@std@@V?$weak_ptr@Vfmu@fmi@cse@@@2@U?$less@V?$basic_string@DU?$char_traits@D@std@@V?$allocator@D@2@@std@@@2@V?$allocator@U?$pair@$$CBV?$basic_string@DU?$char_traits@D@std@@V?$allocator@D@2@@std@@V?$weak_ptr@Vfmu@fmi@cse@@@2@@std@@@2@$0A@@std@@@std@@IEBAPEAU?$_Tree_node@U?$pair@$$CBV?$basic_string@DU?$char_traits@D@std@@V?$allocator@D@2@@std@@V?$weak_ptr@Vfmu@fmi@cse@@@2@@std@@PEAX@1@AEBV?$basic_string@DU?$char_traits@D@std@@V?$allocator@D@2@@1@@Z
	??$_Lbound@Vpath@filesystem@std@@@?$_Tree@V?$_Tmap_traits@Vpath@filesystem@std@@V?$weak_ptr@Vfmu@fmi@cse@@@3@U?$less@Vpath@filesystem@std@@@3@V?$allocator@U?$pair@$$CBVpath@filesystem@std@@V?$weak_ptr@Vfmu@fmi@cse@@@3@@std@@@3@$0A@@std@@@std@@IEBAPEAU?$_Tree_node@U?$pair@$$CBVpath@filesystem@std@@V?$weak_ptr@Vfmu@fmi@cse@@@3@@std@@PEAX@1@AEBVpath@filesystem@1@@Z
	??$_Make_heap_unchecked@PEAU?$copy_map_entry@U?$sequenced_index_node@U?$ordered_index_node@Unull_augment_policy@detail@multi_index@boost@@U?$index_node_base@U?$pair@$$CBV?$basic_string@DU?$char_traits@D@std@@V?$allocator@D@2@@std@@V?$basic_ptree@V?$basic_string@DU?$char_traits@D@std@@V?$allocator@D@2@@std@@V12@U?$less@V?$basic_string@DU?$char_traits@D@std@@V?$allocator@D@2@@std@@@2@@property_tree@boost@@@std@@V?$allocator@U?$pair@$$CBV?$basic_string@DU?$char_traits@D@std@@V?$allocator@D@2@@std@@V?$basic_ptree@V?$basic_string@DU?$char_traits@D@std@@V?$allocator@D@2@@std@@V12@U?$less@V?$basic_string@DU?$char_traits@D@std@@V?$allocator@D@2@@std@@@2@@property_tree@boost@@@std@@@2@@234@@detail@multi_index@boost@@@detail@multi_index@boost@@@detail@multi_index@boost@@U?$less@X@std@@@std@@YAXPEAU?$copy_map_entry@U?$sequenced_index_node@U?$ordered_index_node@Unull_augment_policy@detail@multi_index@boost@@U?$index_node_base@U?$pair@$$CBV?$basic_string@DU?$char_traits@D@std@@V?$allocator@D@2@@std@@V?$basic_ptree@V?$basic_string@DU?$char_traits@D@std@@V?$allocator@D@2@@std@@V12@U?$less@V?$basic_string@DU?$char_traits@D@std@@V?$allocator@D@2@@std@@@2@@property_tree@boost@@@std@@V?$allocator@U?$pair@$$CBV?$basic_string@DU?$char_traits@D@std@@V?$allocator@D@2@@std@@V?$basic_ptree@V?$basic_string@DU?$char_traits@D@std@@V?$allocator@D@2@@std@@V12@U?$less@V?$basic_string@DU?$char_traits@D@std@@V?$allocator@D@2@@std@@@2@@property_tree@boost@@@std@@@2@@234@@detail@multi_index@boost@@@detail@multi_index@boost@@@detail@multi_index@boost@@0U?$less@X@0@@Z
	??$_Maklocstr@D@std@@YAPEADPEBDPEADAEBU_Cvtvec@@@Z
	??$_Maklocstr@_W@std@@YAPEA_WPEBDPEA_WAEBU_Cvtvec@@@Z
	??$_Max_value@PEAD@std@@YAAEBQEADAEBQEAD0@Z
	??$_Max_value@_K@std@@YAAEB_KAEB_K0@Z
	??$_Med3_unchecked@PEAU?$copy_map_entry@U?$sequenced_index_node@U?$ordered_index_node@Unull_augment_policy@detail@multi_index@boost@@U?$index_node_base@U?$pair@$$CBV?$basic_string@DU?$char_traits@D@std@@V?$allocator@D@2@@std@@V?$basic_ptree@V?$basic_string@DU?$char_traits@D@std@@V?$allocator@D@2@@std@@V12@U?$less@V?$basic_string@DU?$char_traits@D@std@@V?$allocator@D@2@@std@@@2@@property_tree@boost@@@std@@V?$allocator@U?$pair@$$CBV?$basic_string@DU?$char_traits@D@std@@V?$allocator@D@2@@std@@V?$basic_ptree@V?$basic_string@DU?$char_traits@D@std@@V?$allocator@D@2@@std@@V12@U?$less@V?$basic_string@DU?$char_traits@D@std@@V?$allocator@D@2@@std@@@2@@property_tree@boost@@@std@@@2@@234@@detail@multi_index@boost@@@detail@multi_index@boost@@@detail@multi_index@boost@@U?$less@X@std@@@std@@YAXPEAU?$copy_map_entry@U?$sequenced_index_node@U?$ordered_index_node@Unull_augment_policy@detail@multi_index@boost@@U?$index_node_base@U?$pair@$$CBV?$basic_string@DU?$char_traits@D@std@@V?$allocator@D@2@@std@@V?$basic_ptree@V?$basic_string@DU?$char_traits@D@std@@V?$allocator@D@2@@std@@V12@U?$less@V?$basic_string@DU?$char_traits@D@std@@V?$allocator@D@2@@std@@@2@@property_tree@boost@@@std@@V?$allocator@U?$pair@$$CBV?$basic_string@DU?$char_traits@D@std@@V?$allocator@D@2@@std@@V?$basic_ptree@V?$basic_string@DU?$char_traits@D@std@@V?$allocator@D@2@@std@@V12@U?$less@V?$basic_string@DU?$char_traits@D@std@@V?$allocator@D@2@@std@@@2@@property_tree@boost@@@std@@@2@@234@@detail@multi_index@boost@@@detail@multi_index@boost@@@detail@multi_index@boost@@00U?$less@X@0@@Z
	??$_Min_value@_K@std@@YAAEB_KAEB_K0@Z
	??$_Move_backward_unchecked1@PEAU?$copy_map_entry@U?$sequenced_index_node@U?$ordered_index_node@Unull_augment_policy@detail@multi_index@boost@@U?$index_node_base@U?$pair@$$CBV?$basic_string@DU?$char_traits@D@std@@V?$allocator@D@2@@std@@V?$basic_ptree@V?$basic_string@DU?$char_traits@D@std@@V?$allocator@D@2@@std@@V12@U?$less@V?$basic_string@DU?$char_traits@D@std@@V?$allocator@D@2@@std@@@2@@property_tree@boost@@@std@@V?$allocator@U?$pair@$$CBV?$basic_string@DU?$char_traits@D@std@@V?$allocator@D@2@@std@@V?$basic_ptree@V?$basic_string@DU?$char_traits@D@std@@V?$allocator@D@2@@std@@V12@U?$less@V?$basic_string@DU?$char_traits@D@std@@V?$allocator@D@2@@std@@@2@@property_tree@boost@@@std@@@2@@234@@detail@multi_index@boost@@@detail@multi_index@boost@@@detail@multi_index@boost@@PEAU1234@@std@@YAPEAU?$copy_map_entry@U?$sequenced_index_node@U?$ordered_index_node@Unull_augment_policy@detail@multi_index@boost@@U?$index_node_base@U?$pair@$$CBV?$basic_string@DU?$char_traits@D@std@@V?$allocator@D@2@@std@@V?$basic_ptree@V?$basic_string@DU?$char_traits@D@std@@V?$allocator@D@2@@std@@V12@U?$less@V?$basic_string@DU?$char_traits@D@std@@V?$allocator@D@2@@std@@@2@@property_tree@boost@@@std@@V?$allocator@U?$pair@$$CBV?$basic_string@DU?$char_traits@D@std@@V?$allocator@D@2@@std@@V?$basic_ptree@V?$basic_string@DU?$char_traits@D@std@@V?$allocator@D@2@@std@@V12@U?$less@V?$basic_string@DU?$char_traits@D@std@@V?$allocator@D@2@@std@@@2@@property_tree@boost@@@std@@@2@@234@@detail@multi_index@boost@@@detail@multi_index@boost@@@detail@multi_index@boost@@PEAU1234@00U_Trivially_copyable_ptr_iterator_tag@0@@Z
	??$_Move_backward_unchecked@PEAU?$copy_map_entry@U?$sequenced_index_node@U?$ordered_index_node@Unull_augment_policy@detail@multi_index@boost@@U?$index_node_base@U?$pair@$$CBV?$basic_string@DU?$char_traits@D@std@@V?$allocator@D@2@@std@@V?$basic_ptree@V?$basic_string@DU?$char_traits@D@std@@V?$allocator@D@2@@std@@V12@U?$less@V?$basic_string@DU?$char_traits@D@std@@V?$allocator@D@2@@std@@@2@@property_tree@boost@@@std@@V?$allocator@U?$pair@$$CBV?$basic_string@DU?$char_traits@D@std@@V?$allocator@D@2@@std@@V?$basic_ptree@V?$basic_string@DU?$char_traits@D@std@@V?$allocator@D@2@@std@@V12@U?$less@V?$basic_string@DU?$char_traits@D@std@@V?$allocator@D@2@@std@@@2@@property_tree@boost@@@std@@@2@@234@@detail@multi_index@boost@@@detail@multi_index@boost@@@detail@multi_index@boost@@PEAU1234@@std@@YAPEAU?$copy_map_entry@U?$sequenced_index_node@U?$ordered_index_node@Unull_augment_policy@detail@multi_index@boost@@U?$index_node_base@U?$pair@$$CBV?$basic_string@DU?$char_traits@D@std@@V?$allocator@D@2@@std@@V?$basic_ptree@V?$basic_string@DU?$char_traits@D@std@@V?$allocator@D@2@@std@@V12@U?$less@V?$basic_string@DU?$char_traits@D@std@@V?$allocator@D@2@@std@@@2@@property_tree@boost@@@std@@V?$allocator@U?$pair@$$CBV?$basic_string@DU?$char_traits@D@std@@V?$allocator@D@2@@std@@V?$basic_ptree@V?$basic_string@DU?$char_traits@D@std@@V?$allocator@D@2@@std@@V12@U?$less@V?$basic_string@DU?$char_traits@D@std@@V?$allocator@D@2@@std@@@2@@property_tree@boost@@@std@@@2@@234@@detail@multi_index@boost@@@detail@multi_index@boost@@@detail@multi_index@boost@@PEAU1234@00@Z
	??$_Move_construct_from@U_Dir_enum_impl@filesystem@std@@@?$_Ptr_base@U_Dir_enum_impl@filesystem@std@@@std@@IEAAX$$QEAV01@@Z
	??$_Move_construct_from@Vfmu@fmi@cse@@@?$_Ptr_base@Vfmu@fmi@cse@@@std@@IEAAX$$QEAV01@@Z
	??$_Move_construct_from@Vslave_instance@v1@fmi@cse@@@?$_Ptr_base@Vslave_instance@v1@fmi@cse@@@std@@IEAAX$$QEAV01@@Z
	??$_Move_construct_from@Vslave_instance@v2@fmi@cse@@@?$_Ptr_base@Vslave_instance@v2@fmi@cse@@@std@@IEAAX$$QEAV01@@Z
	??$_Move_unchecked1@PEAV?$weak_ptr@Vslave_instance@v1@fmi@cse@@@std@@PEAV12@@std@@YAPEAV?$weak_ptr@Vslave_instance@v1@fmi@cse@@@0@PEAV10@00U_General_ptr_iterator_tag@0@@Z
	??$_Move_unchecked1@PEAV?$weak_ptr@Vslave_instance@v2@fmi@cse@@@std@@PEAV12@@std@@YAPEAV?$weak_ptr@Vslave_instance@v2@fmi@cse@@@0@PEAV10@00U_General_ptr_iterator_tag@0@@Z
	??$_Move_unchecked@PEAV?$weak_ptr@Vslave_instance@v1@fmi@cse@@@std@@PEAV12@@std@@YAPEAV?$weak_ptr@Vslave_instance@v1@fmi@cse@@@0@PEAV10@00@Z
	??$_Move_unchecked@PEAV?$weak_ptr@Vslave_instance@v2@fmi@cse@@@std@@PEAV12@@std@@YAPEAV?$weak_ptr@Vslave_instance@v2@fmi@cse@@@0@PEAV10@00@Z
	??$_Next_iter@PEBU?$copy_map_entry@U?$sequenced_index_node@U?$ordered_index_node@Unull_augment_policy@detail@multi_index@boost@@U?$index_node_base@U?$pair@$$CBV?$basic_string@DU?$char_traits@D@std@@V?$allocator@D@2@@std@@V?$basic_ptree@V?$basic_string@DU?$char_traits@D@std@@V?$allocator@D@2@@std@@V12@U?$less@V?$basic_string@DU?$char_traits@D@std@@V?$allocator@D@2@@std@@@2@@property_tree@boost@@@std@@V?$allocator@U?$pair@$$CBV?$basic_string@DU?$char_traits@D@std@@V?$allocator@D@2@@std@@V?$basic_ptree@V?$basic_string@DU?$char_traits@D@std@@V?$allocator@D@2@@std@@V12@U?$less@V?$basic_string@DU?$char_traits@D@std@@V?$allocator@D@2@@std@@@2@@property_tree@boost@@@std@@@2@@234@@detail@multi_index@boost@@@detail@multi_index@boost@@@detail@multi_index@boost@@@std@@YAPEBU?$copy_map_entry@U?$sequenced_index_node@U?$ordered_index_node@Unull_augment_policy@detail@multi_index@boost@@U?$index_node_base@U?$pair@$$CBV?$basic_string@DU?$char_traits@D@std@@V?$allocator@D@2@@std@@V?$basic_ptree@V?$basic_string@DU?$char_traits@D@std@@V?$allocator@D@2@@std@@V12@U?$less@V?$basic_string@DU?$char_traits@D@std@@V?$allocator@D@2@@std@@@2@@property_tree@boost@@@std@@V?$allocator@U?$pair@$$CBV?$basic_string@DU?$char_traits@D@std@@V?$allocator@D@2@@std@@V?$basic_ptree@V?$basic_string@DU?$char_traits@D@std@@V?$allocator@D@2@@std@@V12@U?$less@V?$basic_string@DU?$char_traits@D@std@@V?$allocator@D@2@@std@@@2@@property_tree@boost@@@std@@@2@@234@@detail@multi_index@boost@@@detail@multi_index@boost@@@detail@multi_index@boost@@PEBU1234@@Z
	??$_Partition_by_median_guess_unchecked@PEAU?$copy_map_entry@U?$sequenced_index_node@U?$ordered_index_node@Unull_augment_policy@detail@multi_index@boost@@U?$index_node_base@U?$pair@$$CBV?$basic_string@DU?$char_traits@D@std@@V?$allocator@D@2@@std@@V?$basic_ptree@V?$basic_string@DU?$char_traits@D@std@@V?$allocator@D@2@@std@@V12@U?$less@V?$basic_string@DU?$char_traits@D@std@@V?$allocator@D@2@@std@@@2@@property_tree@boost@@@std@@V?$allocator@U?$pair@$$CBV?$basic_string@DU?$char_traits@D@std@@V?$allocator@D@2@@std@@V?$basic_ptree@V?$basic_string@DU?$char_traits@D@std@@V?$allocator@D@2@@std@@V12@U?$less@V?$basic_string@DU?$char_traits@D@std@@V?$allocator@D@2@@std@@@2@@property_tree@boost@@@std@@@2@@234@@detail@multi_index@boost@@@detail@multi_index@boost@@@detail@multi_index@boost@@U?$less@X@std@@@std@@YA?AU?$pair@PEAU?$copy_map_entry@U?$sequenced_index_node@U?$ordered_index_node@Unull_augment_policy@detail@multi_index@boost@@U?$index_node_base@U?$pair@$$CBV?$basic_string@DU?$char_traits@D@std@@V?$allocator@D@2@@std@@V?$basic_ptree@V?$basic_string@DU?$char_traits@D@std@@V?$allocator@D@2@@std@@V12@U?$less@V?$basic_string@DU?$char_traits@D@std@@V?$allocator@D@2@@std@@@2@@property_tree@boost@@@std@@V?$allocator@U?$pair@$$CBV?$basic_string@DU?$char_traits@D@std@@V?$allocator@D@2@@std@@V?$basic_ptree@V?$basic_string@DU?$char_traits@D@std@@V?$allocator@D@2@@std@@V12@U?$less@V?$basic_string@DU?$char_traits@D@std@@V?$allocator@D@2@@std@@@2@@property_tree@boost@@@std@@@2@@234@@detail@multi_index@boost@@@detail@multi_index@boost@@@detail@multi_index@boost@@PEAU1234@@0@PEAU?$copy_map_entry@U?$sequenced_index_node@U?$ordered_index_node@Unull_augment_policy@detail@multi_index@boost@@U?$index_node_base@U?$pair@$$CBV?$basic_string@DU?$char_traits@D@std@@V?$allocator@D@2@@std@@V?$basic_ptree@V?$basic_string@DU?$char_traits@D@std@@V?$allocator@D@2@@std@@V12@U?$less@V?$basic_string@DU?$char_traits@D@std@@V?$allocator@D@2@@std@@@2@@property_tree@boost@@@std@@V?$allocator@U?$pair@$$CBV?$basic_string@DU?$char_traits@D@std@@V?$allocator@D@2@@std@@V?$basic_ptree@V?$basic_string@DU?$char_traits@D@std@@V?$allocator@D@2@@std@@V12@U?$less@V?$basic_string@DU?$char_traits@D@std@@V?$allocator@D@2@@std@@@2@@property_tree@boost@@@std@@@2@@234@@detail@multi_index@boost@@@detail@multi_index@boost@@@detail@multi_index@boost@@0U?$less@X@0@@Z
	??$_Pass_fn@U?$less@X@std@@$0A@@std@@YA?AU?$less@X@0@U10@@Z
	??$_Pocca@V?$allocator@D@std@@@std@@YAXAEAV?$allocator@D@0@AEBV10@@Z
	??$_Pocca@V?$allocator@D@std@@@std@@YAXAEAV?$allocator@D@0@AEBV10@U?$integral_constant@_N$0A@@0@@Z
	??$_Pocca@V?$allocator@_W@std@@@std@@YAXAEAV?$allocator@_W@0@AEBV10@@Z
	??$_Pocca@V?$allocator@_W@std@@@std@@YAXAEAV?$allocator@_W@0@AEBV10@U?$integral_constant@_N$0A@@0@@Z
	??$_Pocma@V?$allocator@D@std@@@std@@YAXAEAV?$allocator@D@0@0@Z
	??$_Pocma@V?$allocator@D@std@@@std@@YAXAEAV?$allocator@D@0@0U?$integral_constant@_N$00@0@@Z
	??$_Pocma@V?$allocator@_W@std@@@std@@YAXAEAV?$allocator@_W@0@0@Z
	??$_Pocma@V?$allocator@_W@std@@@std@@YAXAEAV?$allocator@_W@0@0U?$integral_constant@_N$00@0@@Z
	??$_Pocs@V?$allocator@D@std@@@std@@YAXAEAV?$allocator@D@0@0@Z
	??$_Pocs@V?$allocator@D@std@@@std@@YAXAEAV?$allocator@D@0@0U?$integral_constant@_N$0A@@0@@Z
	??$_Pop_heap_hole_by_index@PEAU?$copy_map_entry@U?$sequenced_index_node@U?$ordered_index_node@Unull_augment_policy@detail@multi_index@boost@@U?$index_node_base@U?$pair@$$CBV?$basic_string@DU?$char_traits@D@std@@V?$allocator@D@2@@std@@V?$basic_ptree@V?$basic_string@DU?$char_traits@D@std@@V?$allocator@D@2@@std@@V12@U?$less@V?$basic_string@DU?$char_traits@D@std@@V?$allocator@D@2@@std@@@2@@property_tree@boost@@@std@@V?$allocator@U?$pair@$$CBV?$basic_string@DU?$char_traits@D@std@@V?$allocator@D@2@@std@@V?$basic_ptree@V?$basic_string@DU?$char_traits@D@std@@V?$allocator@D@2@@std@@V12@U?$less@V?$basic_string@DU?$char_traits@D@std@@V?$allocator@D@2@@std@@@2@@property_tree@boost@@@std@@@2@@234@@detail@multi_index@boost@@@detail@multi_index@boost@@@detail@multi_index@boost@@U1234@U?$less@X@std@@@std@@YAXPEAU?$copy_map_entry@U?$sequenced_index_node@U?$ordered_index_node@Unull_augment_policy@detail@multi_index@boost@@U?$index_node_base@U?$pair@$$CBV?$basic_string@DU?$char_traits@D@std@@V?$allocator@D@2@@std@@V?$basic_ptree@V?$basic_string@DU?$char_traits@D@std@@V?$allocator@D@2@@std@@V12@U?$less@V?$basic_string@DU?$char_traits@D@std@@V?$allocator@D@2@@std@@@2@@property_tree@boost@@@std@@V?$allocator@U?$pair@$$CBV?$basic_string@DU?$char_traits@D@std@@V?$allocator@D@2@@std@@V?$basic_ptree@V?$basic_string@DU?$char_traits@D@std@@V?$allocator@D@2@@std@@V12@U?$less@V?$basic_string@DU?$char_traits@D@std@@V?$allocator@D@2@@std@@@2@@property_tree@boost@@@std@@@2@@234@@detail@multi_index@boost@@@detail@multi_index@boost@@@detail@multi_index@boost@@_J1$$QEAU1234@U?$less@X@0@@Z
	??$_Pop_heap_hole_unchecked@PEAU?$copy_map_entry@U?$sequenced_index_node@U?$ordered_index_node@Unull_augment_policy@detail@multi_index@boost@@U?$index_node_base@U?$pair@$$CBV?$basic_string@DU?$char_traits@D@std@@V?$allocator@D@2@@std@@V?$basic_ptree@V?$basic_string@DU?$char_traits@D@std@@V?$allocator@D@2@@std@@V12@U?$less@V?$basic_string@DU?$char_traits@D@std@@V?$allocator@D@2@@std@@@2@@property_tree@boost@@@std@@V?$allocator@U?$pair@$$CBV?$basic_string@DU?$char_traits@D@std@@V?$allocator@D@2@@std@@V?$basic_ptree@V?$basic_string@DU?$char_traits@D@std@@V?$allocator@D@2@@std@@V12@U?$less@V?$basic_string@DU?$char_traits@D@std@@V?$allocator@D@2@@std@@@2@@property_tree@boost@@@std@@@2@@234@@detail@multi_index@boost@@@detail@multi_index@boost@@@detail@multi_index@boost@@U1234@U?$less@X@std@@@std@@YAXPEAU?$copy_map_entry@U?$sequenced_index_node@U?$ordered_index_node@Unull_augment_policy@detail@multi_index@boost@@U?$index_node_base@U?$pair@$$CBV?$basic_string@DU?$char_traits@D@std@@V?$allocator@D@2@@std@@V?$basic_ptree@V?$basic_string@DU?$char_traits@D@std@@V?$allocator@D@2@@std@@V12@U?$less@V?$basic_string@DU?$char_traits@D@std@@V?$allocator@D@2@@std@@@2@@property_tree@boost@@@std@@V?$allocator@U?$pair@$$CBV?$basic_string@DU?$char_traits@D@std@@V?$allocator@D@2@@std@@V?$basic_ptree@V?$basic_string@DU?$char_traits@D@std@@V?$allocator@D@2@@std@@V12@U?$less@V?$basic_string@DU?$char_traits@D@std@@V?$allocator@D@2@@std@@@2@@property_tree@boost@@@std@@@2@@234@@detail@multi_index@boost@@@detail@multi_index@boost@@@detail@multi_index@boost@@00$$QEAU1234@U?$less@X@0@@Z
	??$_Pop_heap_unchecked@PEAU?$copy_map_entry@U?$sequenced_index_node@U?$ordered_index_node@Unull_augment_policy@detail@multi_index@boost@@U?$index_node_base@U?$pair@$$CBV?$basic_string@DU?$char_traits@D@std@@V?$allocator@D@2@@std@@V?$basic_ptree@V?$basic_string@DU?$char_traits@D@std@@V?$allocator@D@2@@std@@V12@U?$less@V?$basic_string@DU?$char_traits@D@std@@V?$allocator@D@2@@std@@@2@@property_tree@boost@@@std@@V?$allocator@U?$pair@$$CBV?$basic_string@DU?$char_traits@D@std@@V?$allocator@D@2@@std@@V?$basic_ptree@V?$basic_string@DU?$char_traits@D@std@@V?$allocator@D@2@@std@@V12@U?$less@V?$basic_string@DU?$char_traits@D@std@@V?$allocator@D@2@@std@@@2@@property_tree@boost@@@std@@@2@@234@@detail@multi_index@boost@@@detail@multi_index@boost@@@detail@multi_index@boost@@U?$less@X@std@@@std@@YAXPEAU?$copy_map_entry@U?$sequenced_index_node@U?$ordered_index_node@Unull_augment_policy@detail@multi_index@boost@@U?$index_node_base@U?$pair@$$CBV?$basic_string@DU?$char_traits@D@std@@V?$allocator@D@2@@std@@V?$basic_ptree@V?$basic_string@DU?$char_traits@D@std@@V?$allocator@D@2@@std@@V12@U?$less@V?$basic_string@DU?$char_traits@D@std@@V?$allocator@D@2@@std@@@2@@property_tree@boost@@@std@@V?$allocator@U?$pair@$$CBV?$basic_string@DU?$char_traits@D@std@@V?$allocator@D@2@@std@@V?$basic_ptree@V?$basic_string@DU?$char_traits@D@std@@V?$allocator@D@2@@std@@V12@U?$less@V?$basic_string@DU?$char_traits@D@std@@V?$allocator@D@2@@std@@@2@@property_tree@boost@@@std@@@2@@234@@detail@multi_index@boost@@@detail@multi_index@boost@@@detail@multi_index@boost@@0U?$less@X@0@@Z
	??$_Ptr_copy_cat@Uvariable_description@cse@@U12@@std@@YA?AU_General_ptr_iterator_tag@0@AEBQEAUvariable_description@cse@@0@Z
	??$_Ptr_move_cat@DD@std@@YA?AU_Really_trivial_ptr_iterator_tag@0@AEBQEAD0@Z
	??$_Ptr_move_cat@U?$copy_map_entry@U?$sequenced_index_node@U?$ordered_index_node@Unull_augment_policy@detail@multi_index@boost@@U?$index_node_base@U?$pair@$$CBV?$basic_string@DU?$char_traits@D@std@@V?$allocator@D@2@@std@@V?$basic_ptree@V?$basic_string@DU?$char_traits@D@std@@V?$allocator@D@2@@std@@V12@U?$less@V?$basic_string@DU?$char_traits@D@std@@V?$allocator@D@2@@std@@@2@@property_tree@boost@@@std@@V?$allocator@U?$pair@$$CBV?$basic_string@DU?$char_traits@D@std@@V?$allocator@D@2@@std@@V?$basic_ptree@V?$basic_string@DU?$char_traits@D@std@@V?$allocator@D@2@@std@@V12@U?$less@V?$basic_string@DU?$char_traits@D@std@@V?$allocator@D@2@@std@@@2@@property_tree@boost@@@std@@@2@@234@@detail@multi_index@boost@@@detail@multi_index@boost@@@detail@multi_index@boost@@U1234@@std@@YA?AU_Trivially_copyable_ptr_iterator_tag@0@AEBQEAU?$copy_map_entry@U?$sequenced_index_node@U?$ordered_index_node@Unull_augment_policy@detail@multi_index@boost@@U?$index_node_base@U?$pair@$$CBV?$basic_string@DU?$char_traits@D@std@@V?$allocator@D@2@@std@@V?$basic_ptree@V?$basic_string@DU?$char_traits@D@std@@V?$allocator@D@2@@std@@V12@U?$less@V?$basic_string@DU?$char_traits@D@std@@V?$allocator@D@2@@std@@@2@@property_tree@boost@@@std@@V?$allocator@U?$pair@$$CBV?$basic_string@DU?$char_traits@D@std@@V?$allocator@D@2@@std@@V?$basic_ptree@V?$basic_string@DU?$char_traits@D@std@@V?$allocator@D@2@@std@@V12@U?$less@V?$basic_string@DU?$char_traits@D@std@@V?$allocator@D@2@@std@@@2@@property_tree@boost@@@std@@@2@@234@@detail@multi_index@boost@@@detail@multi_index@boost@@@detail@multi_index@boost@@0@Z
	??$_Ptr_move_cat@Uvariable_description@cse@@U12@@std@@YA?AU_General_ptr_iterator_tag@0@AEBQEAUvariable_description@cse@@0@Z
	??$_Ptr_move_cat@V?$weak_ptr@Vslave_instance@v1@fmi@cse@@@std@@V12@@std@@YA?AU_General_ptr_iterator_tag@0@AEBQEAV?$weak_ptr@Vslave_instance@v1@fmi@cse@@@0@0@Z
	??$_Ptr_move_cat@V?$weak_ptr@Vslave_instance@v2@fmi@cse@@@std@@V12@@std@@YA?AU_General_ptr_iterator_tag@0@AEBQEAV?$weak_ptr@Vslave_instance@v2@fmi@cse@@@0@0@Z
	??$_Push_heap_by_index@PEAU?$copy_map_entry@U?$sequenced_index_node@U?$ordered_index_node@Unull_augment_policy@detail@multi_index@boost@@U?$index_node_base@U?$pair@$$CBV?$basic_string@DU?$char_traits@D@std@@V?$allocator@D@2@@std@@V?$basic_ptree@V?$basic_string@DU?$char_traits@D@std@@V?$allocator@D@2@@std@@V12@U?$less@V?$basic_string@DU?$char_traits@D@std@@V?$allocator@D@2@@std@@@2@@property_tree@boost@@@std@@V?$allocator@U?$pair@$$CBV?$basic_string@DU?$char_traits@D@std@@V?$allocator@D@2@@std@@V?$basic_ptree@V?$basic_string@DU?$char_traits@D@std@@V?$allocator@D@2@@std@@V12@U?$less@V?$basic_string@DU?$char_traits@D@std@@V?$allocator@D@2@@std@@@2@@property_tree@boost@@@std@@@2@@234@@detail@multi_index@boost@@@detail@multi_index@boost@@@detail@multi_index@boost@@U1234@U?$less@X@std@@@std@@YAXPEAU?$copy_map_entry@U?$sequenced_index_node@U?$ordered_index_node@Unull_augment_policy@detail@multi_index@boost@@U?$index_node_base@U?$pair@$$CBV?$basic_string@DU?$char_traits@D@std@@V?$allocator@D@2@@std@@V?$basic_ptree@V?$basic_string@DU?$char_traits@D@std@@V?$allocator@D@2@@std@@V12@U?$less@V?$basic_string@DU?$char_traits@D@std@@V?$allocator@D@2@@std@@@2@@property_tree@boost@@@std@@V?$allocator@U?$pair@$$CBV?$basic_string@DU?$char_traits@D@std@@V?$allocator@D@2@@std@@V?$basic_ptree@V?$basic_string@DU?$char_traits@D@std@@V?$allocator@D@2@@std@@V12@U?$less@V?$basic_string@DU?$char_traits@D@std@@V?$allocator@D@2@@std@@@2@@property_tree@boost@@@std@@@2@@234@@detail@multi_index@boost@@@detail@multi_index@boost@@@detail@multi_index@boost@@_J1$$QEAU1234@U?$less@X@0@@Z
	??$_Range_construct_or_tidy@V?$istreambuf_iterator@DU?$char_traits@D@std@@@std@@@?$vector@DV?$allocator@D@std@@@std@@AEAAXV?$istreambuf_iterator@DU?$char_traits@D@std@@@1@0Uinput_iterator_tag@1@@Z
	??$_Reallocate_for@V<lambda_138c3d7c38c85abb84c7fc7bfe5747b7>@@D@?$basic_string@DU?$char_traits@D@std@@V?$allocator@D@2@@std@@QEAAAEAV01@_KV<lambda_138c3d7c38c85abb84c7fc7bfe5747b7>@@D@Z
	??$_Reallocate_for@V<lambda_3fa8b2c8193a0f3144fc4b1b8f243931>@@PEB_W@?$basic_string@_WU?$char_traits@_W@std@@V?$allocator@_W@2@@std@@QEAAAEAV01@_KV<lambda_3fa8b2c8193a0f3144fc4b1b8f243931>@@PEB_W@Z
	??$_Reallocate_for@V<lambda_66f57f934f28d61049862f64df852ff0>@@PEBD@?$basic_string@DU?$char_traits@D@std@@V?$allocator@D@2@@std@@QEAAAEAV01@_KV<lambda_66f57f934f28d61049862f64df852ff0>@@PEBD@Z
	??$_Reallocate_grow_by@V<lambda_07b002202a580d07f308bf60d51244b2>@@_K_KPEB_W_K@?$basic_string@_WU?$char_traits@_W@std@@V?$allocator@_W@2@@std@@QEAAAEAV01@_KV<lambda_07b002202a580d07f308bf60d51244b2>@@_K2PEB_W2@Z
	??$_Reallocate_grow_by@V<lambda_19662282d61fd793232134d409f2e084>@@$$V@?$basic_string@_WU?$char_traits@_W@std@@V?$allocator@_W@2@@std@@QEAAAEAV01@_KV<lambda_19662282d61fd793232134d409f2e084>@@@Z
	??$_Reallocate_grow_by@V<lambda_1dfe18491bcca09701d8ccb01d0b0af4>@@PEB_W_K@?$basic_string@_WU?$char_traits@_W@std@@V?$allocator@_W@2@@std@@QEAAAEAV01@_KV<lambda_1dfe18491bcca09701d8ccb01d0b0af4>@@PEB_W_K@Z
	??$_Reallocate_grow_by@V<lambda_25953b27f3c43b57ba59f021c7f225c5>@@_W@?$basic_string@_WU?$char_traits@_W@std@@V?$allocator@_W@2@@std@@QEAAAEAV01@_KV<lambda_25953b27f3c43b57ba59f021c7f225c5>@@_W@Z
	??$_Reallocate_grow_by@V<lambda_319d5e083f45f90dcdce5dce53cbb275>@@D@?$basic_string@DU?$char_traits@D@std@@V?$allocator@D@2@@std@@QEAAAEAV01@_KV<lambda_319d5e083f45f90dcdce5dce53cbb275>@@D@Z
	??$_Reallocate_grow_by@V<lambda_65e615be2a453ca0576c979606f46740>@@PEBD_K@?$basic_string@DU?$char_traits@D@std@@V?$allocator@D@2@@std@@QEAAAEAV01@_KV<lambda_65e615be2a453ca0576c979606f46740>@@PEBD_K@Z
	??$_Reallocate_grow_by@V<lambda_9013ee9e23efe4882b67eff5b0ecf103>@@$$V@?$basic_string@DU?$char_traits@D@std@@V?$allocator@D@2@@std@@QEAAAEAV01@_KV<lambda_9013ee9e23efe4882b67eff5b0ecf103>@@@Z
	??$_Reallocate_grow_by@V<lambda_967c2ed818824c5314a20ec3af46b793>@@_KPEB_W_K@?$basic_string@_WU?$char_traits@_W@std@@V?$allocator@_W@2@@std@@QEAAAEAV01@_KV<lambda_967c2ed818824c5314a20ec3af46b793>@@_KPEB_W2@Z
	??$_Reallocate_grow_by@V<lambda_a3050a43f3157934f354774ab3dd2e02>@@_K_W@?$basic_string@_WU?$char_traits@_W@std@@V?$allocator@_W@2@@std@@QEAAAEAV01@_KV<lambda_a3050a43f3157934f354774ab3dd2e02>@@_K_W@Z
	??$_Reallocate_grow_by@V<lambda_e1befb086ad3257e3f042a63030725f7>@@_KD@?$basic_string@DU?$char_traits@D@std@@V?$allocator@D@2@@std@@QEAAAEAV01@_KV<lambda_e1befb086ad3257e3f042a63030725f7>@@_KD@Z
	??$_Reallocate_grow_by@V<lambda_f3a66ab6a0570788f31503db83886f49>@@_KPEBD_K@?$basic_string@DU?$char_traits@D@std@@V?$allocator@D@2@@std@@QEAAAEAV01@_KV<lambda_f3a66ab6a0570788f31503db83886f49>@@_KPEBD2@Z
	??$_Refancy@PEAD$0A@@std@@YAPEADPEAD@Z
	??$_Refancy@PEA_W$0A@@std@@YAPEA_WPEA_W@Z
	??$_Refancy@PEBD$0A@@std@@YAPEBDPEBD@Z
	??$_Refancy@PEB_W$0A@@std@@YAPEB_WPEB_W@Z
	??$_Replace_range@PEB_W@?$basic_string@_WU?$char_traits@_W@std@@V?$allocator@_W@2@@std@@QEAAAEAV01@V?$_String_const_iterator@V?$_String_val@U?$_Simple_types@_W@std@@@std@@@1@0QEB_W1U?$integral_constant@_N$00@1@@Z
	??$_Seek_wrapped@$$CBU?$copy_map_entry@U?$sequenced_index_node@U?$ordered_index_node@Unull_augment_policy@detail@multi_index@boost@@U?$index_node_base@U?$pair@$$CBV?$basic_string@DU?$char_traits@D@std@@V?$allocator@D@2@@std@@V?$basic_ptree@V?$basic_string@DU?$char_traits@D@std@@V?$allocator@D@2@@std@@V12@U?$less@V?$basic_string@DU?$char_traits@D@std@@V?$allocator@D@2@@std@@@2@@property_tree@boost@@@std@@V?$allocator@U?$pair@$$CBV?$basic_string@DU?$char_traits@D@std@@V?$allocator@D@2@@std@@V?$basic_ptree@V?$basic_string@DU?$char_traits@D@std@@V?$allocator@D@2@@std@@V12@U?$less@V?$basic_string@DU?$char_traits@D@std@@V?$allocator@D@2@@std@@@2@@property_tree@boost@@@std@@@2@@234@@detail@multi_index@boost@@@detail@multi_index@boost@@@detail@multi_index@boost@@@std@@YAXAEAPEBU?$copy_map_entry@U?$sequenced_index_node@U?$ordered_index_node@Unull_augment_policy@detail@multi_index@boost@@U?$index_node_base@U?$pair@$$CBV?$basic_string@DU?$char_traits@D@std@@V?$allocator@D@2@@std@@V?$basic_ptree@V?$basic_string@DU?$char_traits@D@std@@V?$allocator@D@2@@std@@V12@U?$less@V?$basic_string@DU?$char_traits@D@std@@V?$allocator@D@2@@std@@@2@@property_tree@boost@@@std@@V?$allocator@U?$pair@$$CBV?$basic_string@DU?$char_traits@D@std@@V?$allocator@D@2@@std@@V?$basic_ptree@V?$basic_string@DU?$char_traits@D@std@@V?$allocator@D@2@@std@@V12@U?$less@V?$basic_string@DU?$char_traits@D@std@@V?$allocator@D@2@@std@@@2@@property_tree@boost@@@std@@@2@@234@@detail@multi_index@boost@@@detail@multi_index@boost@@@detail@multi_index@boost@@QEBU1234@@Z
	??$_Seek_wrapped@$$CB_W@std@@YAXAEAPEB_WQEB_W@Z
	??$_Seek_wrapped@D@std@@YAXAEAPEADQEAD@Z
	??$_Seek_wrapped@Uvariable_description@cse@@@std@@YAXAEAPEAUvariable_description@cse@@QEAU12@@Z
	??$_Seek_wrapped@V?$_String_iterator@V?$_String_val@U?$_Simple_types@D@std@@@std@@@std@@PEAD@std@@YAXAEAV?$_String_iterator@V?$_String_val@U?$_Simple_types@D@std@@@std@@@0@AEBQEAD@Z
	??$_Seek_wrapped@V?$_Vector_iterator@V?$_Vector_val@U?$_Simple_types@V?$weak_ptr@Vslave_instance@v1@fmi@cse@@@std@@@std@@@std@@@std@@PEAV?$weak_ptr@Vslave_instance@v1@fmi@cse@@@2@@std@@YAXAEAV?$_Vector_iterator@V?$_Vector_val@U?$_Simple_types@V?$weak_ptr@Vslave_instance@v1@fmi@cse@@@std@@@std@@@std@@@0@AEBQEAV?$weak_ptr@Vslave_instance@v1@fmi@cse@@@0@@Z
	??$_Seek_wrapped@V?$_Vector_iterator@V?$_Vector_val@U?$_Simple_types@V?$weak_ptr@Vslave_instance@v2@fmi@cse@@@std@@@std@@@std@@@std@@PEAV?$weak_ptr@Vslave_instance@v2@fmi@cse@@@2@@std@@YAXAEAV?$_Vector_iterator@V?$_Vector_val@U?$_Simple_types@V?$weak_ptr@Vslave_instance@v2@fmi@cse@@@std@@@std@@@std@@@0@AEBQEAV?$weak_ptr@Vslave_instance@v2@fmi@cse@@@0@@Z
	??$_Seek_wrapped@V?$weak_ptr@Vslave_instance@v1@fmi@cse@@@std@@@std@@YAXAEAPEAV?$weak_ptr@Vslave_instance@v1@fmi@cse@@@0@QEAV10@@Z
	??$_Seek_wrapped@V?$weak_ptr@Vslave_instance@v2@fmi@cse@@@std@@@std@@YAXAEAPEAV?$weak_ptr@Vslave_instance@v2@fmi@cse@@@0@QEAV10@@Z
	??$_Set_ptr_rep_and_enable_shared@U_Dir_enum_impl@filesystem@std@@@?$shared_ptr@U_Dir_enum_impl@filesystem@std@@@std@@AEAAXPEAU_Dir_enum_impl@filesystem@1@PEAV_Ref_count_base@1@@Z
	??$_Set_ptr_rep_and_enable_shared@Vfmu@v1@fmi@cse@@@?$shared_ptr@Vfmu@fmi@cse@@@std@@AEAAXPEAVfmu@v1@fmi@cse@@PEAV_Ref_count_base@1@@Z
	??$_Set_ptr_rep_and_enable_shared@Vfmu@v2@fmi@cse@@@?$shared_ptr@Vfmu@fmi@cse@@@std@@AEAAXPEAVfmu@v2@fmi@cse@@PEAV_Ref_count_base@1@@Z
	??$_Set_ptr_rep_and_enable_shared@Vimporter@fmi@cse@@@?$shared_ptr@Vimporter@fmi@cse@@@std@@AEAAXPEAVimporter@fmi@cse@@PEAV_Ref_count_base@1@@Z
	??$_Set_ptr_rep_and_enable_shared@Vslave_instance@v1@fmi@cse@@@?$shared_ptr@Vslave_instance@v1@fmi@cse@@@std@@AEAAXPEAVslave_instance@v1@fmi@cse@@PEAV_Ref_count_base@1@@Z
	??$_Set_ptr_rep_and_enable_shared@Vslave_instance@v2@fmi@cse@@@?$shared_ptr@Vslave_instance@v2@fmi@cse@@@std@@AEAAXPEAVslave_instance@v2@fmi@cse@@PEAV_Ref_count_base@1@@Z
	??$_Setp@Vfmu@v1@fmi@cse@@@?$shared_ptr@Vfmu@fmi@cse@@@std@@AEAAXPEAVfmu@v1@fmi@cse@@U?$integral_constant@_N$0A@@1@@Z
	??$_Setp@Vfmu@v2@fmi@cse@@@?$shared_ptr@Vfmu@fmi@cse@@@std@@AEAAXPEAVfmu@v2@fmi@cse@@U?$integral_constant@_N$0A@@1@@Z
	??$_Setp@Vimporter@fmi@cse@@@?$shared_ptr@Vimporter@fmi@cse@@@std@@AEAAXPEAVimporter@fmi@cse@@U?$integral_constant@_N$0A@@1@@Z
	??$_Setp@Vslave_instance@v1@fmi@cse@@@?$shared_ptr@Vslave_instance@v1@fmi@cse@@@std@@AEAAXPEAVslave_instance@v1@fmi@cse@@U?$integral_constant@_N$0A@@1@@Z
	??$_Setp@Vslave_instance@v2@fmi@cse@@@?$shared_ptr@Vslave_instance@v2@fmi@cse@@@std@@AEAAXPEAVslave_instance@v2@fmi@cse@@U?$integral_constant@_N$0A@@1@@Z
	??$_Sort_heap_unchecked@PEAU?$copy_map_entry@U?$sequenced_index_node@U?$ordered_index_node@Unull_augment_policy@detail@multi_index@boost@@U?$index_node_base@U?$pair@$$CBV?$basic_string@DU?$char_traits@D@std@@V?$allocator@D@2@@std@@V?$basic_ptree@V?$basic_string@DU?$char_traits@D@std@@V?$allocator@D@2@@std@@V12@U?$less@V?$basic_string@DU?$char_traits@D@std@@V?$allocator@D@2@@std@@@2@@property_tree@boost@@@std@@V?$allocator@U?$pair@$$CBV?$basic_string@DU?$char_traits@D@std@@V?$allocator@D@2@@std@@V?$basic_ptree@V?$basic_string@DU?$char_traits@D@std@@V?$allocator@D@2@@std@@V12@U?$less@V?$basic_string@DU?$char_traits@D@std@@V?$allocator@D@2@@std@@@2@@property_tree@boost@@@std@@@2@@234@@detail@multi_index@boost@@@detail@multi_index@boost@@@detail@multi_index@boost@@U?$less@X@std@@@std@@YAXPEAU?$copy_map_entry@U?$sequenced_index_node@U?$ordered_index_node@Unull_augment_policy@detail@multi_index@boost@@U?$index_node_base@U?$pair@$$CBV?$basic_string@DU?$char_traits@D@std@@V?$allocator@D@2@@std@@V?$basic_ptree@V?$basic_string@DU?$char_traits@D@std@@V?$allocator@D@2@@std@@V12@U?$less@V?$basic_string@DU?$char_traits@D@std@@V?$allocator@D@2@@std@@@2@@property_tree@boost@@@std@@V?$allocator@U?$pair@$$CBV?$basic_string@DU?$char_traits@D@std@@V?$allocator@D@2@@std@@V?$basic_ptree@V?$basic_string@DU?$char_traits@D@std@@V?$allocator@D@2@@std@@V12@U?$less@V?$basic_string@DU?$char_traits@D@std@@V?$allocator@D@2@@std@@@2@@property_tree@boost@@@std@@@2@@234@@detail@multi_index@boost@@@detail@multi_index@boost@@@detail@multi_index@boost@@0U?$less@X@0@@Z
	??$_Sort_unchecked@PEAU?$copy_map_entry@U?$sequenced_index_node@U?$ordered_index_node@Unull_augment_policy@detail@multi_index@boost@@U?$index_node_base@U?$pair@$$CBV?$basic_string@DU?$char_traits@D@std@@V?$allocator@D@2@@std@@V?$basic_ptree@V?$basic_string@DU?$char_traits@D@std@@V?$allocator@D@2@@std@@V12@U?$less@V?$basic_string@DU?$char_traits@D@std@@V?$allocator@D@2@@std@@@2@@property_tree@boost@@@std@@V?$allocator@U?$pair@$$CBV?$basic_string@DU?$char_traits@D@std@@V?$allocator@D@2@@std@@V?$basic_ptree@V?$basic_string@DU?$char_traits@D@std@@V?$allocator@D@2@@std@@V12@U?$less@V?$basic_string@DU?$char_traits@D@std@@V?$allocator@D@2@@std@@@2@@property_tree@boost@@@std@@@2@@234@@detail@multi_index@boost@@@detail@multi_index@boost@@@detail@multi_index@boost@@U?$less@X@std@@@std@@YAXPEAU?$copy_map_entry@U?$sequenced_index_node@U?$ordered_index_node@Unull_augment_policy@detail@multi_index@boost@@U?$index_node_base@U?$pair@$$CBV?$basic_string@DU?$char_traits@D@std@@V?$allocator@D@2@@std@@V?$basic_ptree@V?$basic_string@DU?$char_traits@D@std@@V?$allocator@D@2@@std@@V12@U?$less@V?$basic_string@DU?$char_traits@D@std@@V?$allocator@D@2@@std@@@2@@property_tree@boost@@@std@@V?$allocator@U?$pair@$$CBV?$basic_string@DU?$char_traits@D@std@@V?$allocator@D@2@@std@@V?$basic_ptree@V?$basic_string@DU?$char_traits@D@std@@V?$allocator@D@2@@std@@V12@U?$less@V?$basic_string@DU?$char_traits@D@std@@V?$allocator@D@2@@std@@@2@@property_tree@boost@@@std@@@2@@234@@detail@multi_index@boost@@@detail@multi_index@boost@@@detail@multi_index@boost@@0_JU?$less@X@0@@Z
	??$_Stringoid_from_Source@D$03@filesystem@std@@YA?AV?$basic_string_view@DU?$char_traits@D@std@@@1@AEAY03$$CBD@Z
	??$_Stringoid_from_Source@D$0BF@@filesystem@std@@YA?AV?$basic_string_view@DU?$char_traits@D@std@@@1@AEAY0BF@$$CBD@Z
	??$_Stringoid_from_Source@DU?$char_traits@D@std@@V?$allocator@D@2@@filesystem@std@@YA?AV?$basic_string_view@DU?$char_traits@D@std@@@1@AEBV?$basic_string@DU?$char_traits@D@std@@V?$allocator@D@2@@1@@Z
	??$_Stringoid_from_Source@PEB_W@filesystem@std@@YA?AV?$basic_string_view@_WU?$char_traits@_W@std@@@1@AEBQEB_W@Z
	??$_Stringoid_from_Source@_W$08@filesystem@std@@YA?AV?$basic_string_view@_WU?$char_traits@_W@std@@@1@AEAY08$$CB_W@Z
	??$_Stringoid_from_Source@_WU?$char_traits@_W@std@@@filesystem@std@@YA?AV?$basic_string_view@_WU?$char_traits@_W@std@@@1@AEBV21@@Z
	??$_Traits_compare@U?$char_traits@D@std@@@std@@YAHQEBD_K01@Z
	??$_Traits_compare@U?$char_traits@_W@std@@@std@@YAHQEB_W_K01@Z
	??$_Traits_equal@U?$char_traits@D@std@@@std@@YA_NQEBD_K01@Z
	??$_Traits_find@U?$char_traits@_W@std@@@std@@YA_KQEB_W_K101@Z
	??$_Try_emplace@AEBV?$basic_string@DU?$char_traits@D@std@@V?$allocator@D@2@@std@@$$V@?$map@V?$basic_string@DU?$char_traits@D@std@@V?$allocator@D@2@@std@@V?$weak_ptr@Vfmu@fmi@cse@@@2@U?$less@V?$basic_string@DU?$char_traits@D@std@@V?$allocator@D@2@@std@@@2@V?$allocator@U?$pair@$$CBV?$basic_string@DU?$char_traits@D@std@@V?$allocator@D@2@@std@@V?$weak_ptr@Vfmu@fmi@cse@@@2@@std@@@2@@std@@QEAA?AU?$pair@V?$_Tree_iterator@V?$_Tree_val@U?$_Tree_simple_types@U?$pair@$$CBV?$basic_string@DU?$char_traits@D@std@@V?$allocator@D@2@@std@@V?$weak_ptr@Vfmu@fmi@cse@@@2@@std@@@std@@@std@@@std@@_N@1@AEBV?$basic_string@DU?$char_traits@D@std@@V?$allocator@D@2@@1@@Z
	??$_Try_emplace@AEBVpath@filesystem@std@@$$V@?$map@Vpath@filesystem@std@@V?$weak_ptr@Vfmu@fmi@cse@@@3@U?$less@Vpath@filesystem@std@@@3@V?$allocator@U?$pair@$$CBVpath@filesystem@std@@V?$weak_ptr@Vfmu@fmi@cse@@@3@@std@@@3@@std@@QEAA?AU?$pair@V?$_Tree_iterator@V?$_Tree_val@U?$_Tree_simple_types@U?$pair@$$CBVpath@filesystem@std@@V?$weak_ptr@Vfmu@fmi@cse@@@3@@std@@@std@@@std@@@std@@_N@1@AEBVpath@filesystem@1@@Z
	??$_Ucopy@PEAUvariable_description@cse@@@?$vector@Uvariable_description@cse@@V?$allocator@Uvariable_description@cse@@@std@@@std@@AEAAPEAUvariable_description@cse@@PEAU23@00@Z
	??$_Unaligned_load@I@filesystem@std@@YAIPEBX@Z
	??$_Unfancy@$$CBD@std@@YAPEBDPEBD@Z
	??$_Unfancy@D@std@@YAPEADPEAD@Z
	??$_Unfancy@U_Container_proxy@std@@@std@@YAPEAU_Container_proxy@0@PEAU10@@Z
	??$_Unfancy@Uvariable_description@cse@@@std@@YAPEAUvariable_description@cse@@PEAU12@@Z
	??$_Unfancy@V?$weak_ptr@Vslave_instance@v1@fmi@cse@@@std@@@std@@YAPEAV?$weak_ptr@Vslave_instance@v1@fmi@cse@@@0@PEAV10@@Z
	??$_Unfancy@V?$weak_ptr@Vslave_instance@v2@fmi@cse@@@std@@@std@@YAPEAV?$weak_ptr@Vslave_instance@v2@fmi@cse@@@0@PEAV10@@Z
	??$_Unfancy@_W@std@@YAPEA_WPEA_W@Z
	??$_Unfancy_maybe_null@D@std@@YAPEADPEAD@Z
	??$_Unfancy_maybe_null@H@std@@YAPEAHPEAH@Z
	??$_Unfancy_maybe_null@PEBD@std@@YAPEAPEBDPEAPEBD@Z
	??$_Ungetc@D@std@@YA_NAEBDPEAU_iobuf@@@Z
	??$_Uninitialized_copy@PEAUvariable_description@cse@@PEAU12@V?$allocator@Uvariable_description@cse@@@std@@@std@@YAPEAUvariable_description@cse@@QEAU12@0PEAU12@AEAV?$allocator@Uvariable_description@cse@@@0@@Z
	??$_Uninitialized_copy_al_unchecked@PEAUvariable_description@cse@@PEAU12@V?$allocator@Uvariable_description@cse@@@std@@@std@@YAPEAUvariable_description@cse@@PEAU12@QEAU12@1AEAV?$allocator@Uvariable_description@cse@@@0@U_General_ptr_iterator_tag@0@U_Unused_parameter@0@@Z
	??$_Uninitialized_move@PEADPEADV?$allocator@D@std@@@std@@YAPEADQEAD0PEADAEAV?$allocator@D@0@@Z
	??$_Uninitialized_move@PEAUvariable_description@cse@@PEAU12@V?$allocator@Uvariable_description@cse@@@std@@@std@@YAPEAUvariable_description@cse@@QEAU12@0PEAU12@AEAV?$allocator@Uvariable_description@cse@@@0@@Z
	??$_Uninitialized_move@PEAV?$weak_ptr@Vslave_instance@v1@fmi@cse@@@std@@PEAV12@V?$allocator@V?$weak_ptr@Vslave_instance@v1@fmi@cse@@@std@@@2@@std@@YAPEAV?$weak_ptr@Vslave_instance@v1@fmi@cse@@@0@QEAV10@0PEAV10@AEAV?$allocator@V?$weak_ptr@Vslave_instance@v1@fmi@cse@@@std@@@0@@Z
	??$_Uninitialized_move@PEAV?$weak_ptr@Vslave_instance@v2@fmi@cse@@@std@@PEAV12@V?$allocator@V?$weak_ptr@Vslave_instance@v2@fmi@cse@@@std@@@2@@std@@YAPEAV?$weak_ptr@Vslave_instance@v2@fmi@cse@@@0@QEAV10@0PEAV10@AEAV?$allocator@V?$weak_ptr@Vslave_instance@v2@fmi@cse@@@std@@@0@@Z
	??$_Uninitialized_move_al_unchecked@DDV?$allocator@D@std@@@std@@YAPEADQEAD00AEAV?$allocator@D@0@U_Really_trivial_ptr_iterator_tag@0@U?$integral_constant@_N$00@0@@Z
	??$_Uninitialized_move_al_unchecked@PEAUvariable_description@cse@@PEAU12@V?$allocator@Uvariable_description@cse@@@std@@@std@@YAPEAUvariable_description@cse@@PEAU12@QEAU12@1AEAV?$allocator@Uvariable_description@cse@@@0@U_General_ptr_iterator_tag@0@U_Unused_parameter@0@@Z
	??$_Uninitialized_move_al_unchecked@PEAV?$weak_ptr@Vslave_instance@v1@fmi@cse@@@std@@PEAV12@V?$allocator@V?$weak_ptr@Vslave_instance@v1@fmi@cse@@@std@@@2@@std@@YAPEAV?$weak_ptr@Vslave_instance@v1@fmi@cse@@@0@PEAV10@QEAV10@1AEAV?$allocator@V?$weak_ptr@Vslave_instance@v1@fmi@cse@@@std@@@0@U_General_ptr_iterator_tag@0@U_Unused_parameter@0@@Z
	??$_Uninitialized_move_al_unchecked@PEAV?$weak_ptr@Vslave_instance@v2@fmi@cse@@@std@@PEAV12@V?$allocator@V?$weak_ptr@Vslave_instance@v2@fmi@cse@@@std@@@2@@std@@YAPEAV?$weak_ptr@Vslave_instance@v2@fmi@cse@@@0@PEAV10@QEAV10@1AEAV?$allocator@V?$weak_ptr@Vslave_instance@v2@fmi@cse@@@std@@@0@U_General_ptr_iterator_tag@0@U_Unused_parameter@0@@Z
	??$_Uninitialized_value_construct_n1@PEAD_KV?$allocator@D@std@@@std@@YAPEADPEAD_KAEAV?$allocator@D@0@U?$integral_constant@_N$00@0@@Z
	??$_Uninitialized_value_construct_n1@PEAH_KV?$allocator@H@std@@@std@@YAPEAHPEAH_KAEAV?$allocator@H@0@U?$integral_constant@_N$00@0@@Z
	??$_Uninitialized_value_construct_n1@PEAPEBD_KV?$allocator@PEBD@std@@@std@@YAPEAPEBDPEAPEBD_KAEAV?$allocator@PEBD@0@U?$integral_constant@_N$00@0@@Z
	??$_Uninitialized_value_construct_n@PEAD_KV?$allocator@D@std@@@std@@YAPEADPEAD_KAEAV?$allocator@D@0@@Z
	??$_Uninitialized_value_construct_n@PEAH_KV?$allocator@H@std@@@std@@YAPEAHPEAH_KAEAV?$allocator@H@0@@Z
	??$_Uninitialized_value_construct_n@PEAPEBD_KV?$allocator@PEBD@std@@@std@@YAPEAPEBDPEAPEBD_KAEAV?$allocator@PEBD@0@@Z
	??$_Verify_range@D@std@@YAXQEBD0@Z
	??$_Verify_range@U?$copy_map_entry@U?$sequenced_index_node@U?$ordered_index_node@Unull_augment_policy@detail@multi_index@boost@@U?$index_node_base@U?$pair@$$CBV?$basic_string@DU?$char_traits@D@std@@V?$allocator@D@2@@std@@V?$basic_ptree@V?$basic_string@DU?$char_traits@D@std@@V?$allocator@D@2@@std@@V12@U?$less@V?$basic_string@DU?$char_traits@D@std@@V?$allocator@D@2@@std@@@2@@property_tree@boost@@@std@@V?$allocator@U?$pair@$$CBV?$basic_string@DU?$char_traits@D@std@@V?$allocator@D@2@@std@@V?$basic_ptree@V?$basic_string@DU?$char_traits@D@std@@V?$allocator@D@2@@std@@V12@U?$less@V?$basic_string@DU?$char_traits@D@std@@V?$allocator@D@2@@std@@@2@@property_tree@boost@@@std@@@2@@234@@detail@multi_index@boost@@@detail@multi_index@boost@@@detail@multi_index@boost@@@std@@YAXQEBU?$copy_map_entry@U?$sequenced_index_node@U?$ordered_index_node@Unull_augment_policy@detail@multi_index@boost@@U?$index_node_base@U?$pair@$$CBV?$basic_string@DU?$char_traits@D@std@@V?$allocator@D@2@@std@@V?$basic_ptree@V?$basic_string@DU?$char_traits@D@std@@V?$allocator@D@2@@std@@V12@U?$less@V?$basic_string@DU?$char_traits@D@std@@V?$allocator@D@2@@std@@@2@@property_tree@boost@@@std@@V?$allocator@U?$pair@$$CBV?$basic_string@DU?$char_traits@D@std@@V?$allocator@D@2@@std@@V?$basic_ptree@V?$basic_string@DU?$char_traits@D@std@@V?$allocator@D@2@@std@@V12@U?$less@V?$basic_string@DU?$char_traits@D@std@@V?$allocator@D@2@@std@@@2@@property_tree@boost@@@std@@@2@@234@@detail@multi_index@boost@@@detail@multi_index@boost@@@detail@multi_index@boost@@0@Z
	??$_Verify_range@V?$weak_ptr@Vslave_instance@v1@fmi@cse@@@std@@@std@@YAXQEBV?$weak_ptr@Vslave_instance@v1@fmi@cse@@@0@0@Z
	??$_Verify_range@V?$weak_ptr@Vslave_instance@v2@fmi@cse@@@std@@@std@@YAXQEBV?$weak_ptr@Vslave_instance@v2@fmi@cse@@@0@0@Z
	??$_Verify_range@_W@std@@YAXQEB_W0@Z
	??$_Weakly_construct_from@Vfmu@fmi@cse@@@?$_Ptr_base@Vfmu@fmi@cse@@@std@@IEAAXAEBV01@@Z
	??$_Weakly_construct_from@Vfmu@v1@fmi@cse@@@?$_Ptr_base@Vfmu@v1@fmi@cse@@@std@@IEAAXAEBV01@@Z
	??$_Weakly_construct_from@Vfmu@v2@fmi@cse@@@?$_Ptr_base@Vfmu@v2@fmi@cse@@@std@@IEAAXAEBV01@@Z
	??$_Weakly_construct_from@Vimporter@fmi@cse@@@?$_Ptr_base@Vimporter@fmi@cse@@@std@@IEAAXAEBV01@@Z
	??$_Weakly_construct_from@Vslave_instance@v1@fmi@cse@@@?$_Ptr_base@Vslave_instance@v1@fmi@cse@@@std@@IEAAXAEBV01@@Z
	??$_Weakly_construct_from@Vslave_instance@v2@fmi@cse@@@?$_Ptr_base@Vslave_instance@v2@fmi@cse@@@std@@IEAAXAEBV01@@Z
	??$_Within_limits@D@std@@YA_NAEBDU?$integral_constant@_N$00@0@1U_Unused_parameter@0@@Z
	??$_Within_limits@PEADD@std@@YA_NPEADAEBD@Z
	??$_Zero_range@PEAD@std@@YAPEADQEAD0@Z
	??$_Zero_range@PEAH@std@@YAPEAHQEAH0@Z
	??$_Zero_range@PEAPEBD@std@@YAPEAPEBDQEAPEBD0@Z
	??$add@PEAU?$ordered_index_node_impl@Unull_augment_policy@detail@multi_index@boost@@V?$allocator@D@std@@@detail@multi_index@boost@@@null_augment_policy@detail@multi_index@boost@@SAXPEAU?$ordered_index_node_impl@Unull_augment_policy@detail@multi_index@boost@@V?$allocator@D@std@@@123@0@Z
	??$addressof@$$CBU?$pair@$$CBV?$basic_string@DU?$char_traits@D@std@@V?$allocator@D@2@@std@@V?$basic_ptree@V?$basic_string@DU?$char_traits@D@std@@V?$allocator@D@2@@std@@V12@U?$less@V?$basic_string@DU?$char_traits@D@std@@V?$allocator@D@2@@std@@@2@@property_tree@boost@@@std@@@boost@@YAPEBU?$pair@$$CBV?$basic_string@DU?$char_traits@D@std@@V?$allocator@D@2@@std@@V?$basic_ptree@V?$basic_string@DU?$char_traits@D@std@@V?$allocator@D@2@@std@@V12@U?$less@V?$basic_string@DU?$char_traits@D@std@@V?$allocator@D@2@@std@@@2@@property_tree@boost@@@std@@AEBU12@@Z
	??$addressof@$$CBV?$_String_val@U?$_Simple_types@D@std@@@std@@@std@@YAPEBV?$_String_val@U?$_Simple_types@D@std@@@0@AEBV10@@Z
	??$addressof@$$CBV?$_String_val@U?$_Simple_types@_W@std@@@std@@@std@@YAPEBV?$_String_val@U?$_Simple_types@_W@std@@@0@AEBV10@@Z
	??$addressof@$$CBV?$_Tree_val@U?$_Tree_simple_types@U?$pair@$$CBV?$basic_string@DU?$char_traits@D@std@@V?$allocator@D@2@@std@@V?$weak_ptr@Vfmu@fmi@cse@@@2@@std@@@std@@@std@@@std@@YAPEBV?$_Tree_val@U?$_Tree_simple_types@U?$pair@$$CBV?$basic_string@DU?$char_traits@D@std@@V?$allocator@D@2@@std@@V?$weak_ptr@Vfmu@fmi@cse@@@2@@std@@@std@@@0@AEBV10@@Z
	??$addressof@$$CBV?$basic_string@DU?$char_traits@D@std@@V?$allocator@D@2@@std@@@std@@YAPEBV?$basic_string@DU?$char_traits@D@std@@V?$allocator@D@2@@0@AEBV10@@Z
	??$addressof@$$CBV?$basic_string@_WU?$char_traits@_W@std@@V?$allocator@_W@2@@std@@@std@@YAPEBV?$basic_string@_WU?$char_traits@_W@std@@V?$allocator@_W@2@@0@AEBV10@@Z
	??$addressof@$$CBV?$codecvt@DDU_Mbstatet@@@std@@@std@@YAPEBV?$codecvt@DDU_Mbstatet@@@0@AEBV10@@Z
	??$addressof@D@std@@YAPEADAEAD@Z
	??$addressof@PEAD@std@@YAPEAPEADAEAPEAD@Z
	??$addressof@PEAU?$_Tree_node@U?$pair@$$CBV?$basic_string@DU?$char_traits@D@std@@V?$allocator@D@2@@std@@V?$weak_ptr@Vfmu@fmi@cse@@@2@@std@@PEAX@std@@@std@@YAPEAPEAU?$_Tree_node@U?$pair@$$CBV?$basic_string@DU?$char_traits@D@std@@V?$allocator@D@2@@std@@V?$weak_ptr@Vfmu@fmi@cse@@@2@@std@@PEAX@0@AEAPEAU10@@Z
	??$addressof@PEAU?$_Tree_node@U?$pair@$$CBVpath@filesystem@std@@V?$weak_ptr@Vfmu@fmi@cse@@@3@@std@@PEAX@std@@@std@@YAPEAPEAU?$_Tree_node@U?$pair@$$CBVpath@filesystem@std@@V?$weak_ptr@Vfmu@fmi@cse@@@3@@std@@PEAX@0@AEAPEAU10@@Z
	??$addressof@PEA_W@std@@YAPEAPEA_WAEAPEA_W@Z
	??$addressof@U?$pair@$$CBV?$basic_string@DU?$char_traits@D@std@@V?$allocator@D@2@@std@@V?$basic_ptree@V?$basic_string@DU?$char_traits@D@std@@V?$allocator@D@2@@std@@V12@U?$less@V?$basic_string@DU?$char_traits@D@std@@V?$allocator@D@2@@std@@@2@@property_tree@boost@@@std@@@boost@@YAPEAU?$pair@$$CBV?$basic_string@DU?$char_traits@D@std@@V?$allocator@D@2@@std@@V?$basic_ptree@V?$basic_string@DU?$char_traits@D@std@@V?$allocator@D@2@@std@@V12@U?$less@V?$basic_string@DU?$char_traits@D@std@@V?$allocator@D@2@@std@@@2@@property_tree@boost@@@std@@AEAU12@@Z
	??$addressof@U?$pair@$$CBV?$basic_string@DU?$char_traits@D@std@@V?$allocator@D@2@@std@@V?$weak_ptr@Vfmu@fmi@cse@@@2@@std@@@std@@YAPEAU?$pair@$$CBV?$basic_string@DU?$char_traits@D@std@@V?$allocator@D@2@@std@@V?$weak_ptr@Vfmu@fmi@cse@@@2@@0@AEAU10@@Z
	??$addressof@U?$pair@$$CBVpath@filesystem@std@@V?$weak_ptr@Vfmu@fmi@cse@@@3@@std@@@std@@YAPEAU?$pair@$$CBVpath@filesystem@std@@V?$weak_ptr@Vfmu@fmi@cse@@@3@@0@AEAU10@@Z
	??$addressof@V?$_String_val@U?$_Simple_types@D@std@@@std@@@std@@YAPEAV?$_String_val@U?$_Simple_types@D@std@@@0@AEAV10@@Z
	??$addressof@V?$_String_val@U?$_Simple_types@_W@std@@@std@@@std@@YAPEAV?$_String_val@U?$_Simple_types@_W@std@@@0@AEAV10@@Z
	??$addressof@V?$_Tree_val@U?$_Tree_simple_types@U?$pair@$$CBV?$basic_string@DU?$char_traits@D@std@@V?$allocator@D@2@@std@@V?$weak_ptr@Vfmu@fmi@cse@@@2@@std@@@std@@@std@@@std@@YAPEAV?$_Tree_val@U?$_Tree_simple_types@U?$pair@$$CBV?$basic_string@DU?$char_traits@D@std@@V?$allocator@D@2@@std@@V?$weak_ptr@Vfmu@fmi@cse@@@2@@std@@@std@@@0@AEAV10@@Z
	??$addressof@V?$_Tree_val@U?$_Tree_simple_types@U?$pair@$$CBVpath@filesystem@std@@V?$weak_ptr@Vfmu@fmi@cse@@@3@@std@@@std@@@std@@@std@@YAPEAV?$_Tree_val@U?$_Tree_simple_types@U?$pair@$$CBVpath@filesystem@std@@V?$weak_ptr@Vfmu@fmi@cse@@@3@@std@@@std@@@0@AEAV10@@Z
	??$addressof@V?$_Vector_val@U?$_Simple_types@D@std@@@std@@@std@@YAPEAV?$_Vector_val@U?$_Simple_types@D@std@@@0@AEAV10@@Z
	??$addressof@V?$_Vector_val@U?$_Simple_types@H@std@@@std@@@std@@YAPEAV?$_Vector_val@U?$_Simple_types@H@std@@@0@AEAV10@@Z
	??$addressof@V?$_Vector_val@U?$_Simple_types@PEBD@std@@@std@@@std@@YAPEAV?$_Vector_val@U?$_Simple_types@PEBD@std@@@0@AEAV10@@Z
	??$addressof@V?$_Vector_val@U?$_Simple_types@Uvariable_description@cse@@@std@@@std@@@std@@YAPEAV?$_Vector_val@U?$_Simple_types@Uvariable_description@cse@@@std@@@0@AEAV10@@Z
	??$addressof@V?$_Vector_val@U?$_Simple_types@V?$weak_ptr@Vslave_instance@v1@fmi@cse@@@std@@@std@@@std@@@std@@YAPEAV?$_Vector_val@U?$_Simple_types@V?$weak_ptr@Vslave_instance@v1@fmi@cse@@@std@@@std@@@0@AEAV10@@Z
	??$addressof@V?$_Vector_val@U?$_Simple_types@V?$weak_ptr@Vslave_instance@v2@fmi@cse@@@std@@@std@@@std@@@std@@YAPEAV?$_Vector_val@U?$_Simple_types@V?$weak_ptr@Vslave_instance@v2@fmi@cse@@@std@@@std@@@0@AEAV10@@Z
	??$addressof@V?$basic_ptree@V?$basic_string@DU?$char_traits@D@std@@V?$allocator@D@2@@std@@V12@U?$less@V?$basic_string@DU?$char_traits@D@std@@V?$allocator@D@2@@std@@@2@@property_tree@boost@@@boost@@YAPEAV?$basic_ptree@V?$basic_string@DU?$char_traits@D@std@@V?$allocator@D@2@@std@@V12@U?$less@V?$basic_string@DU?$char_traits@D@std@@V?$allocator@D@2@@std@@@2@@property_tree@0@AEAV120@@Z
	??$addressof@V?$basic_string@DU?$char_traits@D@std@@V?$allocator@D@2@@std@@@std@@YAPEAV?$basic_string@DU?$char_traits@D@std@@V?$allocator@D@2@@0@AEAV10@@Z
	??$addressof@V?$basic_string@_WU?$char_traits@_W@std@@V?$allocator@_W@2@@std@@@std@@YAPEAV?$basic_string@_WU?$char_traits@_W@std@@V?$allocator@_W@2@@0@AEAV10@@Z
	??$addressof@V?$severity_logger_mt@W4level@log@cse@@@sources@v2s_mt_nt6@log@boost@@@boost@@YAPEAV?$severity_logger_mt@W4level@log@cse@@@sources@v2s_mt_nt6@log@0@AEAV12340@@Z
	??$addressof@V?$sp_ms_deleter@U?$logger_holder@V?$severity_logger_mt@W4level@log@cse@@@sources@v2s_mt_nt6@log@boost@@@aux@sources@v2s_mt_nt6@log@boost@@@detail@boost@@@boost@@YAPEAV?$sp_ms_deleter@U?$logger_holder@V?$severity_logger_mt@W4level@log@cse@@@sources@v2s_mt_nt6@log@boost@@@aux@sources@v2s_mt_nt6@log@boost@@@detail@0@AEAV120@@Z
	??$addressof@V?$unique_ptr@Uevent@@P6AXPEAU1@@Z@std@@@std@@YAPEAV?$unique_ptr@Uevent@@P6AXPEAU1@@Z@0@AEAV10@@Z
	??$addressof@V?$unique_ptr@Vadditional_path@detail@fmi@cse@@U?$default_delete@Vadditional_path@detail@fmi@cse@@@std@@@std@@@std@@YAPEAV?$unique_ptr@Vadditional_path@detail@fmi@cse@@U?$default_delete@Vadditional_path@detail@fmi@cse@@@std@@@0@AEAV10@@Z
	??$addressof@V?$unique_ptr@Vtemp_dir@utility@cse@@U?$default_delete@Vtemp_dir@utility@cse@@@std@@@std@@@std@@YAPEAV?$unique_ptr@Vtemp_dir@utility@cse@@U?$default_delete@Vtemp_dir@utility@cse@@@std@@@0@AEAV10@@Z
	??$advance@PEBU?$copy_map_entry@U?$sequenced_index_node@U?$ordered_index_node@Unull_augment_policy@detail@multi_index@boost@@U?$index_node_base@U?$pair@$$CBV?$basic_string@DU?$char_traits@D@std@@V?$allocator@D@2@@std@@V?$basic_ptree@V?$basic_string@DU?$char_traits@D@std@@V?$allocator@D@2@@std@@V12@U?$less@V?$basic_string@DU?$char_traits@D@std@@V?$allocator@D@2@@std@@@2@@property_tree@boost@@@std@@V?$allocator@U?$pair@$$CBV?$basic_string@DU?$char_traits@D@std@@V?$allocator@D@2@@std@@V?$basic_ptree@V?$basic_string@DU?$char_traits@D@std@@V?$allocator@D@2@@std@@V12@U?$less@V?$basic_string@DU?$char_traits@D@std@@V?$allocator@D@2@@std@@@2@@property_tree@boost@@@std@@@2@@234@@detail@multi_index@boost@@@detail@multi_index@boost@@@detail@multi_index@boost@@_J@std@@YAXAEAPEBU?$copy_map_entry@U?$sequenced_index_node@U?$ordered_index_node@Unull_augment_policy@detail@multi_index@boost@@U?$index_node_base@U?$pair@$$CBV?$basic_string@DU?$char_traits@D@std@@V?$allocator@D@2@@std@@V?$basic_ptree@V?$basic_string@DU?$char_traits@D@std@@V?$allocator@D@2@@std@@V12@U?$less@V?$basic_string@DU?$char_traits@D@std@@V?$allocator@D@2@@std@@@2@@property_tree@boost@@@std@@V?$allocator@U?$pair@$$CBV?$basic_string@DU?$char_traits@D@std@@V?$allocator@D@2@@std@@V?$basic_ptree@V?$basic_string@DU?$char_traits@D@std@@V?$allocator@D@2@@std@@V12@U?$less@V?$basic_string@DU?$char_traits@D@std@@V?$allocator@D@2@@std@@@2@@property_tree@boost@@@std@@@2@@234@@detail@multi_index@boost@@@detail@multi_index@boost@@@detail@multi_index@boost@@_J@Z
	??$advance@V?$_String_iterator@V?$_String_val@U?$_Simple_types@D@std@@@std@@@std@@_J@std@@YAXAEAV?$_String_iterator@V?$_String_val@U?$_Simple_types@D@std@@@std@@@0@_J@Z
	??$append@PEB_WX@?$basic_string@_WU?$char_traits@_W@std@@V?$allocator@_W@2@@std@@QEAAAEAV01@QEB_W0@Z
	??$append@V?$basic_string_view@DU?$char_traits@D@std@@@std@@X@?$basic_string@DU?$char_traits@D@std@@V?$allocator@D@2@@std@@QEAAAEAV01@AEBV?$basic_string_view@DU?$char_traits@D@std@@@1@@Z
	??$assign@V?$basic_string_view@DU?$char_traits@D@std@@@std@@X@?$basic_string@DU?$char_traits@D@std@@V?$allocator@D@2@@std@@QEAAAEAV01@AEBV?$basic_string_view@DU?$char_traits@D@std@@@1@@Z
	??$assign@V?$basic_string_view@_WU?$char_traits@_W@std@@@std@@X@?$basic_string@_WU?$char_traits@_W@std@@V?$allocator@_W@2@@std@@QEAAAEAV01@AEBV?$basic_string_view@_WU?$char_traits@_W@std@@@1@@Z
	??$begin@V?$basic_string@DU?$char_traits@D@std@@V?$allocator@D@2@@std@@@range_adl_barrier@boost@@YA?AV?$_String_iterator@V?$_String_val@U?$_Simple_types@D@std@@@std@@@std@@AEAV?$basic_string@DU?$char_traits@D@std@@V?$allocator@D@2@@3@@Z
	??$begin@V?$map@V?$basic_string@DU?$char_traits@D@std@@V?$allocator@D@2@@std@@V?$weak_ptr@Vfmu@fmi@cse@@@2@U?$less@V?$basic_string@DU?$char_traits@D@std@@V?$allocator@D@2@@std@@@2@V?$allocator@U?$pair@$$CBV?$basic_string@DU?$char_traits@D@std@@V?$allocator@D@2@@std@@V?$weak_ptr@Vfmu@fmi@cse@@@2@@std@@@2@@std@@@std@@YA?AV?$_Tree_iterator@V?$_Tree_val@U?$_Tree_simple_types@U?$pair@$$CBV?$basic_string@DU?$char_traits@D@std@@V?$allocator@D@2@@std@@V?$weak_ptr@Vfmu@fmi@cse@@@2@@std@@@std@@@std@@@0@AEAV?$map@V?$basic_string@DU?$char_traits@D@std@@V?$allocator@D@2@@std@@V?$weak_ptr@Vfmu@fmi@cse@@@2@U?$less@V?$basic_string@DU?$char_traits@D@std@@V?$allocator@D@2@@std@@@2@V?$allocator@U?$pair@$$CBV?$basic_string@DU?$char_traits@D@std@@V?$allocator@D@2@@std@@V?$weak_ptr@Vfmu@fmi@cse@@@2@@std@@@2@@0@@Z
	??$begin@V?$map@Vpath@filesystem@std@@V?$weak_ptr@Vfmu@fmi@cse@@@3@U?$less@Vpath@filesystem@std@@@3@V?$allocator@U?$pair@$$CBVpath@filesystem@std@@V?$weak_ptr@Vfmu@fmi@cse@@@3@@std@@@3@@std@@@std@@YA?AV?$_Tree_iterator@V?$_Tree_val@U?$_Tree_simple_types@U?$pair@$$CBVpath@filesystem@std@@V?$weak_ptr@Vfmu@fmi@cse@@@3@@std@@@std@@@std@@@0@AEAV?$map@Vpath@filesystem@std@@V?$weak_ptr@Vfmu@fmi@cse@@@3@U?$less@Vpath@filesystem@std@@@3@V?$allocator@U?$pair@$$CBVpath@filesystem@std@@V?$weak_ptr@Vfmu@fmi@cse@@@3@@std@@@3@@0@@Z
	??$begin@V?$vector@V?$weak_ptr@Vslave_instance@v1@fmi@cse@@@std@@V?$allocator@V?$weak_ptr@Vslave_instance@v1@fmi@cse@@@std@@@2@@std@@@std@@YA?AV?$_Vector_iterator@V?$_Vector_val@U?$_Simple_types@V?$weak_ptr@Vslave_instance@v1@fmi@cse@@@std@@@std@@@std@@@0@AEAV?$vector@V?$weak_ptr@Vslave_instance@v1@fmi@cse@@@std@@V?$allocator@V?$weak_ptr@Vslave_instance@v1@fmi@cse@@@std@@@2@@0@@Z
	??$begin@V?$vector@V?$weak_ptr@Vslave_instance@v2@fmi@cse@@@std@@V?$allocator@V?$weak_ptr@Vslave_instance@v2@fmi@cse@@@std@@@2@@std@@@std@@YA?AV?$_Vector_iterator@V?$_Vector_val@U?$_Simple_types@V?$weak_ptr@Vslave_instance@v2@fmi@cse@@@std@@@std@@@std@@@0@AEAV?$vector@V?$weak_ptr@Vslave_instance@v2@fmi@cse@@@std@@V?$allocator@V?$weak_ptr@Vslave_instance@v2@fmi@cse@@@std@@@2@@0@@Z
	??$checked_delete@V?$mersenne_twister_engine@I$0CA@$0CHA@$0BIN@$0BP@$0JJAILANP@$0L@$0PPPPPPPP@$06$0JNCMFGIA@$0P@$0OPMGAAAA@$0BC@$0GMAHIJGF@@random@boost@@@boost@@YAXPEAV?$mersenne_twister_engine@I$0CA@$0CHA@$0BIN@$0BP@$0JJAILANP@$0L@$0PPPPPPPP@$06$0JNCMFGIA@$0P@$0OPMGAAAA@$0BC@$0GMAHIJGF@@random@0@@Z
	??$compare@D@internal@rapidxml@detail@property_tree@boost@@YA_NPEBD_K01_N@Z
	??$construct@DD@?$_Default_allocator_traits@V?$allocator@D@std@@@std@@SAXAEAV?$allocator@D@1@QEAD$$QEAD@Z
	??$construct@PEADAEBQEAD@?$_Default_allocator_traits@V?$allocator@D@std@@@std@@SAXAEAV?$allocator@D@1@QEAPEADAEBQEAD@Z
	??$construct@PEAU?$_Tree_node@U?$pair@$$CBV?$basic_string@DU?$char_traits@D@std@@V?$allocator@D@2@@std@@V?$weak_ptr@Vfmu@fmi@cse@@@2@@std@@PEAX@std@@AEAPEAU12@@?$_Default_allocator_traits@V?$allocator@U?$_Tree_node@U?$pair@$$CBV?$basic_string@DU?$char_traits@D@std@@V?$allocator@D@2@@std@@V?$weak_ptr@Vfmu@fmi@cse@@@2@@std@@PEAX@std@@@std@@@std@@SAXAEAV?$allocator@U?$_Tree_node@U?$pair@$$CBV?$basic_string@DU?$char_traits@D@std@@V?$allocator@D@2@@std@@V?$weak_ptr@Vfmu@fmi@cse@@@2@@std@@PEAX@std@@@1@QEAPEAU?$_Tree_node@U?$pair@$$CBV?$basic_string@DU?$char_traits@D@std@@V?$allocator@D@2@@std@@V?$weak_ptr@Vfmu@fmi@cse@@@2@@std@@PEAX@1@AEAPEAU31@@Z
	??$construct@PEAU?$_Tree_node@U?$pair@$$CBVpath@filesystem@std@@V?$weak_ptr@Vfmu@fmi@cse@@@3@@std@@PEAX@std@@AEAPEAU12@@?$_Default_allocator_traits@V?$allocator@U?$_Tree_node@U?$pair@$$CBVpath@filesystem@std@@V?$weak_ptr@Vfmu@fmi@cse@@@3@@std@@PEAX@std@@@std@@@std@@SAXAEAV?$allocator@U?$_Tree_node@U?$pair@$$CBVpath@filesystem@std@@V?$weak_ptr@Vfmu@fmi@cse@@@3@@std@@PEAX@std@@@1@QEAPEAU?$_Tree_node@U?$pair@$$CBVpath@filesystem@std@@V?$weak_ptr@Vfmu@fmi@cse@@@3@@std@@PEAX@1@AEAPEAU31@@Z
	??$construct@PEA_WAEBQEA_W@?$_Default_allocator_traits@V?$allocator@_W@std@@@std@@SAXAEAV?$allocator@_W@1@QEAPEA_WAEBQEA_W@Z
	??$construct@U?$pair@$$CBV?$basic_string@DU?$char_traits@D@std@@V?$allocator@D@2@@std@@V?$basic_ptree@V?$basic_string@DU?$char_traits@D@std@@V?$allocator@D@2@@std@@V12@U?$less@V?$basic_string@DU?$char_traits@D@std@@V?$allocator@D@2@@std@@@2@@property_tree@boost@@@std@@@allocator@detail@boost@@YAXPEAXAEBU?$pair@$$CBV?$basic_string@DU?$char_traits@D@std@@V?$allocator@D@2@@std@@V?$basic_ptree@V?$basic_string@DU?$char_traits@D@std@@V?$allocator@D@2@@std@@V12@U?$less@V?$basic_string@DU?$char_traits@D@std@@V?$allocator@D@2@@std@@@2@@property_tree@boost@@@std@@@Z
	??$construct@U?$pair@$$CBV?$basic_string@DU?$char_traits@D@std@@V?$allocator@D@2@@std@@V?$weak_ptr@Vfmu@fmi@cse@@@2@@std@@AEBUpiecewise_construct_t@2@V?$tuple@AEBV?$basic_string@DU?$char_traits@D@std@@V?$allocator@D@2@@std@@@2@V?$tuple@$$V@2@@?$_Default_allocator_traits@V?$allocator@U?$_Tree_node@U?$pair@$$CBV?$basic_string@DU?$char_traits@D@std@@V?$allocator@D@2@@std@@V?$weak_ptr@Vfmu@fmi@cse@@@2@@std@@PEAX@std@@@std@@@std@@SAXAEAV?$allocator@U?$_Tree_node@U?$pair@$$CBV?$basic_string@DU?$char_traits@D@std@@V?$allocator@D@2@@std@@V?$weak_ptr@Vfmu@fmi@cse@@@2@@std@@PEAX@std@@@1@QEAU?$pair@$$CBV?$basic_string@DU?$char_traits@D@std@@V?$allocator@D@2@@std@@V?$weak_ptr@Vfmu@fmi@cse@@@2@@1@AEBUpiecewise_construct_t@1@$$QEAV?$tuple@AEBV?$basic_string@DU?$char_traits@D@std@@V?$allocator@D@2@@std@@@1@$$QEAV?$tuple@$$V@1@@Z
	??$construct@U?$pair@$$CBVpath@filesystem@std@@V?$weak_ptr@Vfmu@fmi@cse@@@3@@std@@AEBUpiecewise_construct_t@2@V?$tuple@AEBVpath@filesystem@std@@@2@V?$tuple@$$V@2@@?$_Default_allocator_traits@V?$allocator@U?$_Tree_node@U?$pair@$$CBVpath@filesystem@std@@V?$weak_ptr@Vfmu@fmi@cse@@@3@@std@@PEAX@std@@@std@@@std@@SAXAEAV?$allocator@U?$_Tree_node@U?$pair@$$CBVpath@filesystem@std@@V?$weak_ptr@Vfmu@fmi@cse@@@3@@std@@PEAX@std@@@1@QEAU?$pair@$$CBVpath@filesystem@std@@V?$weak_ptr@Vfmu@fmi@cse@@@3@@1@AEBUpiecewise_construct_t@1@$$QEAV?$tuple@AEBVpath@filesystem@std@@@1@$$QEAV?$tuple@$$V@1@@Z
	??$construct@U_Container_proxy@std@@U12@@?$_Default_allocator_traits@V?$allocator@U_Container_proxy@std@@@std@@@std@@SAXAEAV?$allocator@U_Container_proxy@std@@@1@QEAU_Container_proxy@1@$$QEAU31@@Z
	??$construct@Uvariable_description@cse@@AEAU12@@?$_Default_allocator_traits@V?$allocator@Uvariable_description@cse@@@std@@@std@@SAXAEAV?$allocator@Uvariable_description@cse@@@1@QEAUvariable_description@cse@@AEAU34@@Z
	??$construct@Uvariable_description@cse@@U12@@?$_Default_allocator_traits@V?$allocator@Uvariable_description@cse@@@std@@@std@@SAXAEAV?$allocator@Uvariable_description@cse@@@1@QEAUvariable_description@cse@@$$QEAU34@@Z
	??$construct@V?$weak_ptr@Vslave_instance@v1@fmi@cse@@@std@@V12@@?$_Default_allocator_traits@V?$allocator@V?$weak_ptr@Vslave_instance@v1@fmi@cse@@@std@@@std@@@std@@SAXAEAV?$allocator@V?$weak_ptr@Vslave_instance@v1@fmi@cse@@@std@@@1@QEAV?$weak_ptr@Vslave_instance@v1@fmi@cse@@@1@$$QEAV31@@Z
	??$construct@V?$weak_ptr@Vslave_instance@v2@fmi@cse@@@std@@V12@@?$_Default_allocator_traits@V?$allocator@V?$weak_ptr@Vslave_instance@v2@fmi@cse@@@std@@@std@@@std@@SAXAEAV?$allocator@V?$weak_ptr@Vslave_instance@v2@fmi@cse@@@std@@@1@QEAV?$weak_ptr@Vslave_instance@v2@fmi@cse@@@1@$$QEAV31@@Z
	??$copy@PEAU?$ordered_index_node_impl@Unull_augment_policy@detail@multi_index@boost@@V?$allocator@D@std@@@detail@multi_index@boost@@@null_augment_policy@detail@multi_index@boost@@SAXPEAU?$ordered_index_node_impl@Unull_augment_policy@detail@multi_index@boost@@V?$allocator@D@std@@@123@0@Z
	??$count@PEADD@std@@YA_JQEAD0AEBD@Z
	??$dereference@$$CBU?$bool_@$00@mpl@boost@@@?$integral_constant@_N$00@boost@@SAAEBU?$bool_@$00@mpl@1@PEBU231@@Z
	??$dereference@$$CBU?$bool_@$0A@@mpl@boost@@@?$integral_constant@_N$0A@@boost@@SAAEBU?$bool_@$0A@@mpl@1@PEBU231@@Z
	??$dereference@V?$generator_iterator@Vseed_rng@detail@uuids@boost@@@detail@uuids@boost@@@iterator_core_access@iterators@boost@@CAAEBIAEBV?$generator_iterator@Vseed_rng@detail@uuids@boost@@@detail@uuids@2@@Z
	??$dereference@Vconst_assoc_iterator@?$basic_ptree@V?$basic_string@DU?$char_traits@D@std@@V?$allocator@D@2@@std@@V12@U?$less@V?$basic_string@DU?$char_traits@D@std@@V?$allocator@D@2@@std@@@2@@property_tree@boost@@@iterator_core_access@iterators@boost@@CAAEBU?$pair@$$CBV?$basic_string@DU?$char_traits@D@std@@V?$allocator@D@2@@std@@V?$basic_ptree@V?$basic_string@DU?$char_traits@D@std@@V?$allocator@D@2@@std@@V12@U?$less@V?$basic_string@DU?$char_traits@D@std@@V?$allocator@D@2@@std@@@2@@property_tree@boost@@@std@@AEBVconst_assoc_iterator@?$basic_ptree@V?$basic_string@DU?$char_traits@D@std@@V?$allocator@D@2@@std@@V12@U?$less@V?$basic_string@DU?$char_traits@D@std@@V?$allocator@D@2@@std@@@2@@property_tree@2@@Z
	??$dereference@Viterator@?$basic_ptree@V?$basic_string@DU?$char_traits@D@std@@V?$allocator@D@2@@std@@V12@U?$less@V?$basic_string@DU?$char_traits@D@std@@V?$allocator@D@2@@std@@@2@@property_tree@boost@@@iterator_core_access@iterators@boost@@CAAEAU?$pair@$$CBV?$basic_string@DU?$char_traits@D@std@@V?$allocator@D@2@@std@@V?$basic_ptree@V?$basic_string@DU?$char_traits@D@std@@V?$allocator@D@2@@std@@V12@U?$less@V?$basic_string@DU?$char_traits@D@std@@V?$allocator@D@2@@std@@@2@@property_tree@boost@@@std@@AEBViterator@?$basic_ptree@V?$basic_string@DU?$char_traits@D@std@@V?$allocator@D@2@@std@@V12@U?$less@V?$basic_string@DU?$char_traits@D@std@@V?$allocator@D@2@@std@@@2@@property_tree@2@@Z
	??$destroy@PEAD@?$_Default_allocator_traits@V?$allocator@D@std@@@std@@SAXAEAV?$allocator@D@1@QEAPEAD@Z
	??$destroy@PEAU?$_Tree_node@U?$pair@$$CBV?$basic_string@DU?$char_traits@D@std@@V?$allocator@D@2@@std@@V?$weak_ptr@Vfmu@fmi@cse@@@2@@std@@PEAX@std@@@?$_Default_allocator_traits@V?$allocator@U?$_Tree_node@U?$pair@$$CBV?$basic_string@DU?$char_traits@D@std@@V?$allocator@D@2@@std@@V?$weak_ptr@Vfmu@fmi@cse@@@2@@std@@PEAX@std@@@std@@@std@@SAXAEAV?$allocator@U?$_Tree_node@U?$pair@$$CBV?$basic_string@DU?$char_traits@D@std@@V?$allocator@D@2@@std@@V?$weak_ptr@Vfmu@fmi@cse@@@2@@std@@PEAX@std@@@1@QEAPEAU?$_Tree_node@U?$pair@$$CBV?$basic_string@DU?$char_traits@D@std@@V?$allocator@D@2@@std@@V?$weak_ptr@Vfmu@fmi@cse@@@2@@std@@PEAX@1@@Z
	??$destroy@PEAU?$_Tree_node@U?$pair@$$CBVpath@filesystem@std@@V?$weak_ptr@Vfmu@fmi@cse@@@3@@std@@PEAX@std@@@?$_Default_allocator_traits@V?$allocator@U?$_Tree_node@U?$pair@$$CBVpath@filesystem@std@@V?$weak_ptr@Vfmu@fmi@cse@@@3@@std@@PEAX@std@@@std@@@std@@SAXAEAV?$allocator@U?$_Tree_node@U?$pair@$$CBVpath@filesystem@std@@V?$weak_ptr@Vfmu@fmi@cse@@@3@@std@@PEAX@std@@@1@QEAPEAU?$_Tree_node@U?$pair@$$CBVpath@filesystem@std@@V?$weak_ptr@Vfmu@fmi@cse@@@3@@std@@PEAX@1@@Z
	??$destroy@PEA_W@?$_Default_allocator_traits@V?$allocator@_W@std@@@std@@SAXAEAV?$allocator@_W@1@QEAPEA_W@Z
	??$destroy@U?$pair@$$CBV?$basic_string@DU?$char_traits@D@std@@V?$allocator@D@2@@std@@V?$basic_ptree@V?$basic_string@DU?$char_traits@D@std@@V?$allocator@D@2@@std@@V12@U?$less@V?$basic_string@DU?$char_traits@D@std@@V?$allocator@D@2@@std@@@2@@property_tree@boost@@@std@@@allocator@detail@boost@@YAXPEBU?$pair@$$CBV?$basic_string@DU?$char_traits@D@std@@V?$allocator@D@2@@std@@V?$basic_ptree@V?$basic_string@DU?$char_traits@D@std@@V?$allocator@D@2@@std@@V12@U?$less@V?$basic_string@DU?$char_traits@D@std@@V?$allocator@D@2@@std@@@2@@property_tree@boost@@@std@@@Z
	??$destroy@U?$pair@$$CBV?$basic_string@DU?$char_traits@D@std@@V?$allocator@D@2@@std@@V?$weak_ptr@Vfmu@fmi@cse@@@2@@std@@@?$_Default_allocator_traits@V?$allocator@U?$_Tree_node@U?$pair@$$CBV?$basic_string@DU?$char_traits@D@std@@V?$allocator@D@2@@std@@V?$weak_ptr@Vfmu@fmi@cse@@@2@@std@@PEAX@std@@@std@@@std@@SAXAEAV?$allocator@U?$_Tree_node@U?$pair@$$CBV?$basic_string@DU?$char_traits@D@std@@V?$allocator@D@2@@std@@V?$weak_ptr@Vfmu@fmi@cse@@@2@@std@@PEAX@std@@@1@QEAU?$pair@$$CBV?$basic_string@DU?$char_traits@D@std@@V?$allocator@D@2@@std@@V?$weak_ptr@Vfmu@fmi@cse@@@2@@1@@Z
	??$destroy@U?$pair@$$CBVpath@filesystem@std@@V?$weak_ptr@Vfmu@fmi@cse@@@3@@std@@@?$_Default_allocator_traits@V?$allocator@U?$_Tree_node@U?$pair@$$CBVpath@filesystem@std@@V?$weak_ptr@Vfmu@fmi@cse@@@3@@std@@PEAX@std@@@std@@@std@@SAXAEAV?$allocator@U?$_Tree_node@U?$pair@$$CBVpath@filesystem@std@@V?$weak_ptr@Vfmu@fmi@cse@@@3@@std@@PEAX@std@@@1@QEAU?$pair@$$CBVpath@filesystem@std@@V?$weak_ptr@Vfmu@fmi@cse@@@3@@1@@Z
	??$destroy@U_Container_proxy@std@@@?$_Default_allocator_traits@V?$allocator@U_Container_proxy@std@@@std@@@std@@SAXAEAV?$allocator@U_Container_proxy@std@@@1@QEAU_Container_proxy@1@@Z
	??$destroy@Uvariable_description@cse@@@?$_Default_allocator_traits@V?$allocator@Uvariable_description@cse@@@std@@@std@@SAXAEAV?$allocator@Uvariable_description@cse@@@1@QEAUvariable_description@cse@@@Z
	??$destroy@V?$weak_ptr@Vslave_instance@v1@fmi@cse@@@std@@@?$_Default_allocator_traits@V?$allocator@V?$weak_ptr@Vslave_instance@v1@fmi@cse@@@std@@@std@@@std@@SAXAEAV?$allocator@V?$weak_ptr@Vslave_instance@v1@fmi@cse@@@std@@@1@QEAV?$weak_ptr@Vslave_instance@v1@fmi@cse@@@1@@Z
	??$destroy@V?$weak_ptr@Vslave_instance@v2@fmi@cse@@@std@@@?$_Default_allocator_traits@V?$allocator@V?$weak_ptr@Vslave_instance@v2@fmi@cse@@@std@@@std@@@std@@SAXAEAV?$allocator@V?$weak_ptr@Vslave_instance@v2@fmi@cse@@@std@@@1@QEAV?$weak_ptr@Vslave_instance@v2@fmi@cse@@@1@@Z
	??$distance@PEBU?$copy_map_entry@U?$sequenced_index_node@U?$ordered_index_node@Unull_augment_policy@detail@multi_index@boost@@U?$index_node_base@U?$pair@$$CBV?$basic_string@DU?$char_traits@D@std@@V?$allocator@D@2@@std@@V?$basic_ptree@V?$basic_string@DU?$char_traits@D@std@@V?$allocator@D@2@@std@@V12@U?$less@V?$basic_string@DU?$char_traits@D@std@@V?$allocator@D@2@@std@@@2@@property_tree@boost@@@std@@V?$allocator@U?$pair@$$CBV?$basic_string@DU?$char_traits@D@std@@V?$allocator@D@2@@std@@V?$basic_ptree@V?$basic_string@DU?$char_traits@D@std@@V?$allocator@D@2@@std@@V12@U?$less@V?$basic_string@DU?$char_traits@D@std@@V?$allocator@D@2@@std@@@2@@property_tree@boost@@@std@@@2@@234@@detail@multi_index@boost@@@detail@multi_index@boost@@@detail@multi_index@boost@@@std@@YA_JPEBU?$copy_map_entry@U?$sequenced_index_node@U?$ordered_index_node@Unull_augment_policy@detail@multi_index@boost@@U?$index_node_base@U?$pair@$$CBV?$basic_string@DU?$char_traits@D@std@@V?$allocator@D@2@@std@@V?$basic_ptree@V?$basic_string@DU?$char_traits@D@std@@V?$allocator@D@2@@std@@V12@U?$less@V?$basic_string@DU?$char_traits@D@std@@V?$allocator@D@2@@std@@@2@@property_tree@boost@@@std@@V?$allocator@U?$pair@$$CBV?$basic_string@DU?$char_traits@D@std@@V?$allocator@D@2@@std@@V?$basic_ptree@V?$basic_string@DU?$char_traits@D@std@@V?$allocator@D@2@@std@@V12@U?$less@V?$basic_string@DU?$char_traits@D@std@@V?$allocator@D@2@@std@@@2@@property_tree@boost@@@std@@@2@@234@@detail@multi_index@boost@@@detail@multi_index@boost@@@detail@multi_index@boost@@0@Z
	??$distance@V?$_String_const_iterator@V?$_String_val@U?$_Simple_types@D@std@@@std@@@std@@@std@@YA_JV?$_String_const_iterator@V?$_String_val@U?$_Simple_types@D@std@@@std@@@0@0@Z
	??$distance@V?$_Tree_const_iterator@V?$_Tree_val@U?$_Tree_simple_types@U?$pair@$$CBV?$basic_string@DU?$char_traits@D@std@@V?$allocator@D@2@@std@@V?$weak_ptr@Vfmu@fmi@cse@@@2@@std@@@std@@@std@@@std@@@std@@YA_JV?$_Tree_const_iterator@V?$_Tree_val@U?$_Tree_simple_types@U?$pair@$$CBV?$basic_string@DU?$char_traits@D@std@@V?$allocator@D@2@@std@@V?$weak_ptr@Vfmu@fmi@cse@@@2@@std@@@std@@@std@@@0@0@Z
	??$emplace_back@D@?$vector@DV?$allocator@D@std@@@std@@QEAAAEAD$$QEAD@Z
	??$emplace_back@Uvariable_description@cse@@@?$vector@Uvariable_description@cse@@V?$allocator@Uvariable_description@cse@@@std@@@std@@QEAAAEAUvariable_description@cse@@$$QEAU23@@Z
	??$emplace_back@V?$weak_ptr@Vslave_instance@v1@fmi@cse@@@std@@@?$vector@V?$weak_ptr@Vslave_instance@v1@fmi@cse@@@std@@V?$allocator@V?$weak_ptr@Vslave_instance@v1@fmi@cse@@@std@@@2@@std@@QEAAAEAV?$weak_ptr@Vslave_instance@v1@fmi@cse@@@1@$$QEAV21@@Z
	??$emplace_back@V?$weak_ptr@Vslave_instance@v2@fmi@cse@@@std@@@?$vector@V?$weak_ptr@Vslave_instance@v2@fmi@cse@@@std@@V?$allocator@V?$weak_ptr@Vslave_instance@v2@fmi@cse@@@std@@@2@@std@@QEAAAEAV?$weak_ptr@Vslave_instance@v2@fmi@cse@@@1@$$QEAV21@@Z
	??$emplace_hint@AEBUpiecewise_construct_t@std@@V?$tuple@AEBV?$basic_string@DU?$char_traits@D@std@@V?$allocator@D@2@@std@@@2@V?$tuple@$$V@2@@?$_Tree@V?$_Tmap_traits@V?$basic_string@DU?$char_traits@D@std@@V?$allocator@D@2@@std@@V?$weak_ptr@Vfmu@fmi@cse@@@2@U?$less@V?$basic_string@DU?$char_traits@D@std@@V?$allocator@D@2@@std@@@2@V?$allocator@U?$pair@$$CBV?$basic_string@DU?$char_traits@D@std@@V?$allocator@D@2@@std@@V?$weak_ptr@Vfmu@fmi@cse@@@2@@std@@@2@$0A@@std@@@std@@QEAA?AV?$_Tree_iterator@V?$_Tree_val@U?$_Tree_simple_types@U?$pair@$$CBV?$basic_string@DU?$char_traits@D@std@@V?$allocator@D@2@@std@@V?$weak_ptr@Vfmu@fmi@cse@@@2@@std@@@std@@@std@@@1@V?$_Tree_const_iterator@V?$_Tree_val@U?$_Tree_simple_types@U?$pair@$$CBV?$basic_string@DU?$char_traits@D@std@@V?$allocator@D@2@@std@@V?$weak_ptr@Vfmu@fmi@cse@@@2@@std@@@std@@@std@@@1@AEBUpiecewise_construct_t@1@$$QEAV?$tuple@AEBV?$basic_string@DU?$char_traits@D@std@@V?$allocator@D@2@@std@@@1@$$QEAV?$tuple@$$V@1@@Z
	??$emplace_hint@AEBUpiecewise_construct_t@std@@V?$tuple@AEBVpath@filesystem@std@@@2@V?$tuple@$$V@2@@?$_Tree@V?$_Tmap_traits@Vpath@filesystem@std@@V?$weak_ptr@Vfmu@fmi@cse@@@3@U?$less@Vpath@filesystem@std@@@3@V?$allocator@U?$pair@$$CBVpath@filesystem@std@@V?$weak_ptr@Vfmu@fmi@cse@@@3@@std@@@3@$0A@@std@@@std@@QEAA?AV?$_Tree_iterator@V?$_Tree_val@U?$_Tree_simple_types@U?$pair@$$CBVpath@filesystem@std@@V?$weak_ptr@Vfmu@fmi@cse@@@3@@std@@@std@@@std@@@1@V?$_Tree_const_iterator@V?$_Tree_val@U?$_Tree_simple_types@U?$pair@$$CBVpath@filesystem@std@@V?$weak_ptr@Vfmu@fmi@cse@@@3@@std@@@std@@@std@@@1@AEBUpiecewise_construct_t@1@$$QEAV?$tuple@AEBVpath@filesystem@std@@@1@$$QEAV?$tuple@$$V@1@@Z
	??$enable_current_exception@U?$error_info_injector@Vinvalid_argument@std@@@exception_detail@boost@@@boost@@YA?AV?$clone_impl@U?$error_info_injector@Vinvalid_argument@std@@@exception_detail@boost@@@exception_detail@0@AEBU?$error_info_injector@Vinvalid_argument@std@@@20@@Z
	??$enable_current_exception@U?$error_info_injector@Vptree_bad_path@property_tree@boost@@@exception_detail@boost@@@boost@@YA?AV?$clone_impl@U?$error_info_injector@Vptree_bad_path@property_tree@boost@@@exception_detail@boost@@@exception_detail@0@AEBU?$error_info_injector@Vptree_bad_path@property_tree@boost@@@20@@Z
	??$enable_current_exception@U?$error_info_injector@Vruntime_error@std@@@exception_detail@boost@@@boost@@YA?AV?$clone_impl@U?$error_info_injector@Vruntime_error@std@@@exception_detail@boost@@@exception_detail@0@AEBU?$error_info_injector@Vruntime_error@std@@@20@@Z
	??$enable_current_exception@U?$error_info_injector@Vxml_parser_error@xml_parser@property_tree@boost@@@exception_detail@boost@@@boost@@YA?AV?$clone_impl@U?$error_info_injector@Vxml_parser_error@xml_parser@property_tree@boost@@@exception_detail@boost@@@exception_detail@0@AEBU?$error_info_injector@Vxml_parser_error@xml_parser@property_tree@boost@@@20@@Z
	??$enable_error_info@U?$error_info_injector@Vptree_bad_path@property_tree@boost@@@exception_detail@boost@@@boost@@YA?AU?$error_info_injector@Vptree_bad_path@property_tree@boost@@@exception_detail@0@AEBU120@@Z
	??$enable_error_info@U?$error_info_injector@Vruntime_error@std@@@exception_detail@boost@@@boost@@YA?AU?$error_info_injector@Vruntime_error@std@@@exception_detail@0@AEBU120@@Z
	??$enable_error_info@U?$error_info_injector@Vxml_parser_error@xml_parser@property_tree@boost@@@exception_detail@boost@@@boost@@YA?AU?$error_info_injector@Vxml_parser_error@xml_parser@property_tree@boost@@@exception_detail@0@AEBU120@@Z
	??$enable_error_info@Vinvalid_argument@std@@@boost@@YA?AU?$error_info_injector@Vinvalid_argument@std@@@exception_detail@0@AEBVinvalid_argument@std@@@Z
	??$enable_error_info@Vptree_bad_path@property_tree@boost@@@boost@@YA?AU?$error_info_injector@Vptree_bad_path@property_tree@boost@@@exception_detail@0@AEBVptree_bad_path@property_tree@0@@Z
	??$enable_error_info@Vruntime_error@std@@@boost@@YA?AU?$error_info_injector@Vruntime_error@std@@@exception_detail@0@AEBVruntime_error@std@@@Z
	??$enable_error_info@Vxml_parser_error@xml_parser@property_tree@boost@@@boost@@YA?AU?$error_info_injector@Vxml_parser_error@xml_parser@property_tree@boost@@@exception_detail@0@AEBVxml_parser_error@xml_parser@property_tree@0@@Z
	??$end@V?$basic_string@DU?$char_traits@D@std@@V?$allocator@D@2@@std@@@range_adl_barrier@boost@@YA?AV?$_String_iterator@V?$_String_val@U?$_Simple_types@D@std@@@std@@@std@@AEAV?$basic_string@DU?$char_traits@D@std@@V?$allocator@D@2@@3@@Z
	??$end@V?$map@V?$basic_string@DU?$char_traits@D@std@@V?$allocator@D@2@@std@@V?$weak_ptr@Vfmu@fmi@cse@@@2@U?$less@V?$basic_string@DU?$char_traits@D@std@@V?$allocator@D@2@@std@@@2@V?$allocator@U?$pair@$$CBV?$basic_string@DU?$char_traits@D@std@@V?$allocator@D@2@@std@@V?$weak_ptr@Vfmu@fmi@cse@@@2@@std@@@2@@std@@@std@@YA?AV?$_Tree_iterator@V?$_Tree_val@U?$_Tree_simple_types@U?$pair@$$CBV?$basic_string@DU?$char_traits@D@std@@V?$allocator@D@2@@std@@V?$weak_ptr@Vfmu@fmi@cse@@@2@@std@@@std@@@std@@@0@AEAV?$map@V?$basic_string@DU?$char_traits@D@std@@V?$allocator@D@2@@std@@V?$weak_ptr@Vfmu@fmi@cse@@@2@U?$less@V?$basic_string@DU?$char_traits@D@std@@V?$allocator@D@2@@std@@@2@V?$allocator@U?$pair@$$CBV?$basic_string@DU?$char_traits@D@std@@V?$allocator@D@2@@std@@V?$weak_ptr@Vfmu@fmi@cse@@@2@@std@@@2@@0@@Z
	??$end@V?$map@Vpath@filesystem@std@@V?$weak_ptr@Vfmu@fmi@cse@@@3@U?$less@Vpath@filesystem@std@@@3@V?$allocator@U?$pair@$$CBVpath@filesystem@std@@V?$weak_ptr@Vfmu@fmi@cse@@@3@@std@@@3@@std@@@std@@YA?AV?$_Tree_iterator@V?$_Tree_val@U?$_Tree_simple_types@U?$pair@$$CBVpath@filesystem@std@@V?$weak_ptr@Vfmu@fmi@cse@@@3@@std@@@std@@@std@@@0@AEAV?$map@Vpath@filesystem@std@@V?$weak_ptr@Vfmu@fmi@cse@@@3@U?$less@Vpath@filesystem@std@@@3@V?$allocator@U?$pair@$$CBVpath@filesystem@std@@V?$weak_ptr@Vfmu@fmi@cse@@@3@@std@@@3@@0@@Z
	??$end@V?$vector@V?$weak_ptr@Vslave_instance@v1@fmi@cse@@@std@@V?$allocator@V?$weak_ptr@Vslave_instance@v1@fmi@cse@@@std@@@2@@std@@@std@@YA?AV?$_Vector_iterator@V?$_Vector_val@U?$_Simple_types@V?$weak_ptr@Vslave_instance@v1@fmi@cse@@@std@@@std@@@std@@@0@AEAV?$vector@V?$weak_ptr@Vslave_instance@v1@fmi@cse@@@std@@V?$allocator@V?$weak_ptr@Vslave_instance@v1@fmi@cse@@@std@@@2@@0@@Z
	??$end@V?$vector@V?$weak_ptr@Vslave_instance@v2@fmi@cse@@@std@@V?$allocator@V?$weak_ptr@Vslave_instance@v2@fmi@cse@@@std@@@2@@std@@@std@@YA?AV?$_Vector_iterator@V?$_Vector_val@U?$_Simple_types@V?$weak_ptr@Vslave_instance@v2@fmi@cse@@@std@@@std@@@std@@@0@AEAV?$vector@V?$weak_ptr@Vslave_instance@v2@fmi@cse@@@std@@V?$allocator@V?$weak_ptr@Vslave_instance@v2@fmi@cse@@@std@@@2@@0@@Z
	??$equal@V?$generator_iterator@Vseed_rng@detail@uuids@boost@@@detail@uuids@boost@@V1234@@iterator_core_access@iterators@boost@@CA_NAEBV?$generator_iterator@Vseed_rng@detail@uuids@boost@@@detail@uuids@2@0U?$bool_@$00@mpl@2@@Z
	??$equal@Vconst_assoc_iterator@?$basic_ptree@V?$basic_string@DU?$char_traits@D@std@@V?$allocator@D@2@@std@@V12@U?$less@V?$basic_string@DU?$char_traits@D@std@@V?$allocator@D@2@@std@@@2@@property_tree@boost@@V1234@@iterator_core_access@iterators@boost@@CA_NAEBVconst_assoc_iterator@?$basic_ptree@V?$basic_string@DU?$char_traits@D@std@@V?$allocator@D@2@@std@@V12@U?$less@V?$basic_string@DU?$char_traits@D@std@@V?$allocator@D@2@@std@@@2@@property_tree@2@0U?$bool_@$00@mpl@2@@Z
	??$equal@Vconst_assoc_iterator@?$basic_ptree@V?$basic_string@DU?$char_traits@D@std@@V?$allocator@D@2@@std@@V12@U?$less@V?$basic_string@DU?$char_traits@D@std@@V?$allocator@D@2@@std@@@2@@property_tree@boost@@V?$bidir_node_iterator@U?$ordered_index_node@Unull_augment_policy@detail@multi_index@boost@@U?$index_node_base@U?$pair@$$CBV?$basic_string@DU?$char_traits@D@std@@V?$allocator@D@2@@std@@V?$basic_ptree@V?$basic_string@DU?$char_traits@D@std@@V?$allocator@D@2@@std@@V12@U?$less@V?$basic_string@DU?$char_traits@D@std@@V?$allocator@D@2@@std@@@2@@property_tree@boost@@@std@@V?$allocator@U?$pair@$$CBV?$basic_string@DU?$char_traits@D@std@@V?$allocator@D@2@@std@@V?$basic_ptree@V?$basic_string@DU?$char_traits@D@std@@V?$allocator@D@2@@std@@V12@U?$less@V?$basic_string@DU?$char_traits@D@std@@V?$allocator@D@2@@std@@@2@@property_tree@boost@@@std@@@2@@234@@detail@multi_index@boost@@@detail@multi_index@4@Uuse_default@iterators@4@U894@U894@U894@@?$iterator_adaptor@Vconst_assoc_iterator@?$basic_ptree@V?$basic_string@DU?$char_traits@D@std@@V?$allocator@D@2@@std@@V12@U?$less@V?$basic_string@DU?$char_traits@D@std@@V?$allocator@D@2@@std@@@2@@property_tree@boost@@V?$bidir_node_iterator@U?$ordered_index_node@Unull_augment_policy@detail@multi_index@boost@@U?$index_node_base@U?$pair@$$CBV?$basic_string@DU?$char_traits@D@std@@V?$allocator@D@2@@std@@V?$basic_ptree@V?$basic_string@DU?$char_traits@D@std@@V?$allocator@D@2@@std@@V12@U?$less@V?$basic_string@DU?$char_traits@D@std@@V?$allocator@D@2@@std@@@2@@property_tree@boost@@@std@@V?$allocator@U?$pair@$$CBV?$basic_string@DU?$char_traits@D@std@@V?$allocator@D@2@@std@@V?$basic_ptree@V?$basic_string@DU?$char_traits@D@std@@V?$allocator@D@2@@std@@V12@U?$less@V?$basic_string@DU?$char_traits@D@std@@V?$allocator@D@2@@std@@@2@@property_tree@boost@@@std@@@2@@234@@detail@multi_index@boost@@@detail@multi_index@4@Uuse_default@iterators@4@U894@U894@U894@@iterators@boost@@AEBA_NAEBV012@@Z
	??$erase@V?$_Tree_iterator@V?$_Tree_val@U?$_Tree_simple_types@U?$pair@$$CBV?$basic_string@DU?$char_traits@D@std@@V?$allocator@D@2@@std@@V?$weak_ptr@Vfmu@fmi@cse@@@2@@std@@@std@@@std@@@std@@X@?$_Tree@V?$_Tmap_traits@V?$basic_string@DU?$char_traits@D@std@@V?$allocator@D@2@@std@@V?$weak_ptr@Vfmu@fmi@cse@@@2@U?$less@V?$basic_string@DU?$char_traits@D@std@@V?$allocator@D@2@@std@@@2@V?$allocator@U?$pair@$$CBV?$basic_string@DU?$char_traits@D@std@@V?$allocator@D@2@@std@@V?$weak_ptr@Vfmu@fmi@cse@@@2@@std@@@2@$0A@@std@@@std@@QEAA?AV?$_Tree_iterator@V?$_Tree_val@U?$_Tree_simple_types@U?$pair@$$CBV?$basic_string@DU?$char_traits@D@std@@V?$allocator@D@2@@std@@V?$weak_ptr@Vfmu@fmi@cse@@@2@@std@@@std@@@std@@@1@V21@@Z
	??$erase@V?$_Tree_iterator@V?$_Tree_val@U?$_Tree_simple_types@U?$pair@$$CBVpath@filesystem@std@@V?$weak_ptr@Vfmu@fmi@cse@@@3@@std@@@std@@@std@@@std@@X@?$_Tree@V?$_Tmap_traits@Vpath@filesystem@std@@V?$weak_ptr@Vfmu@fmi@cse@@@3@U?$less@Vpath@filesystem@std@@@3@V?$allocator@U?$pair@$$CBVpath@filesystem@std@@V?$weak_ptr@Vfmu@fmi@cse@@@3@@std@@@3@$0A@@std@@@std@@QEAA?AV?$_Tree_iterator@V?$_Tree_val@U?$_Tree_simple_types@U?$pair@$$CBVpath@filesystem@std@@V?$weak_ptr@Vfmu@fmi@cse@@@3@@std@@@std@@@std@@@1@V21@@Z
	??$exchange@W4__std_fs_dir_handle@@W41@@std@@YA?AW4__std_fs_dir_handle@@AEAW41@$$QEAW41@@Z
	??$fill_array_int@$0CA@$0CHA@V?$generator_iterator@Vseed_rng@detail@uuids@boost@@@detail@uuids@boost@@I@detail@random@boost@@YAXAEAV?$generator_iterator@Vseed_rng@detail@uuids@boost@@@0uuids@2@V3042@AEAY0CHA@I@Z
	??$fill_array_int_impl@$0CA@$0CHA@V?$generator_iterator@Vseed_rng@detail@uuids@boost@@@detail@uuids@boost@@I@detail@random@boost@@YAXAEAV?$generator_iterator@Vseed_rng@detail@uuids@boost@@@0uuids@2@V3042@AEAY0CHA@I@Z
	??$fill_array_int_impl@$0CA@$0CHA@V?$generator_iterator@Vseed_rng@detail@uuids@boost@@@detail@uuids@boost@@I@detail@random@boost@@YAXAEAV?$generator_iterator@Vseed_rng@detail@uuids@boost@@@0uuids@2@V3042@AEAY0CHA@IU?$bool_@$0A@@mpl@2@@Z
	??$find@V?$_String_iterator@V?$_String_val@U?$_Simple_types@D@std@@@std@@@std@@D@std@@YA?AV?$_String_iterator@V?$_String_val@U?$_Simple_types@D@std@@@std@@@0@V10@V10@AEBD@Z
	??$find@V?$basic_string@DU?$char_traits@D@std@@V?$allocator@D@2@@std@@@?$ordered_index_impl@U?$member@U?$pair@$$CBV?$basic_string@DU?$char_traits@D@std@@V?$allocator@D@2@@std@@V?$basic_ptree@V?$basic_string@DU?$char_traits@D@std@@V?$allocator@D@2@@std@@V12@U?$less@V?$basic_string@DU?$char_traits@D@std@@V?$allocator@D@2@@std@@@2@@property_tree@boost@@@std@@$$CBV?$basic_string@DU?$char_traits@D@std@@V?$allocator@D@2@@2@$0A@@multi_index@boost@@U?$less@V?$basic_string@DU?$char_traits@D@std@@V?$allocator@D@2@@std@@@std@@U?$nth_layer@$01U?$pair@$$CBV?$basic_string@DU?$char_traits@D@std@@V?$allocator@D@2@@std@@V?$basic_ptree@V?$basic_string@DU?$char_traits@D@std@@V?$allocator@D@2@@std@@V12@U?$less@V?$basic_string@DU?$char_traits@D@std@@V?$allocator@D@2@@std@@@2@@property_tree@boost@@@std@@U?$indexed_by@U?$sequenced@U?$tag@Una@mpl@boost@@U123@U123@U123@U123@U123@U123@U123@U123@U123@U123@U123@U123@U123@U123@U123@U123@U123@U123@U123@@multi_index@boost@@@multi_index@boost@@U?$ordered_non_unique@U?$tag@Uby_name@subs@?$basic_ptree@V?$basic_string@DU?$char_traits@D@std@@V?$allocator@D@2@@std@@V12@U?$less@V?$basic_string@DU?$char_traits@D@std@@V?$allocator@D@2@@std@@@2@@property_tree@boost@@Una@mpl@5@U675@U675@U675@U675@U675@U675@U675@U675@U675@U675@U675@U675@U675@U675@U675@U675@U675@U675@@multi_index@boost@@U?$member@U?$pair@$$CBV?$basic_string@DU?$char_traits@D@std@@V?$allocator@D@2@@std@@V?$basic_ptree@V?$basic_string@DU?$char_traits@D@std@@V?$allocator@D@2@@std@@V12@U?$less@V?$basic_string@DU?$char_traits@D@std@@V?$allocator@D@2@@std@@@2@@property_tree@boost@@@std@@$$CBV?$basic_string@DU?$char_traits@D@std@@V?$allocator@D@2@@2@$0A@@23@U?$less@V?$basic_string@DU?$char_traits@D@std@@V?$allocator@D@2@@std@@@std@@@23@Una@mpl@3@U563@U563@U563@U563@U563@U563@U563@U563@U563@U563@U563@U563@U563@U563@U563@U563@U563@@multi_index@boost@@V?$allocator@U?$pair@$$CBV?$basic_string@DU?$char_traits@D@std@@V?$allocator@D@2@@std@@V?$basic_ptree@V?$basic_string@DU?$char_traits@D@std@@V?$allocator@D@2@@std@@V12@U?$less@V?$basic_string@DU?$char_traits@D@std@@V?$allocator@D@2@@std@@@2@@property_tree@boost@@@std@@@2@@detail@23@U?$vector1@Uby_name@subs@?$basic_ptree@V?$basic_string@DU?$char_traits@D@std@@V?$allocator@D@2@@std@@V12@U?$less@V?$basic_string@DU?$char_traits@D@std@@V?$allocator@D@2@@std@@@2@@property_tree@boost@@@mpl@3@Uordered_non_unique_tag@723@Unull_augment_policy@723@@detail@multi_index@boost@@QEBA?AV?$bidir_node_iterator@U?$ordered_index_node@Unull_augment_policy@detail@multi_index@boost@@U?$index_node_base@U?$pair@$$CBV?$basic_string@DU?$char_traits@D@std@@V?$allocator@D@2@@std@@V?$basic_ptree@V?$basic_string@DU?$char_traits@D@std@@V?$allocator@D@2@@std@@V12@U?$less@V?$basic_string@DU?$char_traits@D@std@@V?$allocator@D@2@@std@@@2@@property_tree@boost@@@std@@V?$allocator@U?$pair@$$CBV?$basic_string@DU?$char_traits@D@std@@V?$allocator@D@2@@std@@V?$basic_ptree@V?$basic_string@DU?$char_traits@D@std@@V?$allocator@D@2@@std@@V12@U?$less@V?$basic_string@DU?$char_traits@D@std@@V?$allocator@D@2@@std@@@2@@property_tree@boost@@@std@@@2@@234@@detail@multi_index@boost@@@123@AEBV?$basic_string@DU?$char_traits@D@std@@V?$allocator@D@2@@std@@@Z
	??$find_if@PEB_WU_Is_slash_oper@std@@@std@@YAPEB_WPEB_WQEB_WU_Is_slash_oper@0@@Z
	??$find_if_not@PEB_WU_Is_slash_oper@std@@@std@@YAPEB_WPEB_WQEB_WU_Is_slash_oper@0@@Z
	??$forward@$$QEAV?$basic_string@DU?$char_traits@D@std@@V?$allocator@D@2@@std@@@std@@YA$$QEAV?$basic_string@DU?$char_traits@D@std@@V?$allocator@D@2@@0@AEAV10@@Z
	??$forward@AEAPEAU?$_Tree_node@U?$pair@$$CBV?$basic_string@DU?$char_traits@D@std@@V?$allocator@D@2@@std@@V?$weak_ptr@Vfmu@fmi@cse@@@2@@std@@PEAX@std@@@std@@YAAEAPEAU?$_Tree_node@U?$pair@$$CBV?$basic_string@DU?$char_traits@D@std@@V?$allocator@D@2@@std@@V?$weak_ptr@Vfmu@fmi@cse@@@2@@std@@PEAX@0@AEAPEAU10@@Z
	??$forward@AEAPEAU?$_Tree_node@U?$pair@$$CBVpath@filesystem@std@@V?$weak_ptr@Vfmu@fmi@cse@@@3@@std@@PEAX@std@@@std@@YAAEAPEAU?$_Tree_node@U?$pair@$$CBVpath@filesystem@std@@V?$weak_ptr@Vfmu@fmi@cse@@@3@@std@@PEAX@0@AEAPEAU10@@Z
	??$forward@AEAPEAU?$copy_map_entry@U?$sequenced_index_node@U?$ordered_index_node@Unull_augment_policy@detail@multi_index@boost@@U?$index_node_base@U?$pair@$$CBV?$basic_string@DU?$char_traits@D@std@@V?$allocator@D@2@@std@@V?$basic_ptree@V?$basic_string@DU?$char_traits@D@std@@V?$allocator@D@2@@std@@V12@U?$less@V?$basic_string@DU?$char_traits@D@std@@V?$allocator@D@2@@std@@@2@@property_tree@boost@@@std@@V?$allocator@U?$pair@$$CBV?$basic_string@DU?$char_traits@D@std@@V?$allocator@D@2@@std@@V?$basic_ptree@V?$basic_string@DU?$char_traits@D@std@@V?$allocator@D@2@@std@@V12@U?$less@V?$basic_string@DU?$char_traits@D@std@@V?$allocator@D@2@@std@@@2@@property_tree@boost@@@std@@@2@@234@@detail@multi_index@boost@@@detail@multi_index@boost@@@detail@multi_index@boost@@@std@@YAAEAPEAU?$copy_map_entry@U?$sequenced_index_node@U?$ordered_index_node@Unull_augment_policy@detail@multi_index@boost@@U?$index_node_base@U?$pair@$$CBV?$basic_string@DU?$char_traits@D@std@@V?$allocator@D@2@@std@@V?$basic_ptree@V?$basic_string@DU?$char_traits@D@std@@V?$allocator@D@2@@std@@V12@U?$less@V?$basic_string@DU?$char_traits@D@std@@V?$allocator@D@2@@std@@@2@@property_tree@boost@@@std@@V?$allocator@U?$pair@$$CBV?$basic_string@DU?$char_traits@D@std@@V?$allocator@D@2@@std@@V?$basic_ptree@V?$basic_string@DU?$char_traits@D@std@@V?$allocator@D@2@@std@@V12@U?$less@V?$basic_string@DU?$char_traits@D@std@@V?$allocator@D@2@@std@@@2@@property_tree@boost@@@std@@@2@@234@@detail@multi_index@boost@@@detail@multi_index@boost@@@detail@multi_index@boost@@AEAPEAU1234@@Z
	??$forward@AEAPEAU?$sequenced_index_node@U?$ordered_index_node@Unull_augment_policy@detail@multi_index@boost@@U?$index_node_base@U?$pair@$$CBV?$basic_string@DU?$char_traits@D@std@@V?$allocator@D@2@@std@@V?$basic_ptree@V?$basic_string@DU?$char_traits@D@std@@V?$allocator@D@2@@std@@V12@U?$less@V?$basic_string@DU?$char_traits@D@std@@V?$allocator@D@2@@std@@@2@@property_tree@boost@@@std@@V?$allocator@U?$pair@$$CBV?$basic_string@DU?$char_traits@D@std@@V?$allocator@D@2@@std@@V?$basic_ptree@V?$basic_string@DU?$char_traits@D@std@@V?$allocator@D@2@@std@@V12@U?$less@V?$basic_string@DU?$char_traits@D@std@@V?$allocator@D@2@@std@@@2@@property_tree@boost@@@std@@@2@@234@@detail@multi_index@boost@@@detail@multi_index@boost@@@std@@YAAEAPEAU?$sequenced_index_node@U?$ordered_index_node@Unull_augment_policy@detail@multi_index@boost@@U?$index_node_base@U?$pair@$$CBV?$basic_string@DU?$char_traits@D@std@@V?$allocator@D@2@@std@@V?$basic_ptree@V?$basic_string@DU?$char_traits@D@std@@V?$allocator@D@2@@std@@V12@U?$less@V?$basic_string@DU?$char_traits@D@std@@V?$allocator@D@2@@std@@@2@@property_tree@boost@@@std@@V?$allocator@U?$pair@$$CBV?$basic_string@DU?$char_traits@D@std@@V?$allocator@D@2@@std@@V?$basic_ptree@V?$basic_string@DU?$char_traits@D@std@@V?$allocator@D@2@@std@@V12@U?$less@V?$basic_string@DU?$char_traits@D@std@@V?$allocator@D@2@@std@@@2@@property_tree@boost@@@std@@@2@@234@@detail@multi_index@boost@@@detail@multi_index@boost@@AEAPEAU1234@@Z
	??$forward@AEAPEAUevent@@@std@@YAAEAPEAUevent@@AEAPEAU1@@Z
	??$forward@AEAPEAUevent_base@@@std@@YAAEAPEAUevent_base@@AEAPEAU1@@Z
	??$forward@AEAPEAUfmi_xml_context_t@@@std@@YAAEAPEAUfmi_xml_context_t@@AEAPEAU1@@Z
	??$forward@AEAPEAUjm_callbacks@@@std@@YAAEAPEAUjm_callbacks@@AEAPEAU1@@Z
	??$forward@AEAPEAV_Facet_base@std@@@std@@YAAEAPEAV_Facet_base@0@AEAPEAV10@@Z
	??$forward@AEAPEAVadditional_path@detail@fmi@cse@@@std@@YAAEAPEAVadditional_path@detail@fmi@cse@@AEAPEAV1234@@Z
	??$forward@AEAPEAVtemp_dir@utility@cse@@@std@@YAAEAPEAVtemp_dir@utility@cse@@AEAPEAV123@@Z
	??$forward@AEAU?$equal_to@V?$basic_string@DU?$char_traits@D@std@@V?$allocator@D@2@@std@@@std@@@std@@YAAEAU?$equal_to@V?$basic_string@DU?$char_traits@D@std@@V?$allocator@D@2@@std@@@0@AEAU10@@Z
	??$forward@AEAU?$hash@V?$basic_string@DU?$char_traits@D@std@@V?$allocator@D@2@@std@@@std@@@std@@YAAEAU?$hash@V?$basic_string@DU?$char_traits@D@std@@V?$allocator@D@2@@std@@@0@AEAU10@@Z
	??$forward@AEAU?$pair@$$CBV?$basic_string@DU?$char_traits@D@std@@V?$allocator@D@2@@std@@V?$weak_ptr@Vfmu@fmi@cse@@@2@@std@@@std@@YAAEAU?$pair@$$CBV?$basic_string@DU?$char_traits@D@std@@V?$allocator@D@2@@std@@V?$weak_ptr@Vfmu@fmi@cse@@@2@@0@AEAU10@@Z
	??$forward@AEAU?$pair@$$CBVpath@filesystem@std@@V?$weak_ptr@Vfmu@fmi@cse@@@3@@std@@@std@@YAAEAU?$pair@$$CBVpath@filesystem@std@@V?$weak_ptr@Vfmu@fmi@cse@@@3@@0@AEAU10@@Z
	??$forward@AEAUvariable_description@cse@@@std@@YAAEAUvariable_description@cse@@AEAU12@@Z
	??$forward@AEAV?$_Tree_const_iterator@V?$_Tree_val@U?$_Tree_simple_types@U?$pair@$$CBV?$basic_string@DU?$char_traits@D@std@@V?$allocator@D@2@@std@@V?$weak_ptr@Vfmu@fmi@cse@@@2@@std@@@std@@@std@@@std@@@std@@YAAEAV?$_Tree_const_iterator@V?$_Tree_val@U?$_Tree_simple_types@U?$pair@$$CBV?$basic_string@DU?$char_traits@D@std@@V?$allocator@D@2@@std@@V?$weak_ptr@Vfmu@fmi@cse@@@2@@std@@@std@@@std@@@0@AEAV10@@Z
	??$forward@AEAV?$_Tree_iterator@V?$_Tree_val@U?$_Tree_simple_types@U?$pair@$$CBV?$basic_string@DU?$char_traits@D@std@@V?$allocator@D@2@@std@@V?$weak_ptr@Vfmu@fmi@cse@@@2@@std@@@std@@@std@@@std@@@std@@YAAEAV?$_Tree_iterator@V?$_Tree_val@U?$_Tree_simple_types@U?$pair@$$CBV?$basic_string@DU?$char_traits@D@std@@V?$allocator@D@2@@std@@V?$weak_ptr@Vfmu@fmi@cse@@@2@@std@@@std@@@std@@@0@AEAV10@@Z
	??$forward@AEAV?$_Tree_iterator@V?$_Tree_val@U?$_Tree_simple_types@U?$pair@$$CBVpath@filesystem@std@@V?$weak_ptr@Vfmu@fmi@cse@@@3@@std@@@std@@@std@@@std@@@std@@YAAEAV?$_Tree_iterator@V?$_Tree_val@U?$_Tree_simple_types@U?$pair@$$CBVpath@filesystem@std@@V?$weak_ptr@Vfmu@fmi@cse@@@3@@std@@@std@@@std@@@0@AEAV10@@Z
	??$forward@AEA_K@std@@YAAEA_KAEA_K@Z
	??$forward@AEA_N@std@@YAAEA_NAEA_N@Z
	??$forward@AEBQEAD@std@@YAAEBQEADAEBQEAD@Z
	??$forward@AEBQEA_W@std@@YAAEBQEA_WAEBQEA_W@Z
	??$forward@AEBU?$less@V?$basic_string@DU?$char_traits@D@std@@V?$allocator@D@2@@std@@@std@@@std@@YAAEBU?$less@V?$basic_string@DU?$char_traits@D@std@@V?$allocator@D@2@@std@@@0@AEBU10@@Z
	??$forward@AEBU?$less@Vpath@filesystem@std@@@std@@@std@@YAAEBU?$less@Vpath@filesystem@std@@@0@AEBU10@@Z
	??$forward@AEBUpiecewise_construct_t@std@@@std@@YAAEBUpiecewise_construct_t@0@AEBU10@@Z
	??$forward@AEBV?$allocator@D@std@@@std@@YAAEBV?$allocator@D@0@AEBV10@@Z
	??$forward@AEBV?$allocator@H@std@@@std@@YAAEBV?$allocator@H@0@AEBV10@@Z
	??$forward@AEBV?$allocator@PEBD@std@@@std@@YAAEBV?$allocator@PEBD@0@AEBV10@@Z
	??$forward@AEBV?$allocator@_W@std@@@std@@YAAEBV?$allocator@_W@0@AEBV10@@Z
	??$forward@AEBV?$basic_string@DU?$char_traits@D@std@@V?$allocator@D@2@@std@@@std@@YAAEBV?$basic_string@DU?$char_traits@D@std@@V?$allocator@D@2@@0@AEBV10@@Z
	??$forward@AEBVpath@filesystem@std@@@std@@YAAEBVpath@filesystem@0@AEBV120@@Z
	??$forward@AEBW4directory_options@filesystem@std@@@std@@YAAEBW4directory_options@filesystem@0@AEBW4120@@Z
	??$forward@D@std@@YA$$QEADAEAD@Z
	??$forward@M@std@@YA$$QEAMAEAM@Z
	??$forward@P6AXPEAUevent@@@Z@std@@YA$$QEAP6AXPEAUevent@@@ZAEAP6AX0@Z@Z
	??$forward@P6AXPEAUevent_base@@@Z@std@@YA$$QEAP6AXPEAUevent_base@@@ZAEAP6AX0@Z@Z
	??$forward@P6AXPEAUfmi_xml_context_t@@@Z@std@@YA$$QEAP6AXPEAUfmi_xml_context_t@@@ZAEAP6AX0@Z@Z
	??$forward@PEAD@std@@YA$$QEAPEADAEAPEAD@Z
	??$forward@U?$default_delete@Ujm_callbacks@@@std@@@std@@YA$$QEAU?$default_delete@Ujm_callbacks@@@0@AEAU10@@Z
	??$forward@U?$default_delete@Vadditional_path@detail@fmi@cse@@@std@@@std@@YA$$QEAU?$default_delete@Vadditional_path@detail@fmi@cse@@@0@AEAU10@@Z
	??$forward@U?$default_delete@Vtemp_dir@utility@cse@@@std@@@std@@YA$$QEAU?$default_delete@Vtemp_dir@utility@cse@@@0@AEAU10@@Z
	??$forward@U_Container_proxy@std@@@std@@YA$$QEAU_Container_proxy@0@AEAU10@@Z
	??$forward@U_Creator@_Dir_enum_impl@filesystem@std@@@std@@YA$$QEAU_Creator@_Dir_enum_impl@filesystem@0@AEAU1230@@Z
	??$forward@U_One_then_variadic_args_t@std@@@std@@YA$$QEAU_One_then_variadic_args_t@0@AEAU10@@Z
	??$forward@U_Zero_then_variadic_args_t@std@@@std@@YA$$QEAU_Zero_then_variadic_args_t@0@AEAU10@@Z
	??$forward@Uvariable_description@cse@@@std@@YA$$QEAUvariable_description@cse@@AEAU12@@Z
	??$forward@V?$_Tree_iterator@V?$_Tree_val@U?$_Tree_simple_types@U?$pair@$$CBV?$basic_string@DU?$char_traits@D@std@@V?$allocator@D@2@@std@@V?$weak_ptr@Vfmu@fmi@cse@@@2@@std@@@std@@@std@@@std@@@std@@YA$$QEAV?$_Tree_iterator@V?$_Tree_val@U?$_Tree_simple_types@U?$pair@$$CBV?$basic_string@DU?$char_traits@D@std@@V?$allocator@D@2@@std@@V?$weak_ptr@Vfmu@fmi@cse@@@2@@std@@@std@@@std@@@0@AEAV10@@Z
	??$forward@V?$_Tree_iterator@V?$_Tree_val@U?$_Tree_simple_types@U?$pair@$$CBVpath@filesystem@std@@V?$weak_ptr@Vfmu@fmi@cse@@@3@@std@@@std@@@std@@@std@@@std@@YA$$QEAV?$_Tree_iterator@V?$_Tree_val@U?$_Tree_simple_types@U?$pair@$$CBVpath@filesystem@std@@V?$weak_ptr@Vfmu@fmi@cse@@@3@@std@@@std@@@std@@@0@AEAV10@@Z
	??$forward@V?$allocator@D@std@@@std@@YA$$QEAV?$allocator@D@0@AEAV10@@Z
	??$forward@V?$allocator@Uvariable_description@cse@@@std@@@std@@YA$$QEAV?$allocator@Uvariable_description@cse@@@0@AEAV10@@Z
	??$forward@V?$allocator@_W@std@@@std@@YA$$QEAV?$allocator@_W@0@AEAV10@@Z
	??$forward@V?$basic_ptree@V?$basic_string@DU?$char_traits@D@std@@V?$allocator@D@2@@std@@V12@U?$less@V?$basic_string@DU?$char_traits@D@std@@V?$allocator@D@2@@std@@@2@@property_tree@boost@@@std@@YA$$QEAV?$basic_ptree@V?$basic_string@DU?$char_traits@D@std@@V?$allocator@D@2@@std@@V12@U?$less@V?$basic_string@DU?$char_traits@D@std@@V?$allocator@D@2@@std@@@2@@property_tree@boost@@AEAV123@@Z
	??$forward@V?$basic_string@DU?$char_traits@D@std@@V?$allocator@D@2@@std@@@std@@YA$$QEAV?$basic_string@DU?$char_traits@D@std@@V?$allocator@D@2@@0@AEAV10@@Z
	??$forward@V?$bidir_node_iterator@U?$sequenced_index_node@U?$ordered_index_node@Unull_augment_policy@detail@multi_index@boost@@U?$index_node_base@U?$pair@$$CBV?$basic_string@DU?$char_traits@D@std@@V?$allocator@D@2@@std@@V?$basic_ptree@V?$basic_string@DU?$char_traits@D@std@@V?$allocator@D@2@@std@@V12@U?$less@V?$basic_string@DU?$char_traits@D@std@@V?$allocator@D@2@@std@@@2@@property_tree@boost@@@std@@V?$allocator@U?$pair@$$CBV?$basic_string@DU?$char_traits@D@std@@V?$allocator@D@2@@std@@V?$basic_ptree@V?$basic_string@DU?$char_traits@D@std@@V?$allocator@D@2@@std@@V12@U?$less@V?$basic_string@DU?$char_traits@D@std@@V?$allocator@D@2@@std@@@2@@property_tree@boost@@@std@@@2@@234@@detail@multi_index@boost@@@detail@multi_index@boost@@@detail@multi_index@boost@@@std@@YA$$QEAV?$bidir_node_iterator@U?$sequenced_index_node@U?$ordered_index_node@Unull_augment_policy@detail@multi_index@boost@@U?$index_node_base@U?$pair@$$CBV?$basic_string@DU?$char_traits@D@std@@V?$allocator@D@2@@std@@V?$basic_ptree@V?$basic_string@DU?$char_traits@D@std@@V?$allocator@D@2@@std@@V12@U?$less@V?$basic_string@DU?$char_traits@D@std@@V?$allocator@D@2@@std@@@2@@property_tree@boost@@@std@@V?$allocator@U?$pair@$$CBV?$basic_string@DU?$char_traits@D@std@@V?$allocator@D@2@@std@@V?$basic_ptree@V?$basic_string@DU?$char_traits@D@std@@V?$allocator@D@2@@std@@V12@U?$less@V?$basic_string@DU?$char_traits@D@std@@V?$allocator@D@2@@std@@@2@@property_tree@boost@@@std@@@2@@234@@detail@multi_index@boost@@@detail@multi_index@boost@@@detail@multi_index@boost@@AEAV1234@@Z
	??$forward@V?$tuple@$$QEAV?$basic_string@DU?$char_traits@D@std@@V?$allocator@D@2@@std@@@std@@@std@@YA$$QEAV?$tuple@$$QEAV?$basic_string@DU?$char_traits@D@std@@V?$allocator@D@2@@std@@@0@AEAV10@@Z
	??$forward@V?$tuple@$$V@std@@@std@@YA$$QEAV?$tuple@$$V@0@AEAV10@@Z
	??$forward@V?$tuple@AEBV?$basic_string@DU?$char_traits@D@std@@V?$allocator@D@2@@std@@@std@@@std@@YA$$QEAV?$tuple@AEBV?$basic_string@DU?$char_traits@D@std@@V?$allocator@D@2@@std@@@0@AEAV10@@Z
	??$forward@V?$tuple@AEBVpath@filesystem@std@@@std@@@std@@YA$$QEAV?$tuple@AEBVpath@filesystem@std@@@0@AEAV10@@Z
	??$forward@V?$weak_ptr@Vslave_instance@v1@fmi@cse@@@std@@@std@@YA$$QEAV?$weak_ptr@Vslave_instance@v1@fmi@cse@@@0@AEAV10@@Z
	??$forward@V?$weak_ptr@Vslave_instance@v2@fmi@cse@@@std@@@std@@YA$$QEAV?$weak_ptr@Vslave_instance@v2@fmi@cse@@@0@AEAV10@@Z
	??$forward@Vpath@filesystem@std@@@std@@YA$$QEAVpath@filesystem@0@AEAV120@@Z
	??$forward@Vtemp_dir@utility@cse@@@std@@YA$$QEAVtemp_dir@utility@cse@@AEAV123@@Z
	??$forward@W4__std_fs_dir_handle@@@std@@YA$$QEAW4__std_fs_dir_handle@@AEAW41@@Z
	??$forward@_N@std@@YA$$QEA_NAEA_N@Z
	??$forward_as_tuple@$$V@std@@YA?AV?$tuple@$$V@0@XZ
	??$forward_as_tuple@AEBV?$basic_string@DU?$char_traits@D@std@@V?$allocator@D@2@@std@@@std@@YA?AV?$tuple@AEBV?$basic_string@DU?$char_traits@D@std@@V?$allocator@D@2@@std@@@0@AEBV?$basic_string@DU?$char_traits@D@std@@V?$allocator@D@2@@0@@Z
	??$forward_as_tuple@AEBVpath@filesystem@std@@@std@@YA?AV?$tuple@AEBVpath@filesystem@std@@@0@AEBVpath@filesystem@0@@Z
	??$forward_as_tuple@V?$basic_string@DU?$char_traits@D@std@@V?$allocator@D@2@@std@@@std@@YA?AV?$tuple@$$QEAV?$basic_string@DU?$char_traits@D@std@@V?$allocator@D@2@@std@@@0@$$QEAV?$basic_string@DU?$char_traits@D@std@@V?$allocator@D@2@@0@@Z
	??$generate_uniform_int@V?$mersenne_twister_engine@I$0CA@$0CHA@$0BIN@$0BP@$0JJAILANP@$0L@$0PPPPPPPP@$06$0JNCMFGIA@$0P@$0OPMGAAAA@$0BC@$0GMAHIJGF@@random@boost@@K@detail@random@boost@@YAKAEAV?$mersenne_twister_engine@I$0CA@$0CHA@$0BIN@$0BP@$0JJAILANP@$0L@$0PPPPPPPP@$06$0JNCMFGIA@$0P@$0OPMGAAAA@$0BC@$0GMAHIJGF@@12@KK@Z
	??$generate_uniform_int@V?$mersenne_twister_engine@I$0CA@$0CHA@$0BIN@$0BP@$0JJAILANP@$0L@$0PPPPPPPP@$06$0JNCMFGIA@$0P@$0OPMGAAAA@$0BC@$0GMAHIJGF@@random@boost@@K@detail@random@boost@@YAKAEAV?$mersenne_twister_engine@I$0CA@$0CHA@$0BIN@$0BP@$0JJAILANP@$0L@$0PPPPPPPP@$06$0JNCMFGIA@$0P@$0OPMGAAAA@$0BC@$0GMAHIJGF@@12@KKU?$bool_@$00@mpl@2@@Z
	??$get@$00U?$member@U?$pair@$$CBV?$basic_string@DU?$char_traits@D@std@@V?$allocator@D@2@@std@@V?$basic_ptree@V?$basic_string@DU?$char_traits@D@std@@V?$allocator@D@2@@std@@V12@U?$less@V?$basic_string@DU?$char_traits@D@std@@V?$allocator@D@2@@std@@@2@@property_tree@boost@@@std@@$$CBV?$basic_string@DU?$char_traits@D@std@@V?$allocator@D@2@@2@$0A@@multi_index@boost@@U?$cons@U?$less@V?$basic_string@DU?$char_traits@D@std@@V?$allocator@D@2@@std@@@std@@Unull_type@tuples@boost@@@tuples@3@@tuples@boost@@YAAEBU?$less@V?$basic_string@DU?$char_traits@D@std@@V?$allocator@D@2@@std@@@std@@AEBU?$cons@U?$member@U?$pair@$$CBV?$basic_string@DU?$char_traits@D@std@@V?$allocator@D@2@@std@@V?$basic_ptree@V?$basic_string@DU?$char_traits@D@std@@V?$allocator@D@2@@std@@V12@U?$less@V?$basic_string@DU?$char_traits@D@std@@V?$allocator@D@2@@std@@@2@@property_tree@boost@@@std@@$$CBV?$basic_string@DU?$char_traits@D@std@@V?$allocator@D@2@@2@$0A@@multi_index@boost@@U?$cons@U?$less@V?$basic_string@DU?$char_traits@D@std@@V?$allocator@D@2@@std@@@std@@Unull_type@tuples@boost@@@tuples@3@@01@@Z
	??$get@$0A@$$QEAV?$basic_string@DU?$char_traits@D@std@@V?$allocator@D@2@@std@@@std@@YA$$QEAV?$basic_string@DU?$char_traits@D@std@@V?$allocator@D@2@@0@$$QEAV?$tuple@$$QEAV?$basic_string@DU?$char_traits@D@std@@V?$allocator@D@2@@std@@@0@@Z
	??$get@$0A@AEBV?$basic_string@DU?$char_traits@D@std@@V?$allocator@D@2@@std@@@std@@YAAEBV?$basic_string@DU?$char_traits@D@std@@V?$allocator@D@2@@0@$$QEAV?$tuple@AEBV?$basic_string@DU?$char_traits@D@std@@V?$allocator@D@2@@std@@@0@@Z
	??$get@$0A@AEBVpath@filesystem@std@@@std@@YAAEBVpath@filesystem@0@$$QEAV?$tuple@AEBVpath@filesystem@std@@@0@@Z
	??$get@$0A@U?$member@U?$pair@$$CBV?$basic_string@DU?$char_traits@D@std@@V?$allocator@D@2@@std@@V?$basic_ptree@V?$basic_string@DU?$char_traits@D@std@@V?$allocator@D@2@@std@@V12@U?$less@V?$basic_string@DU?$char_traits@D@std@@V?$allocator@D@2@@std@@@2@@property_tree@boost@@@std@@$$CBV?$basic_string@DU?$char_traits@D@std@@V?$allocator@D@2@@2@$0A@@multi_index@boost@@U?$cons@U?$less@V?$basic_string@DU?$char_traits@D@std@@V?$allocator@D@2@@std@@@std@@Unull_type@tuples@boost@@@tuples@3@@tuples@boost@@YAAEBU?$member@U?$pair@$$CBV?$basic_string@DU?$char_traits@D@std@@V?$allocator@D@2@@std@@V?$basic_ptree@V?$basic_string@DU?$char_traits@D@std@@V?$allocator@D@2@@std@@V12@U?$less@V?$basic_string@DU?$char_traits@D@std@@V?$allocator@D@2@@std@@@2@@property_tree@boost@@@std@@$$CBV?$basic_string@DU?$char_traits@D@std@@V?$allocator@D@2@@2@$0A@@multi_index@1@AEBU?$cons@U?$member@U?$pair@$$CBV?$basic_string@DU?$char_traits@D@std@@V?$allocator@D@2@@std@@V?$basic_ptree@V?$basic_string@DU?$char_traits@D@std@@V?$allocator@D@2@@std@@V12@U?$less@V?$basic_string@DU?$char_traits@D@std@@V?$allocator@D@2@@std@@@2@@property_tree@boost@@@std@@$$CBV?$basic_string@DU?$char_traits@D@std@@V?$allocator@D@2@@2@$0A@@multi_index@boost@@U?$cons@U?$less@V?$basic_string@DU?$char_traits@D@std@@V?$allocator@D@2@@std@@@std@@Unull_type@tuples@boost@@@tuples@3@@01@@Z
	??$get@V?$basic_string@DU?$char_traits@D@std@@V?$allocator@D@2@@std@@@?$basic_ptree@V?$basic_string@DU?$char_traits@D@std@@V?$allocator@D@2@@std@@V12@U?$less@V?$basic_string@DU?$char_traits@D@std@@V?$allocator@D@2@@std@@@2@@property_tree@boost@@QEBA?AV?$basic_string@DU?$char_traits@D@std@@V?$allocator@D@2@@std@@AEBV?$string_path@V?$basic_string@DU?$char_traits@D@std@@V?$allocator@D@2@@std@@U?$id_translator@V?$basic_string@DU?$char_traits@D@std@@V?$allocator@D@2@@std@@@property_tree@boost@@@12@AEBV34@@Z
	??$get_callback@W4level@log@cse@@@type_dispatcher@v2s_mt_nt6@log@boost@@QEAA?AV?$callback@W4level@log@cse@@@0123@XZ
	??$get_index@D@internal@rapidxml@detail@property_tree@boost@@YA_KD@Z
	??$get_local_deleter@V?$sp_ms_deleter@U?$logger_holder@V?$severity_logger_mt@W4level@log@cse@@@sources@v2s_mt_nt6@log@boost@@@aux@sources@v2s_mt_nt6@log@boost@@@detail@boost@@@detail@boost@@YAPEAV?$sp_ms_deleter@U?$logger_holder@V?$severity_logger_mt@W4level@log@cse@@@sources@v2s_mt_nt6@log@boost@@@aux@sources@v2s_mt_nt6@log@boost@@@01@PEAV201@@Z
	??$get_optional@V?$basic_string@DU?$char_traits@D@std@@V?$allocator@D@2@@std@@@?$basic_ptree@V?$basic_string@DU?$char_traits@D@std@@V?$allocator@D@2@@std@@V12@U?$less@V?$basic_string@DU?$char_traits@D@std@@V?$allocator@D@2@@std@@@2@@property_tree@boost@@QEBA?AV?$optional@V?$basic_string@DU?$char_traits@D@std@@V?$allocator@D@2@@std@@@2@AEBV?$string_path@V?$basic_string@DU?$char_traits@D@std@@V?$allocator@D@2@@std@@U?$id_translator@V?$basic_string@DU?$char_traits@D@std@@V?$allocator@D@2@@std@@@property_tree@boost@@@12@@Z
	??$get_value_optional@V?$basic_string@DU?$char_traits@D@std@@V?$allocator@D@2@@std@@@?$basic_ptree@V?$basic_string@DU?$char_traits@D@std@@V?$allocator@D@2@@std@@V12@U?$less@V?$basic_string@DU?$char_traits@D@std@@V?$allocator@D@2@@std@@@2@@property_tree@boost@@QEBA?AV?$optional@V?$basic_string@DU?$char_traits@D@std@@V?$allocator@D@2@@std@@@2@XZ
	??$get_value_optional@V?$basic_string@DU?$char_traits@D@std@@V?$allocator@D@2@@std@@U?$id_translator@V?$basic_string@DU?$char_traits@D@std@@V?$allocator@D@2@@std@@@property_tree@boost@@@?$basic_ptree@V?$basic_string@DU?$char_traits@D@std@@V?$allocator@D@2@@std@@V12@U?$less@V?$basic_string@DU?$char_traits@D@std@@V?$allocator@D@2@@std@@@2@@property_tree@boost@@QEBA?AV?$optional@V?$basic_string@DU?$char_traits@D@std@@V?$allocator@D@2@@std@@@2@U?$id_translator@V?$basic_string@DU?$char_traits@D@std@@V?$allocator@D@2@@std@@@12@@Z
	??$increment@V?$generator_iterator@Vseed_rng@detail@uuids@boost@@@detail@uuids@boost@@@iterator_core_access@iterators@boost@@CAXAEAV?$generator_iterator@Vseed_rng@detail@uuids@boost@@@detail@uuids@2@@Z
	??$insert_@Ulvalue_tag@detail@multi_index@boost@@@?$multi_index_container@U?$pair@$$CBV?$basic_string@DU?$char_traits@D@std@@V?$allocator@D@2@@std@@V?$basic_ptree@V?$basic_string@DU?$char_traits@D@std@@V?$allocator@D@2@@std@@V12@U?$less@V?$basic_string@DU?$char_traits@D@std@@V?$allocator@D@2@@std@@@2@@property_tree@boost@@@std@@U?$indexed_by@U?$sequenced@U?$tag@Una@mpl@boost@@U123@U123@U123@U123@U123@U123@U123@U123@U123@U123@U123@U123@U123@U123@U123@U123@U123@U123@U123@@multi_index@boost@@@multi_index@boost@@U?$ordered_non_unique@U?$tag@Uby_name@subs@?$basic_ptree@V?$basic_string@DU?$char_traits@D@std@@V?$allocator@D@2@@std@@V12@U?$less@V?$basic_string@DU?$char_traits@D@std@@V?$allocator@D@2@@std@@@2@@property_tree@boost@@Una@mpl@5@U675@U675@U675@U675@U675@U675@U675@U675@U675@U675@U675@U675@U675@U675@U675@U675@U675@U675@@multi_index@boost@@U?$member@U?$pair@$$CBV?$basic_string@DU?$char_traits@D@std@@V?$allocator@D@2@@std@@V?$basic_ptree@V?$basic_string@DU?$char_traits@D@std@@V?$allocator@D@2@@std@@V12@U?$less@V?$basic_string@DU?$char_traits@D@std@@V?$allocator@D@2@@std@@@2@@property_tree@boost@@@std@@$$CBV?$basic_string@DU?$char_traits@D@std@@V?$allocator@D@2@@2@$0A@@23@U?$less@V?$basic_string@DU?$char_traits@D@std@@V?$allocator@D@2@@std@@@std@@@23@Una@mpl@3@U563@U563@U563@U563@U563@U563@U563@U563@U563@U563@U563@U563@U563@U563@U563@U563@U563@@multi_index@boost@@V?$allocator@U?$pair@$$CBV?$basic_string@DU?$char_traits@D@std@@V?$allocator@D@2@@std@@V?$basic_ptree@V?$basic_string@DU?$char_traits@D@std@@V?$allocator@D@2@@std@@V12@U?$less@V?$basic_string@DU?$char_traits@D@std@@V?$allocator@D@2@@std@@@2@@property_tree@boost@@@std@@@2@@multi_index@boost@@IEAA?AU?$pair@PEAU?$sequenced_index_node@U?$ordered_index_node@Unull_augment_policy@detail@multi_index@boost@@U?$index_node_base@U?$pair@$$CBV?$basic_string@DU?$char_traits@D@std@@V?$allocator@D@2@@std@@V?$basic_ptree@V?$basic_string@DU?$char_traits@D@std@@V?$allocator@D@2@@std@@V12@U?$less@V?$basic_string@DU?$char_traits@D@std@@V?$allocator@D@2@@std@@@2@@property_tree@boost@@@std@@V?$allocator@U?$pair@$$CBV?$basic_string@DU?$char_traits@D@std@@V?$allocator@D@2@@std@@V?$basic_ptree@V?$basic_string@DU?$char_traits@D@std@@V?$allocator@D@2@@std@@V12@U?$less@V?$basic_string@DU?$char_traits@D@std@@V?$allocator@D@2@@std@@@2@@property_tree@boost@@@std@@@2@@234@@detail@multi_index@boost@@@detail@multi_index@boost@@_N@std@@AEBU?$pair@$$CBV?$basic_string@DU?$char_traits@D@std@@V?$allocator@D@2@@std@@V?$basic_ptree@V?$basic_string@DU?$char_traits@D@std@@V?$allocator@D@2@@std@@V12@U?$less@V?$basic_string@DU?$char_traits@D@std@@V?$allocator@D@2@@std@@@2@@property_tree@boost@@@4@Ulvalue_tag@detail@12@@Z
	??$insert_@Ulvalue_tag@detail@multi_index@boost@@@?$ordered_index_impl@U?$member@U?$pair@$$CBV?$basic_string@DU?$char_traits@D@std@@V?$allocator@D@2@@std@@V?$basic_ptree@V?$basic_string@DU?$char_traits@D@std@@V?$allocator@D@2@@std@@V12@U?$less@V?$basic_string@DU?$char_traits@D@std@@V?$allocator@D@2@@std@@@2@@property_tree@boost@@@std@@$$CBV?$basic_string@DU?$char_traits@D@std@@V?$allocator@D@2@@2@$0A@@multi_index@boost@@U?$less@V?$basic_string@DU?$char_traits@D@std@@V?$allocator@D@2@@std@@@std@@U?$nth_layer@$01U?$pair@$$CBV?$basic_string@DU?$char_traits@D@std@@V?$allocator@D@2@@std@@V?$basic_ptree@V?$basic_string@DU?$char_traits@D@std@@V?$allocator@D@2@@std@@V12@U?$less@V?$basic_string@DU?$char_traits@D@std@@V?$allocator@D@2@@std@@@2@@property_tree@boost@@@std@@U?$indexed_by@U?$sequenced@U?$tag@Una@mpl@boost@@U123@U123@U123@U123@U123@U123@U123@U123@U123@U123@U123@U123@U123@U123@U123@U123@U123@U123@U123@@multi_index@boost@@@multi_index@boost@@U?$ordered_non_unique@U?$tag@Uby_name@subs@?$basic_ptree@V?$basic_string@DU?$char_traits@D@std@@V?$allocator@D@2@@std@@V12@U?$less@V?$basic_string@DU?$char_traits@D@std@@V?$allocator@D@2@@std@@@2@@property_tree@boost@@Una@mpl@5@U675@U675@U675@U675@U675@U675@U675@U675@U675@U675@U675@U675@U675@U675@U675@U675@U675@U675@@multi_index@boost@@U?$member@U?$pair@$$CBV?$basic_string@DU?$char_traits@D@std@@V?$allocator@D@2@@std@@V?$basic_ptree@V?$basic_string@DU?$char_traits@D@std@@V?$allocator@D@2@@std@@V12@U?$less@V?$basic_string@DU?$char_traits@D@std@@V?$allocator@D@2@@std@@@2@@property_tree@boost@@@std@@$$CBV?$basic_string@DU?$char_traits@D@std@@V?$allocator@D@2@@2@$0A@@23@U?$less@V?$basic_string@DU?$char_traits@D@std@@V?$allocator@D@2@@std@@@std@@@23@Una@mpl@3@U563@U563@U563@U563@U563@U563@U563@U563@U563@U563@U563@U563@U563@U563@U563@U563@U563@@multi_index@boost@@V?$allocator@U?$pair@$$CBV?$basic_string@DU?$char_traits@D@std@@V?$allocator@D@2@@std@@V?$basic_ptree@V?$basic_string@DU?$char_traits@D@std@@V?$allocator@D@2@@std@@V12@U?$less@V?$basic_string@DU?$char_traits@D@std@@V?$allocator@D@2@@std@@@2@@property_tree@boost@@@std@@@2@@detail@23@U?$vector1@Uby_name@subs@?$basic_ptree@V?$basic_string@DU?$char_traits@D@std@@V?$allocator@D@2@@std@@V12@U?$less@V?$basic_string@DU?$char_traits@D@std@@V?$allocator@D@2@@std@@@2@@property_tree@boost@@@mpl@3@Uordered_non_unique_tag@723@Unull_augment_policy@723@@detail@multi_index@boost@@IEAAPEAU?$sequenced_index_node@U?$ordered_index_node@Unull_augment_policy@detail@multi_index@boost@@U?$index_node_base@U?$pair@$$CBV?$basic_string@DU?$char_traits@D@std@@V?$allocator@D@2@@std@@V?$basic_ptree@V?$basic_string@DU?$char_traits@D@std@@V?$allocator@D@2@@std@@V12@U?$less@V?$basic_string@DU?$char_traits@D@std@@V?$allocator@D@2@@std@@@2@@property_tree@boost@@@std@@V?$allocator@U?$pair@$$CBV?$basic_string@DU?$char_traits@D@std@@V?$allocator@D@2@@std@@V?$basic_ptree@V?$basic_string@DU?$char_traits@D@std@@V?$allocator@D@2@@std@@V12@U?$less@V?$basic_string@DU?$char_traits@D@std@@V?$allocator@D@2@@std@@@2@@property_tree@boost@@@std@@@2@@234@@detail@multi_index@boost@@@123@AEBU?$pair@$$CBV?$basic_string@DU?$char_traits@D@std@@V?$allocator@D@2@@std@@V?$basic_ptree@V?$basic_string@DU?$char_traits@D@std@@V?$allocator@D@2@@std@@V12@U?$less@V?$basic_string@DU?$char_traits@D@std@@V?$allocator@D@2@@std@@@2@@property_tree@boost@@@std@@AEAPEAU4123@Ulvalue_tag@123@@Z
	??$insert_@Ulvalue_tag@detail@multi_index@boost@@@?$sequenced_index@U?$nth_layer@$00U?$pair@$$CBV?$basic_string@DU?$char_traits@D@std@@V?$allocator@D@2@@std@@V?$basic_ptree@V?$basic_string@DU?$char_traits@D@std@@V?$allocator@D@2@@std@@V12@U?$less@V?$basic_string@DU?$char_traits@D@std@@V?$allocator@D@2@@std@@@2@@property_tree@boost@@@std@@U?$indexed_by@U?$sequenced@U?$tag@Una@mpl@boost@@U123@U123@U123@U123@U123@U123@U123@U123@U123@U123@U123@U123@U123@U123@U123@U123@U123@U123@U123@@multi_index@boost@@@multi_index@boost@@U?$ordered_non_unique@U?$tag@Uby_name@subs@?$basic_ptree@V?$basic_string@DU?$char_traits@D@std@@V?$allocator@D@2@@std@@V12@U?$less@V?$basic_string@DU?$char_traits@D@std@@V?$allocator@D@2@@std@@@2@@property_tree@boost@@Una@mpl@5@U675@U675@U675@U675@U675@U675@U675@U675@U675@U675@U675@U675@U675@U675@U675@U675@U675@U675@@multi_index@boost@@U?$member@U?$pair@$$CBV?$basic_string@DU?$char_traits@D@std@@V?$allocator@D@2@@std@@V?$basic_ptree@V?$basic_string@DU?$char_traits@D@std@@V?$allocator@D@2@@std@@V12@U?$less@V?$basic_string@DU?$char_traits@D@std@@V?$allocator@D@2@@std@@@2@@property_tree@boost@@@std@@$$CBV?$basic_string@DU?$char_traits@D@std@@V?$allocator@D@2@@2@$0A@@23@U?$less@V?$basic_string@DU?$char_traits@D@std@@V?$allocator@D@2@@std@@@std@@@23@Una@mpl@3@U563@U563@U563@U563@U563@U563@U563@U563@U563@U563@U563@U563@U563@U563@U563@U563@U563@@multi_index@boost@@V?$allocator@U?$pair@$$CBV?$basic_string@DU?$char_traits@D@std@@V?$allocator@D@2@@std@@V?$basic_ptree@V?$basic_string@DU?$char_traits@D@std@@V?$allocator@D@2@@std@@V12@U?$less@V?$basic_string@DU?$char_traits@D@std@@V?$allocator@D@2@@std@@@2@@property_tree@boost@@@std@@@2@@detail@multi_index@boost@@U?$vector0@Una@mpl@boost@@@mpl@4@@detail@multi_index@boost@@IEAAPEAU?$sequenced_index_node@U?$ordered_index_node@Unull_augment_policy@detail@multi_index@boost@@U?$index_node_base@U?$pair@$$CBV?$basic_string@DU?$char_traits@D@std@@V?$allocator@D@2@@std@@V?$basic_ptree@V?$basic_string@DU?$char_traits@D@std@@V?$allocator@D@2@@std@@V12@U?$less@V?$basic_string@DU?$char_traits@D@std@@V?$allocator@D@2@@std@@@2@@property_tree@boost@@@std@@V?$allocator@U?$pair@$$CBV?$basic_string@DU?$char_traits@D@std@@V?$allocator@D@2@@std@@V?$basic_ptree@V?$basic_string@DU?$char_traits@D@std@@V?$allocator@D@2@@std@@V12@U?$less@V?$basic_string@DU?$char_traits@D@std@@V?$allocator@D@2@@std@@@2@@property_tree@boost@@@std@@@2@@234@@detail@multi_index@boost@@@123@AEBU?$pair@$$CBV?$basic_string@DU?$char_traits@D@std@@V?$allocator@D@2@@std@@V?$basic_ptree@V?$basic_string@DU?$char_traits@D@std@@V?$allocator@D@2@@std@@V12@U?$less@V?$basic_string@DU?$char_traits@D@std@@V?$allocator@D@2@@std@@@2@@property_tree@boost@@@std@@AEAPEAU4123@Ulvalue_tag@123@@Z
	??$insert_coded_character@$0A@@?$xml_document@D@rapidxml@detail@property_tree@boost@@CAXAEAPEADK@Z
	??$insert_coded_character@$0EA@@?$xml_document@D@rapidxml@detail@property_tree@boost@@CAXAEAPEADK@Z
	??$insert_coded_character@$0EAA@@?$xml_document@D@rapidxml@detail@property_tree@boost@@CAXAEAPEADK@Z
	??$insert_coded_character@$0EEA@@?$xml_document@D@rapidxml@detail@property_tree@boost@@CAXAEAPEADK@Z
	??$insert_coded_character@$0MAA@@?$xml_document@D@rapidxml@detail@property_tree@boost@@CAXAEAPEADK@Z
	??$insert_coded_character@$0MEA@@?$xml_document@D@rapidxml@detail@property_tree@boost@@CAXAEAPEADK@Z
	??$intrusive_ptr_add_ref@Uimpl@attribute@v2s_mt_nt6@log@boost@@Uthread_safe_counter@sp_adl_block@5@@sp_adl_block@boost@@YAXPEBV?$intrusive_ref_counter@Uimpl@attribute@v2s_mt_nt6@log@boost@@Uthread_safe_counter@sp_adl_block@5@@01@@Z
	??$intrusive_ptr_release@Uimpl@attribute@v2s_mt_nt6@log@boost@@Uthread_safe_counter@sp_adl_block@5@@sp_adl_block@boost@@YAXPEBV?$intrusive_ref_counter@Uimpl@attribute@v2s_mt_nt6@log@boost@@Uthread_safe_counter@sp_adl_block@5@@01@@Z
	??$iter_swap@PEAU?$copy_map_entry@U?$sequenced_index_node@U?$ordered_index_node@Unull_augment_policy@detail@multi_index@boost@@U?$index_node_base@U?$pair@$$CBV?$basic_string@DU?$char_traits@D@std@@V?$allocator@D@2@@std@@V?$basic_ptree@V?$basic_string@DU?$char_traits@D@std@@V?$allocator@D@2@@std@@V12@U?$less@V?$basic_string@DU?$char_traits@D@std@@V?$allocator@D@2@@std@@@2@@property_tree@boost@@@std@@V?$allocator@U?$pair@$$CBV?$basic_string@DU?$char_traits@D@std@@V?$allocator@D@2@@std@@V?$basic_ptree@V?$basic_string@DU?$char_traits@D@std@@V?$allocator@D@2@@std@@V12@U?$less@V?$basic_string@DU?$char_traits@D@std@@V?$allocator@D@2@@std@@@2@@property_tree@boost@@@std@@@2@@234@@detail@multi_index@boost@@@detail@multi_index@boost@@@detail@multi_index@boost@@PEAU1234@@std@@YAXPEAU?$copy_map_entry@U?$sequenced_index_node@U?$ordered_index_node@Unull_augment_policy@detail@multi_index@boost@@U?$index_node_base@U?$pair@$$CBV?$basic_string@DU?$char_traits@D@std@@V?$allocator@D@2@@std@@V?$basic_ptree@V?$basic_string@DU?$char_traits@D@std@@V?$allocator@D@2@@std@@V12@U?$less@V?$basic_string@DU?$char_traits@D@std@@V?$allocator@D@2@@std@@@2@@property_tree@boost@@@std@@V?$allocator@U?$pair@$$CBV?$basic_string@DU?$char_traits@D@std@@V?$allocator@D@2@@std@@V?$basic_ptree@V?$basic_string@DU?$char_traits@D@std@@V?$allocator@D@2@@std@@V12@U?$less@V?$basic_string@DU?$char_traits@D@std@@V?$allocator@D@2@@std@@@2@@property_tree@boost@@@std@@@2@@234@@detail@multi_index@boost@@@detail@multi_index@boost@@@detail@multi_index@boost@@0@Z
	??$lower_bound@PEBU?$copy_map_entry@U?$sequenced_index_node@U?$ordered_index_node@Unull_augment_policy@detail@multi_index@boost@@U?$index_node_base@U?$pair@$$CBV?$basic_string@DU?$char_traits@D@std@@V?$allocator@D@2@@std@@V?$basic_ptree@V?$basic_string@DU?$char_traits@D@std@@V?$allocator@D@2@@std@@V12@U?$less@V?$basic_string@DU?$char_traits@D@std@@V?$allocator@D@2@@std@@@2@@property_tree@boost@@@std@@V?$allocator@U?$pair@$$CBV?$basic_string@DU?$char_traits@D@std@@V?$allocator@D@2@@std@@V?$basic_ptree@V?$basic_string@DU?$char_traits@D@std@@V?$allocator@D@2@@std@@V12@U?$less@V?$basic_string@DU?$char_traits@D@std@@V?$allocator@D@2@@std@@@2@@property_tree@boost@@@std@@@2@@234@@detail@multi_index@boost@@@detail@multi_index@boost@@@detail@multi_index@boost@@U1234@@std@@YAPEBU?$copy_map_entry@U?$sequenced_index_node@U?$ordered_index_node@Unull_augment_policy@detail@multi_index@boost@@U?$index_node_base@U?$pair@$$CBV?$basic_string@DU?$char_traits@D@std@@V?$allocator@D@2@@std@@V?$basic_ptree@V?$basic_string@DU?$char_traits@D@std@@V?$allocator@D@2@@std@@V12@U?$less@V?$basic_string@DU?$char_traits@D@std@@V?$allocator@D@2@@std@@@2@@property_tree@boost@@@std@@V?$allocator@U?$pair@$$CBV?$basic_string@DU?$char_traits@D@std@@V?$allocator@D@2@@std@@V?$basic_ptree@V?$basic_string@DU?$char_traits@D@std@@V?$allocator@D@2@@std@@V12@U?$less@V?$basic_string@DU?$char_traits@D@std@@V?$allocator@D@2@@std@@@2@@property_tree@boost@@@std@@@2@@234@@detail@multi_index@boost@@@detail@multi_index@boost@@@detail@multi_index@boost@@PEBU1234@0AEBU1234@@Z
	??$lower_bound@PEBU?$copy_map_entry@U?$sequenced_index_node@U?$ordered_index_node@Unull_augment_policy@detail@multi_index@boost@@U?$index_node_base@U?$pair@$$CBV?$basic_string@DU?$char_traits@D@std@@V?$allocator@D@2@@std@@V?$basic_ptree@V?$basic_string@DU?$char_traits@D@std@@V?$allocator@D@2@@std@@V12@U?$less@V?$basic_string@DU?$char_traits@D@std@@V?$allocator@D@2@@std@@@2@@property_tree@boost@@@std@@V?$allocator@U?$pair@$$CBV?$basic_string@DU?$char_traits@D@std@@V?$allocator@D@2@@std@@V?$basic_ptree@V?$basic_string@DU?$char_traits@D@std@@V?$allocator@D@2@@std@@V12@U?$less@V?$basic_string@DU?$char_traits@D@std@@V?$allocator@D@2@@std@@@2@@property_tree@boost@@@std@@@2@@234@@detail@multi_index@boost@@@detail@multi_index@boost@@@detail@multi_index@boost@@U1234@U?$less@X@std@@@std@@YAPEBU?$copy_map_entry@U?$sequenced_index_node@U?$ordered_index_node@Unull_augment_policy@detail@multi_index@boost@@U?$index_node_base@U?$pair@$$CBV?$basic_string@DU?$char_traits@D@std@@V?$allocator@D@2@@std@@V?$basic_ptree@V?$basic_string@DU?$char_traits@D@std@@V?$allocator@D@2@@std@@V12@U?$less@V?$basic_string@DU?$char_traits@D@std@@V?$allocator@D@2@@std@@@2@@property_tree@boost@@@std@@V?$allocator@U?$pair@$$CBV?$basic_string@DU?$char_traits@D@std@@V?$allocator@D@2@@std@@V?$basic_ptree@V?$basic_string@DU?$char_traits@D@std@@V?$allocator@D@2@@std@@V12@U?$less@V?$basic_string@DU?$char_traits@D@std@@V?$allocator@D@2@@std@@@2@@property_tree@boost@@@std@@@2@@234@@detail@multi_index@boost@@@detail@multi_index@boost@@@detail@multi_index@boost@@PEBU1234@QEBU1234@AEBU1234@U?$less@X@0@@Z
	??$make_pair@AEBV?$basic_string@DU?$char_traits@D@std@@V?$allocator@D@2@@std@@V?$basic_ptree@V?$basic_string@DU?$char_traits@D@std@@V?$allocator@D@2@@std@@V12@U?$less@V?$basic_string@DU?$char_traits@D@std@@V?$allocator@D@2@@std@@@2@@property_tree@boost@@@std@@YA?AU?$pair@V?$basic_string@DU?$char_traits@D@std@@V?$allocator@D@2@@std@@V?$basic_ptree@V?$basic_string@DU?$char_traits@D@std@@V?$allocator@D@2@@std@@V12@U?$less@V?$basic_string@DU?$char_traits@D@std@@V?$allocator@D@2@@std@@@2@@property_tree@boost@@@0@AEBV?$basic_string@DU?$char_traits@D@std@@V?$allocator@D@2@@0@$$QEAV?$basic_ptree@V?$basic_string@DU?$char_traits@D@std@@V?$allocator@D@2@@std@@V12@U?$less@V?$basic_string@DU?$char_traits@D@std@@V?$allocator@D@2@@std@@@2@@property_tree@boost@@@Z
	??$make_pair@PEADV?$basic_ptree@V?$basic_string@DU?$char_traits@D@std@@V?$allocator@D@2@@std@@V12@U?$less@V?$basic_string@DU?$char_traits@D@std@@V?$allocator@D@2@@std@@@2@@property_tree@boost@@@std@@YA?AU?$pair@PEADV?$basic_ptree@V?$basic_string@DU?$char_traits@D@std@@V?$allocator@D@2@@std@@V12@U?$less@V?$basic_string@DU?$char_traits@D@std@@V?$allocator@D@2@@std@@@2@@property_tree@boost@@@0@$$QEAPEAD$$QEAV?$basic_ptree@V?$basic_string@DU?$char_traits@D@std@@V?$allocator@D@2@@std@@V12@U?$less@V?$basic_string@DU?$char_traits@D@std@@V?$allocator@D@2@@std@@@2@@property_tree@boost@@@Z
	??$make_record_pump@V?$severity_logger_mt@W4level@log@cse@@@sources@v2s_mt_nt6@log@boost@@@aux@v2s_mt_nt6@log@boost@@YA?AV?$record_pump@V?$severity_logger_mt@W4level@log@cse@@@sources@v2s_mt_nt6@log@boost@@@0123@AEAV?$severity_logger_mt@W4level@log@cse@@@sources@123@AEAVrecord@123@@Z
	??$make_shared@U?$logger_holder@V?$severity_logger_mt@W4level@log@cse@@@sources@v2s_mt_nt6@log@boost@@@aux@sources@v2s_mt_nt6@log@boost@@PEBDIV?$severity_logger_mt@W4level@log@cse@@@3456@@boost@@YA?AV?$shared_ptr@U?$logger_holder@V?$severity_logger_mt@W4level@log@cse@@@sources@v2s_mt_nt6@log@boost@@@aux@sources@v2s_mt_nt6@log@boost@@@0@$$QEAPEBD$$QEAI$$QEAV?$severity_logger_mt@W4level@log@cse@@@sources@v2s_mt_nt6@log@0@@Z
	??$make_shared@U_Dir_enum_impl@filesystem@std@@U_Creator@123@AEBW4directory_options@23@@std@@YA?AV?$shared_ptr@U_Dir_enum_impl@filesystem@std@@@0@$$QEAU_Creator@_Dir_enum_impl@filesystem@0@AEBW4directory_options@40@@Z
	??$make_unique@Ujm_callbacks@@$$V$0A@@std@@YA?AV?$unique_ptr@Ujm_callbacks@@U?$default_delete@Ujm_callbacks@@@std@@@0@XZ
	??$make_unique@Vadditional_path@detail@fmi@cse@@Vpath@filesystem@std@@$0A@@std@@YA?AV?$unique_ptr@Vadditional_path@detail@fmi@cse@@U?$default_delete@Vadditional_path@detail@fmi@cse@@@std@@@0@$$QEAVpath@filesystem@0@@Z
	??$make_unique@Vtemp_dir@utility@cse@@V123@$0A@@std@@YA?AV?$unique_ptr@Vtemp_dir@utility@cse@@U?$default_delete@Vtemp_dir@utility@cse@@@std@@@0@$$QEAVtemp_dir@utility@cse@@@Z
	??$measure@D@internal@rapidxml@detail@property_tree@boost@@YA_KPEBD@Z
	??$min@_J@std@@YAAEB_JAEB_J0@Z
	??$move@AEAD@std@@YA$$QEADAEAD@Z
	??$move@AEAP6AXPEAUevent@@@Z@std@@YA$$QEAP6AXPEAUevent@@@ZAEAP6AX0@Z@Z
	??$move@AEAP6AXPEAUevent_base@@@Z@std@@YA$$QEAP6AXPEAUevent_base@@@ZAEAP6AX0@Z@Z
	??$move@AEAP6AXPEAUfmi_xml_context_t@@@Z@std@@YA$$QEAP6AXPEAUfmi_xml_context_t@@@ZAEAP6AX0@Z@Z
	??$move@AEAPEAU?$logger_holder@V?$severity_logger_mt@W4level@log@cse@@@sources@v2s_mt_nt6@log@boost@@@aux@sources@v2s_mt_nt6@log@boost@@@std@@YA$$QEAPEAU?$logger_holder@V?$severity_logger_mt@W4level@log@cse@@@sources@v2s_mt_nt6@log@boost@@@aux@sources@v2s_mt_nt6@log@boost@@AEAPEAU123456@@Z
	??$move@AEAPEAU_Dir_enum_impl@filesystem@std@@@std@@YA$$QEAPEAU_Dir_enum_impl@filesystem@0@AEAPEAU120@@Z
	??$move@AEAPEAV_Ref_count_base@std@@@std@@YA$$QEAPEAV_Ref_count_base@0@AEAPEAV10@@Z
	??$move@AEAPEAVcore@v2s_mt_nt6@log@boost@@@std@@YA$$QEAPEAVcore@v2s_mt_nt6@log@boost@@AEAPEAV1234@@Z
	??$move@AEAPEAVfmu@fmi@cse@@@std@@YA$$QEAPEAVfmu@fmi@cse@@AEAPEAV123@@Z
	??$move@AEAPEAVfmu@v1@fmi@cse@@@std@@YA$$QEAPEAVfmu@v1@fmi@cse@@AEAPEAV1234@@Z
	??$move@AEAPEAVfmu@v2@fmi@cse@@@std@@YA$$QEAPEAVfmu@v2@fmi@cse@@AEAPEAV1234@@Z
	??$move@AEAPEAVimporter@fmi@cse@@@std@@YA$$QEAPEAVimporter@fmi@cse@@AEAPEAV123@@Z
	??$move@AEAPEAVslave_instance@v1@fmi@cse@@@std@@YA$$QEAPEAVslave_instance@v1@fmi@cse@@AEAPEAV1234@@Z
	??$move@AEAPEAVslave_instance@v2@fmi@cse@@@std@@YA$$QEAPEAVslave_instance@v2@fmi@cse@@AEAPEAV1234@@Z
	??$move@AEAPEAX@std@@YA$$QEAPEAXAEAPEAX@Z
	??$move@AEAU?$copy_map_entry@U?$sequenced_index_node@U?$ordered_index_node@Unull_augment_policy@detail@multi_index@boost@@U?$index_node_base@U?$pair@$$CBV?$basic_string@DU?$char_traits@D@std@@V?$allocator@D@2@@std@@V?$basic_ptree@V?$basic_string@DU?$char_traits@D@std@@V?$allocator@D@2@@std@@V12@U?$less@V?$basic_string@DU?$char_traits@D@std@@V?$allocator@D@2@@std@@@2@@property_tree@boost@@@std@@V?$allocator@U?$pair@$$CBV?$basic_string@DU?$char_traits@D@std@@V?$allocator@D@2@@std@@V?$basic_ptree@V?$basic_string@DU?$char_traits@D@std@@V?$allocator@D@2@@std@@V12@U?$less@V?$basic_string@DU?$char_traits@D@std@@V?$allocator@D@2@@std@@@2@@property_tree@boost@@@std@@@2@@234@@detail@multi_index@boost@@@detail@multi_index@boost@@@detail@multi_index@boost@@@std@@YA$$QEAU?$copy_map_entry@U?$sequenced_index_node@U?$ordered_index_node@Unull_augment_policy@detail@multi_index@boost@@U?$index_node_base@U?$pair@$$CBV?$basic_string@DU?$char_traits@D@std@@V?$allocator@D@2@@std@@V?$basic_ptree@V?$basic_string@DU?$char_traits@D@std@@V?$allocator@D@2@@std@@V12@U?$less@V?$basic_string@DU?$char_traits@D@std@@V?$allocator@D@2@@std@@@2@@property_tree@boost@@@std@@V?$allocator@U?$pair@$$CBV?$basic_string@DU?$char_traits@D@std@@V?$allocator@D@2@@std@@V?$basic_ptree@V?$basic_string@DU?$char_traits@D@std@@V?$allocator@D@2@@std@@V12@U?$less@V?$basic_string@DU?$char_traits@D@std@@V?$allocator@D@2@@std@@@2@@property_tree@boost@@@std@@@2@@234@@detail@multi_index@boost@@@detail@multi_index@boost@@@detail@multi_index@boost@@AEAU1234@@Z
	??$move@AEAU?$multi_thread_model@Vlight_rw_mutex@aux@v2s_mt_nt6@log@boost@@@sources@v2s_mt_nt6@log@boost@@@boost@@YA$$QEAU?$multi_thread_model@Vlight_rw_mutex@aux@v2s_mt_nt6@log@boost@@@sources@v2s_mt_nt6@log@0@AEAU12340@@Z
	??$move@AEAU_Creator@_Dir_enum_impl@filesystem@std@@@std@@YA$$QEAU_Creator@_Dir_enum_impl@filesystem@0@AEAU1230@@Z
	??$move@AEAU_Find_file_handle@filesystem@std@@@std@@YA$$QEAU_Find_file_handle@filesystem@0@AEAU120@@Z
	??$move@AEAUvariable_description@cse@@@std@@YA$$QEAUvariable_description@cse@@AEAU12@@Z
	??$move@AEAV?$allocator@D@std@@@std@@YA$$QEAV?$allocator@D@0@AEAV10@@Z
	??$move@AEAV?$allocator@_W@std@@@std@@YA$$QEAV?$allocator@_W@0@AEAV10@@Z
	??$move@AEAV?$basic_composite_logger@DV?$severity_logger_mt@W4level@log@cse@@@sources@v2s_mt_nt6@log@boost@@U?$multi_thread_model@Vlight_rw_mutex@aux@v2s_mt_nt6@log@boost@@@2345@U?$features@U?$severity@W4level@log@cse@@@sources@v2s_mt_nt6@log@boost@@@2345@@sources@v2s_mt_nt6@log@boost@@@boost@@YA$$QEAV?$basic_composite_logger@DV?$severity_logger_mt@W4level@log@cse@@@sources@v2s_mt_nt6@log@boost@@U?$multi_thread_model@Vlight_rw_mutex@aux@v2s_mt_nt6@log@boost@@@2345@U?$features@U?$severity@W4level@log@cse@@@sources@v2s_mt_nt6@log@boost@@@2345@@sources@v2s_mt_nt6@log@0@AEAV12340@@Z
	??$move@AEAV?$basic_logger@DV?$severity_logger_mt@W4level@log@cse@@@sources@v2s_mt_nt6@log@boost@@U?$multi_thread_model@Vlight_rw_mutex@aux@v2s_mt_nt6@log@boost@@@2345@@sources@v2s_mt_nt6@log@boost@@@boost@@YA$$QEAV?$basic_logger@DV?$severity_logger_mt@W4level@log@cse@@@sources@v2s_mt_nt6@log@boost@@U?$multi_thread_model@Vlight_rw_mutex@aux@v2s_mt_nt6@log@boost@@@2345@@sources@v2s_mt_nt6@log@0@AEAV12340@@Z
	??$move@AEAV?$basic_severity_logger@V?$basic_logger@DV?$severity_logger_mt@W4level@log@cse@@@sources@v2s_mt_nt6@log@boost@@U?$multi_thread_model@Vlight_rw_mutex@aux@v2s_mt_nt6@log@boost@@@2345@@sources@v2s_mt_nt6@log@boost@@W4level@4cse@@@sources@v2s_mt_nt6@log@boost@@@boost@@YA$$QEAV?$basic_severity_logger@V?$basic_logger@DV?$severity_logger_mt@W4level@log@cse@@@sources@v2s_mt_nt6@log@boost@@U?$multi_thread_model@Vlight_rw_mutex@aux@v2s_mt_nt6@log@boost@@@2345@@sources@v2s_mt_nt6@log@boost@@W4level@4cse@@@sources@v2s_mt_nt6@log@0@AEAV12340@@Z
	??$move@AEAV?$basic_string@DU?$char_traits@D@std@@V?$allocator@D@2@@std@@@std@@YA$$QEAV?$basic_string@DU?$char_traits@D@std@@V?$allocator@D@2@@0@AEAV10@@Z
	??$move@AEAV?$basic_string@_WU?$char_traits@_W@std@@V?$allocator@_W@2@@std@@@std@@YA$$QEAV?$basic_string@_WU?$char_traits@_W@std@@V?$allocator@_W@2@@0@AEAV10@@Z
	??$move@AEAV?$severity_level@W4level@log@cse@@@aux@sources@v2s_mt_nt6@log@boost@@@boost@@YA$$QEAV?$severity_level@W4level@log@cse@@@aux@sources@v2s_mt_nt6@log@0@AEAV123450@@Z
	??$move@AEAV?$shared_ptr@U_Dir_enum_impl@filesystem@std@@@std@@@std@@YA$$QEAV?$shared_ptr@U_Dir_enum_impl@filesystem@std@@@0@AEAV10@@Z
	??$move@AEAV?$shared_ptr@Vfmu@fmi@cse@@@std@@@std@@YA$$QEAV?$shared_ptr@Vfmu@fmi@cse@@@0@AEAV10@@Z
	??$move@AEAV?$shared_ptr@Vslave_instance@v1@fmi@cse@@@std@@@std@@YA$$QEAV?$shared_ptr@Vslave_instance@v1@fmi@cse@@@0@AEAV10@@Z
	??$move@AEAV?$shared_ptr@Vslave_instance@v2@fmi@cse@@@std@@@std@@YA$$QEAV?$shared_ptr@Vslave_instance@v2@fmi@cse@@@0@AEAV10@@Z
	??$move@AEAV?$tuple@$$QEAV?$basic_string@DU?$char_traits@D@std@@V?$allocator@D@2@@std@@@std@@@std@@YA$$QEAV?$tuple@$$QEAV?$basic_string@DU?$char_traits@D@std@@V?$allocator@D@2@@std@@@0@AEAV10@@Z
	??$move@AEAV?$tuple@AEBV?$basic_string@DU?$char_traits@D@std@@V?$allocator@D@2@@std@@@std@@@std@@YA$$QEAV?$tuple@AEBV?$basic_string@DU?$char_traits@D@std@@V?$allocator@D@2@@std@@@0@AEAV10@@Z
	??$move@AEAV?$tuple@AEBVpath@filesystem@std@@@std@@@std@@YA$$QEAV?$tuple@AEBVpath@filesystem@std@@@0@AEAV10@@Z
	??$move@AEAV?$unique_ptr@Uevent@@P6AXPEAU1@@Z@std@@@std@@YA$$QEAV?$unique_ptr@Uevent@@P6AXPEAU1@@Z@0@AEAV10@@Z
	??$move@AEAV?$weak_ptr@Vslave_instance@v1@fmi@cse@@@std@@@std@@YA$$QEAV?$weak_ptr@Vslave_instance@v1@fmi@cse@@@0@AEAV10@@Z
	??$move@AEAV?$weak_ptr@Vslave_instance@v2@fmi@cse@@@std@@@std@@YA$$QEAV?$weak_ptr@Vslave_instance@v2@fmi@cse@@@0@AEAV10@@Z
	??$move@AEAVattribute@v2s_mt_nt6@log@boost@@@boost@@YA$$QEAVattribute@v2s_mt_nt6@log@0@AEAV1230@@Z
	??$move@AEAVpath@filesystem@std@@@std@@YA$$QEAVpath@filesystem@0@AEAV120@@Z
	??$move@AEAVrecord@v2s_mt_nt6@log@boost@@@boost@@YA$$QEAVrecord@v2s_mt_nt6@log@0@AEAV1230@@Z
	??$move@AEAVtemp_dir@utility@cse@@@std@@YA$$QEAVtemp_dir@utility@cse@@AEAV123@@Z
	??$move@AEAW4__std_fs_dir_handle@@@std@@YA$$QEAW4__std_fs_dir_handle@@AEAW41@@Z
	??$move@AEAW4level@log@cse@@@boost@@YA$$QEAW4level@log@cse@@AEAW4123@@Z
	??$move@AEBV?$basic_string@DU?$char_traits@D@std@@V?$allocator@D@2@@std@@@std@@YA$$QEBV?$basic_string@DU?$char_traits@D@std@@V?$allocator@D@2@@0@AEBV10@@Z
	??$next@PEBU?$copy_map_entry@U?$sequenced_index_node@U?$ordered_index_node@Unull_augment_policy@detail@multi_index@boost@@U?$index_node_base@U?$pair@$$CBV?$basic_string@DU?$char_traits@D@std@@V?$allocator@D@2@@std@@V?$basic_ptree@V?$basic_string@DU?$char_traits@D@std@@V?$allocator@D@2@@std@@V12@U?$less@V?$basic_string@DU?$char_traits@D@std@@V?$allocator@D@2@@std@@@2@@property_tree@boost@@@std@@V?$allocator@U?$pair@$$CBV?$basic_string@DU?$char_traits@D@std@@V?$allocator@D@2@@std@@V?$basic_ptree@V?$basic_string@DU?$char_traits@D@std@@V?$allocator@D@2@@std@@V12@U?$less@V?$basic_string@DU?$char_traits@D@std@@V?$allocator@D@2@@std@@@2@@property_tree@boost@@@std@@@2@@234@@detail@multi_index@boost@@@detail@multi_index@boost@@@detail@multi_index@boost@@@std@@YAPEBU?$copy_map_entry@U?$sequenced_index_node@U?$ordered_index_node@Unull_augment_policy@detail@multi_index@boost@@U?$index_node_base@U?$pair@$$CBV?$basic_string@DU?$char_traits@D@std@@V?$allocator@D@2@@std@@V?$basic_ptree@V?$basic_string@DU?$char_traits@D@std@@V?$allocator@D@2@@std@@V12@U?$less@V?$basic_string@DU?$char_traits@D@std@@V?$allocator@D@2@@std@@@2@@property_tree@boost@@@std@@V?$allocator@U?$pair@$$CBV?$basic_string@DU?$char_traits@D@std@@V?$allocator@D@2@@std@@V?$basic_ptree@V?$basic_string@DU?$char_traits@D@std@@V?$allocator@D@2@@std@@V12@U?$less@V?$basic_string@DU?$char_traits@D@std@@V?$allocator@D@2@@std@@@2@@property_tree@boost@@@std@@@2@@234@@detail@multi_index@boost@@@detail@multi_index@boost@@@detail@multi_index@boost@@PEBU1234@_J@Z
	??$numeric_cast@J_J@boost@@YAJ_J@Z
	??$open_record@U?$tagged_argument@Useverity@tag@keywords@v2s_mt_nt6@log@boost@@$$CBW4level@5cse@@@aux@parameter@boost@@@?$basic_composite_logger@DV?$severity_logger_mt@W4level@log@cse@@@sources@v2s_mt_nt6@log@boost@@U?$multi_thread_model@Vlight_rw_mutex@aux@v2s_mt_nt6@log@boost@@@2345@U?$features@U?$severity@W4level@log@cse@@@sources@v2s_mt_nt6@log@boost@@@2345@@sources@v2s_mt_nt6@log@boost@@QEAA?AVrecord@234@AEBU?$tagged_argument@Useverity@tag@keywords@v2s_mt_nt6@log@boost@@$$CBW4level@5cse@@@aux@parameter@4@@Z
	??$open_record@U?$tagged_argument@Useverity@tag@keywords@v2s_mt_nt6@log@boost@@W4level@5cse@@@aux@parameter@boost@@@?$basic_composite_logger@DV?$severity_logger_mt@W4level@log@cse@@@sources@v2s_mt_nt6@log@boost@@U?$multi_thread_model@Vlight_rw_mutex@aux@v2s_mt_nt6@log@boost@@@2345@U?$features@U?$severity@W4level@log@cse@@@sources@v2s_mt_nt6@log@boost@@@2345@@sources@v2s_mt_nt6@log@boost@@QEAA?AVrecord@234@AEBU?$tagged_argument@Useverity@tag@keywords@v2s_mt_nt6@log@boost@@W4level@5cse@@@aux@parameter@4@@Z
	??$open_record_unlocked@U?$tagged_argument@Useverity@tag@keywords@v2s_mt_nt6@log@boost@@$$CBW4level@5cse@@@aux@parameter@boost@@@?$basic_logger@DV?$severity_logger_mt@W4level@log@cse@@@sources@v2s_mt_nt6@log@boost@@U?$multi_thread_model@Vlight_rw_mutex@aux@v2s_mt_nt6@log@boost@@@2345@@sources@v2s_mt_nt6@log@boost@@IEAA?AVrecord@234@AEBU?$tagged_argument@Useverity@tag@keywords@v2s_mt_nt6@log@boost@@$$CBW4level@5cse@@@aux@parameter@4@@Z
	??$open_record_unlocked@U?$tagged_argument@Useverity@tag@keywords@v2s_mt_nt6@log@boost@@$$CBW4level@5cse@@@aux@parameter@boost@@@?$basic_severity_logger@V?$basic_logger@DV?$severity_logger_mt@W4level@log@cse@@@sources@v2s_mt_nt6@log@boost@@U?$multi_thread_model@Vlight_rw_mutex@aux@v2s_mt_nt6@log@boost@@@2345@@sources@v2s_mt_nt6@log@boost@@W4level@4cse@@@sources@v2s_mt_nt6@log@boost@@IEAA?AVrecord@234@AEBU?$tagged_argument@Useverity@tag@keywords@v2s_mt_nt6@log@boost@@$$CBW4level@5cse@@@aux@parameter@4@@Z
	??$open_record_unlocked@U?$tagged_argument@Useverity@tag@keywords@v2s_mt_nt6@log@boost@@W4level@5cse@@@aux@parameter@boost@@@?$basic_logger@DV?$severity_logger_mt@W4level@log@cse@@@sources@v2s_mt_nt6@log@boost@@U?$multi_thread_model@Vlight_rw_mutex@aux@v2s_mt_nt6@log@boost@@@2345@@sources@v2s_mt_nt6@log@boost@@IEAA?AVrecord@234@AEBU?$tagged_argument@Useverity@tag@keywords@v2s_mt_nt6@log@boost@@W4level@5cse@@@aux@parameter@4@@Z
	??$open_record_unlocked@U?$tagged_argument@Useverity@tag@keywords@v2s_mt_nt6@log@boost@@W4level@5cse@@@aux@parameter@boost@@@?$basic_severity_logger@V?$basic_logger@DV?$severity_logger_mt@W4level@log@cse@@@sources@v2s_mt_nt6@log@boost@@U?$multi_thread_model@Vlight_rw_mutex@aux@v2s_mt_nt6@log@boost@@@2345@@sources@v2s_mt_nt6@log@boost@@W4level@4cse@@@sources@v2s_mt_nt6@log@boost@@IEAA?AVrecord@234@AEBU?$tagged_argument@Useverity@tag@keywords@v2s_mt_nt6@log@boost@@W4level@5cse@@@aux@parameter@4@@Z
	??$ordered_index_find@U?$ordered_index_node@Unull_augment_policy@detail@multi_index@boost@@U?$index_node_base@U?$pair@$$CBV?$basic_string@DU?$char_traits@D@std@@V?$allocator@D@2@@std@@V?$basic_ptree@V?$basic_string@DU?$char_traits@D@std@@V?$allocator@D@2@@std@@V12@U?$less@V?$basic_string@DU?$char_traits@D@std@@V?$allocator@D@2@@std@@@2@@property_tree@boost@@@std@@V?$allocator@U?$pair@$$CBV?$basic_string@DU?$char_traits@D@std@@V?$allocator@D@2@@std@@V?$basic_ptree@V?$basic_string@DU?$char_traits@D@std@@V?$allocator@D@2@@std@@V12@U?$less@V?$basic_string@DU?$char_traits@D@std@@V?$allocator@D@2@@std@@@2@@property_tree@boost@@@std@@@2@@234@@detail@multi_index@boost@@U?$member@U?$pair@$$CBV?$basic_string@DU?$char_traits@D@std@@V?$allocator@D@2@@std@@V?$basic_ptree@V?$basic_string@DU?$char_traits@D@std@@V?$allocator@D@2@@std@@V12@U?$less@V?$basic_string@DU?$char_traits@D@std@@V?$allocator@D@2@@std@@@2@@property_tree@boost@@@std@@$$CBV?$basic_string@DU?$char_traits@D@std@@V?$allocator@D@2@@2@$0A@@34@V?$basic_string@DU?$char_traits@D@std@@V?$allocator@D@2@@std@@U?$less@V?$basic_string@DU?$char_traits@D@std@@V?$allocator@D@2@@std@@@7@@detail@multi_index@boost@@YAPEAU?$ordered_index_node@Unull_augment_policy@detail@multi_index@boost@@U?$index_node_base@U?$pair@$$CBV?$basic_string@DU?$char_traits@D@std@@V?$allocator@D@2@@std@@V?$basic_ptree@V?$basic_string@DU?$char_traits@D@std@@V?$allocator@D@2@@std@@V12@U?$less@V?$basic_string@DU?$char_traits@D@std@@V?$allocator@D@2@@std@@@2@@property_tree@boost@@@std@@V?$allocator@U?$pair@$$CBV?$basic_string@DU?$char_traits@D@std@@V?$allocator@D@2@@std@@V?$basic_ptree@V?$basic_string@DU?$char_traits@D@std@@V?$allocator@D@2@@std@@V12@U?$less@V?$basic_string@DU?$char_traits@D@std@@V?$allocator@D@2@@std@@@2@@property_tree@boost@@@std@@@2@@234@@012@PEAU3012@0AEBU?$member@U?$pair@$$CBV?$basic_string@DU?$char_traits@D@std@@V?$allocator@D@2@@std@@V?$basic_ptree@V?$basic_string@DU?$char_traits@D@std@@V?$allocator@D@2@@std@@V12@U?$less@V?$basic_string@DU?$char_traits@D@std@@V?$allocator@D@2@@std@@@2@@property_tree@boost@@@std@@$$CBV?$basic_string@DU?$char_traits@D@std@@V?$allocator@D@2@@2@$0A@@12@AEBV?$basic_string@DU?$char_traits@D@std@@V?$allocator@D@2@@std@@AEBU?$less@V?$basic_string@DU?$char_traits@D@std@@V?$allocator@D@2@@std@@@6@@Z
	??$ordered_index_find@U?$ordered_index_node@Unull_augment_policy@detail@multi_index@boost@@U?$index_node_base@U?$pair@$$CBV?$basic_string@DU?$char_traits@D@std@@V?$allocator@D@2@@std@@V?$basic_ptree@V?$basic_string@DU?$char_traits@D@std@@V?$allocator@D@2@@std@@V12@U?$less@V?$basic_string@DU?$char_traits@D@std@@V?$allocator@D@2@@std@@@2@@property_tree@boost@@@std@@V?$allocator@U?$pair@$$CBV?$basic_string@DU?$char_traits@D@std@@V?$allocator@D@2@@std@@V?$basic_ptree@V?$basic_string@DU?$char_traits@D@std@@V?$allocator@D@2@@std@@V12@U?$less@V?$basic_string@DU?$char_traits@D@std@@V?$allocator@D@2@@std@@@2@@property_tree@boost@@@std@@@2@@234@@detail@multi_index@boost@@U?$member@U?$pair@$$CBV?$basic_string@DU?$char_traits@D@std@@V?$allocator@D@2@@std@@V?$basic_ptree@V?$basic_string@DU?$char_traits@D@std@@V?$allocator@D@2@@std@@V12@U?$less@V?$basic_string@DU?$char_traits@D@std@@V?$allocator@D@2@@std@@@2@@property_tree@boost@@@std@@$$CBV?$basic_string@DU?$char_traits@D@std@@V?$allocator@D@2@@2@$0A@@34@V?$basic_string@DU?$char_traits@D@std@@V?$allocator@D@2@@std@@U?$less@V?$basic_string@DU?$char_traits@D@std@@V?$allocator@D@2@@std@@@7@@detail@multi_index@boost@@YAPEAU?$ordered_index_node@Unull_augment_policy@detail@multi_index@boost@@U?$index_node_base@U?$pair@$$CBV?$basic_string@DU?$char_traits@D@std@@V?$allocator@D@2@@std@@V?$basic_ptree@V?$basic_string@DU?$char_traits@D@std@@V?$allocator@D@2@@std@@V12@U?$less@V?$basic_string@DU?$char_traits@D@std@@V?$allocator@D@2@@std@@@2@@property_tree@boost@@@std@@V?$allocator@U?$pair@$$CBV?$basic_string@DU?$char_traits@D@std@@V?$allocator@D@2@@std@@V?$basic_ptree@V?$basic_string@DU?$char_traits@D@std@@V?$allocator@D@2@@std@@V12@U?$less@V?$basic_string@DU?$char_traits@D@std@@V?$allocator@D@2@@std@@@2@@property_tree@boost@@@std@@@2@@234@@012@PEAU3012@0AEBU?$member@U?$pair@$$CBV?$basic_string@DU?$char_traits@D@std@@V?$allocator@D@2@@std@@V?$basic_ptree@V?$basic_string@DU?$char_traits@D@std@@V?$allocator@D@2@@std@@V12@U?$less@V?$basic_string@DU?$char_traits@D@std@@V?$allocator@D@2@@std@@@2@@property_tree@boost@@@std@@$$CBV?$basic_string@DU?$char_traits@D@std@@V?$allocator@D@2@@2@$0A@@12@AEBV?$basic_string@DU?$char_traits@D@std@@V?$allocator@D@2@@std@@AEBU?$less@V?$basic_string@DU?$char_traits@D@std@@V?$allocator@D@2@@std@@@6@U?$bool_@$0A@@mpl@2@@Z
	??$parse@$0A@@?$xml_document@D@rapidxml@detail@property_tree@boost@@QEAAXPEAD@Z
	??$parse@$0EA@@?$xml_document@D@rapidxml@detail@property_tree@boost@@QEAAXPEAD@Z
	??$parse@$0MAA@@?$xml_document@D@rapidxml@detail@property_tree@boost@@QEAAXPEAD@Z
	??$parse@$0MEA@@?$xml_document@D@rapidxml@detail@property_tree@boost@@QEAAXPEAD@Z
	??$parse_and_append_data@$0A@@?$xml_document@D@rapidxml@detail@property_tree@boost@@AEAADPEAV?$xml_node@D@1234@AEAPEADPEAD@Z
	??$parse_and_append_data@$0EA@@?$xml_document@D@rapidxml@detail@property_tree@boost@@AEAADPEAV?$xml_node@D@1234@AEAPEADPEAD@Z
	??$parse_and_append_data@$0MAA@@?$xml_document@D@rapidxml@detail@property_tree@boost@@AEAADPEAV?$xml_node@D@1234@AEAPEADPEAD@Z
	??$parse_and_append_data@$0MEA@@?$xml_document@D@rapidxml@detail@property_tree@boost@@AEAADPEAV?$xml_node@D@1234@AEAPEADPEAD@Z
	??$parse_bom@$0A@@?$xml_document@D@rapidxml@detail@property_tree@boost@@AEAAXAEAPEAD@Z
	??$parse_bom@$0EA@@?$xml_document@D@rapidxml@detail@property_tree@boost@@AEAAXAEAPEAD@Z
	??$parse_bom@$0MAA@@?$xml_document@D@rapidxml@detail@property_tree@boost@@AEAAXAEAPEAD@Z
	??$parse_bom@$0MEA@@?$xml_document@D@rapidxml@detail@property_tree@boost@@AEAAXAEAPEAD@Z
	??$parse_cdata@$0A@@?$xml_document@D@rapidxml@detail@property_tree@boost@@AEAAPEAV?$xml_node@D@1234@AEAPEAD@Z
	??$parse_cdata@$0EA@@?$xml_document@D@rapidxml@detail@property_tree@boost@@AEAAPEAV?$xml_node@D@1234@AEAPEAD@Z
	??$parse_cdata@$0MAA@@?$xml_document@D@rapidxml@detail@property_tree@boost@@AEAAPEAV?$xml_node@D@1234@AEAPEAD@Z
	??$parse_cdata@$0MEA@@?$xml_document@D@rapidxml@detail@property_tree@boost@@AEAAPEAV?$xml_node@D@1234@AEAPEAD@Z
	??$parse_comment@$0A@@?$xml_document@D@rapidxml@detail@property_tree@boost@@AEAAPEAV?$xml_node@D@1234@AEAPEAD@Z
	??$parse_comment@$0EA@@?$xml_document@D@rapidxml@detail@property_tree@boost@@AEAAPEAV?$xml_node@D@1234@AEAPEAD@Z
	??$parse_comment@$0MAA@@?$xml_document@D@rapidxml@detail@property_tree@boost@@AEAAPEAV?$xml_node@D@1234@AEAPEAD@Z
	??$parse_comment@$0MEA@@?$xml_document@D@rapidxml@detail@property_tree@boost@@AEAAPEAV?$xml_node@D@1234@AEAPEAD@Z
	??$parse_doctype@$0A@@?$xml_document@D@rapidxml@detail@property_tree@boost@@AEAAPEAV?$xml_node@D@1234@AEAPEAD@Z
	??$parse_doctype@$0EA@@?$xml_document@D@rapidxml@detail@property_tree@boost@@AEAAPEAV?$xml_node@D@1234@AEAPEAD@Z
	??$parse_doctype@$0MAA@@?$xml_document@D@rapidxml@detail@property_tree@boost@@AEAAPEAV?$xml_node@D@1234@AEAPEAD@Z
	??$parse_doctype@$0MEA@@?$xml_document@D@rapidxml@detail@property_tree@boost@@AEAAPEAV?$xml_node@D@1234@AEAPEAD@Z
	??$parse_element@$0A@@?$xml_document@D@rapidxml@detail@property_tree@boost@@AEAAPEAV?$xml_node@D@1234@AEAPEAD@Z
	??$parse_element@$0EA@@?$xml_document@D@rapidxml@detail@property_tree@boost@@AEAAPEAV?$xml_node@D@1234@AEAPEAD@Z
	??$parse_element@$0MAA@@?$xml_document@D@rapidxml@detail@property_tree@boost@@AEAAPEAV?$xml_node@D@1234@AEAPEAD@Z
	??$parse_element@$0MEA@@?$xml_document@D@rapidxml@detail@property_tree@boost@@AEAAPEAV?$xml_node@D@1234@AEAPEAD@Z
	??$parse_node@$0A@@?$xml_document@D@rapidxml@detail@property_tree@boost@@AEAAPEAV?$xml_node@D@1234@AEAPEAD@Z
	??$parse_node@$0EA@@?$xml_document@D@rapidxml@detail@property_tree@boost@@AEAAPEAV?$xml_node@D@1234@AEAPEAD@Z
	??$parse_node@$0MAA@@?$xml_document@D@rapidxml@detail@property_tree@boost@@AEAAPEAV?$xml_node@D@1234@AEAPEAD@Z
	??$parse_node@$0MEA@@?$xml_document@D@rapidxml@detail@property_tree@boost@@AEAAPEAV?$xml_node@D@1234@AEAPEAD@Z
	??$parse_node_attributes@$0A@@?$xml_document@D@rapidxml@detail@property_tree@boost@@AEAAXAEAPEADPEAV?$xml_node@D@1234@@Z
	??$parse_node_attributes@$0EA@@?$xml_document@D@rapidxml@detail@property_tree@boost@@AEAAXAEAPEADPEAV?$xml_node@D@1234@@Z
	??$parse_node_attributes@$0MAA@@?$xml_document@D@rapidxml@detail@property_tree@boost@@AEAAXAEAPEADPEAV?$xml_node@D@1234@@Z
	??$parse_node_attributes@$0MEA@@?$xml_document@D@rapidxml@detail@property_tree@boost@@AEAAXAEAPEADPEAV?$xml_node@D@1234@@Z
	??$parse_node_contents@$0A@@?$xml_document@D@rapidxml@detail@property_tree@boost@@AEAAXAEAPEADPEAV?$xml_node@D@1234@@Z
	??$parse_node_contents@$0EA@@?$xml_document@D@rapidxml@detail@property_tree@boost@@AEAAXAEAPEADPEAV?$xml_node@D@1234@@Z
	??$parse_node_contents@$0MAA@@?$xml_document@D@rapidxml@detail@property_tree@boost@@AEAAXAEAPEADPEAV?$xml_node@D@1234@@Z
	??$parse_node_contents@$0MEA@@?$xml_document@D@rapidxml@detail@property_tree@boost@@AEAAXAEAPEADPEAV?$xml_node@D@1234@@Z
	??$parse_pi@$0A@@?$xml_document@D@rapidxml@detail@property_tree@boost@@AEAAPEAV?$xml_node@D@1234@AEAPEAD@Z
	??$parse_pi@$0EA@@?$xml_document@D@rapidxml@detail@property_tree@boost@@AEAAPEAV?$xml_node@D@1234@AEAPEAD@Z
	??$parse_pi@$0MAA@@?$xml_document@D@rapidxml@detail@property_tree@boost@@AEAAPEAV?$xml_node@D@1234@AEAPEAD@Z
	??$parse_pi@$0MEA@@?$xml_document@D@rapidxml@detail@property_tree@boost@@AEAAPEAV?$xml_node@D@1234@AEAPEAD@Z
	??$parse_xml_declaration@$0A@@?$xml_document@D@rapidxml@detail@property_tree@boost@@AEAAPEAV?$xml_node@D@1234@AEAPEAD@Z
	??$parse_xml_declaration@$0EA@@?$xml_document@D@rapidxml@detail@property_tree@boost@@AEAAPEAV?$xml_node@D@1234@AEAPEAD@Z
	??$parse_xml_declaration@$0MAA@@?$xml_document@D@rapidxml@detail@property_tree@boost@@AEAAPEAV?$xml_node@D@1234@AEAPEAD@Z
	??$parse_xml_declaration@$0MEA@@?$xml_document@D@rapidxml@detail@property_tree@boost@@AEAAPEAV?$xml_node@D@1234@AEAPEAD@Z
	??$prepare_bad_path_what@V?$string_path@V?$basic_string@DU?$char_traits@D@std@@V?$allocator@D@2@@std@@U?$id_translator@V?$basic_string@DU?$char_traits@D@std@@V?$allocator@D@2@@std@@@property_tree@boost@@@property_tree@boost@@@detail@property_tree@boost@@YA?AV?$basic_string@DU?$char_traits@D@std@@V?$allocator@D@2@@std@@AEBV34@AEBV?$string_path@V?$basic_string@DU?$char_traits@D@std@@V?$allocator@D@2@@std@@U?$id_translator@V?$basic_string@DU?$char_traits@D@std@@V?$allocator@D@2@@std@@@property_tree@boost@@@12@@Z
	??$range_begin@V?$basic_string@DU?$char_traits@D@std@@V?$allocator@D@2@@std@@@range_detail@boost@@YA?AV?$_String_iterator@V?$_String_val@U?$_Simple_types@D@std@@@std@@@std@@AEAV?$basic_string@DU?$char_traits@D@std@@V?$allocator@D@2@@3@@Z
	??$range_end@V?$basic_string@DU?$char_traits@D@std@@V?$allocator@D@2@@std@@@range_detail@boost@@YA?AV?$_String_iterator@V?$_String_val@U?$_Simple_types@D@std@@@std@@@std@@AEAV?$basic_string@DU?$char_traits@D@std@@V?$allocator@D@2@@3@@Z
	??$raw_ptr@PEAU?$copy_map_entry@U?$sequenced_index_node@U?$ordered_index_node@Unull_augment_policy@detail@multi_index@boost@@U?$index_node_base@U?$pair@$$CBV?$basic_string@DU?$char_traits@D@std@@V?$allocator@D@2@@std@@V?$basic_ptree@V?$basic_string@DU?$char_traits@D@std@@V?$allocator@D@2@@std@@V12@U?$less@V?$basic_string@DU?$char_traits@D@std@@V?$allocator@D@2@@std@@@2@@property_tree@boost@@@std@@V?$allocator@U?$pair@$$CBV?$basic_string@DU?$char_traits@D@std@@V?$allocator@D@2@@std@@V?$basic_ptree@V?$basic_string@DU?$char_traits@D@std@@V?$allocator@D@2@@std@@V12@U?$less@V?$basic_string@DU?$char_traits@D@std@@V?$allocator@D@2@@std@@@2@@property_tree@boost@@@std@@@2@@234@@detail@multi_index@boost@@@detail@multi_index@boost@@@detail@multi_index@boost@@@detail@multi_index@boost@@YAPEAU?$copy_map_entry@U?$sequenced_index_node@U?$ordered_index_node@Unull_augment_policy@detail@multi_index@boost@@U?$index_node_base@U?$pair@$$CBV?$basic_string@DU?$char_traits@D@std@@V?$allocator@D@2@@std@@V?$basic_ptree@V?$basic_string@DU?$char_traits@D@std@@V?$allocator@D@2@@std@@V12@U?$less@V?$basic_string@DU?$char_traits@D@std@@V?$allocator@D@2@@std@@@2@@property_tree@boost@@@std@@V?$allocator@U?$pair@$$CBV?$basic_string@DU?$char_traits@D@std@@V?$allocator@D@2@@std@@V?$basic_ptree@V?$basic_string@DU?$char_traits@D@std@@V?$allocator@D@2@@std@@V12@U?$less@V?$basic_string@DU?$char_traits@D@std@@V?$allocator@D@2@@std@@@2@@property_tree@boost@@@std@@@2@@234@@detail@multi_index@boost@@@detail@multi_index@boost@@@012@AEBQEAU3012@U?$bool_@$00@mpl@2@@Z
	??$raw_ptr@PEAU?$copy_map_entry@U?$sequenced_index_node@U?$ordered_index_node@Unull_augment_policy@detail@multi_index@boost@@U?$index_node_base@U?$pair@$$CBV?$basic_string@DU?$char_traits@D@std@@V?$allocator@D@2@@std@@V?$basic_ptree@V?$basic_string@DU?$char_traits@D@std@@V?$allocator@D@2@@std@@V12@U?$less@V?$basic_string@DU?$char_traits@D@std@@V?$allocator@D@2@@std@@@2@@property_tree@boost@@@std@@V?$allocator@U?$pair@$$CBV?$basic_string@DU?$char_traits@D@std@@V?$allocator@D@2@@std@@V?$basic_ptree@V?$basic_string@DU?$char_traits@D@std@@V?$allocator@D@2@@std@@V12@U?$less@V?$basic_string@DU?$char_traits@D@std@@V?$allocator@D@2@@std@@@2@@property_tree@boost@@@std@@@2@@234@@detail@multi_index@boost@@@detail@multi_index@boost@@@detail@multi_index@boost@@PEAU1234@@detail@multi_index@boost@@YAPEAU?$copy_map_entry@U?$sequenced_index_node@U?$ordered_index_node@Unull_augment_policy@detail@multi_index@boost@@U?$index_node_base@U?$pair@$$CBV?$basic_string@DU?$char_traits@D@std@@V?$allocator@D@2@@std@@V?$basic_ptree@V?$basic_string@DU?$char_traits@D@std@@V?$allocator@D@2@@std@@V12@U?$less@V?$basic_string@DU?$char_traits@D@std@@V?$allocator@D@2@@std@@@2@@property_tree@boost@@@std@@V?$allocator@U?$pair@$$CBV?$basic_string@DU?$char_traits@D@std@@V?$allocator@D@2@@std@@V?$basic_ptree@V?$basic_string@DU?$char_traits@D@std@@V?$allocator@D@2@@std@@V12@U?$less@V?$basic_string@DU?$char_traits@D@std@@V?$allocator@D@2@@std@@@2@@property_tree@boost@@@std@@@2@@234@@detail@multi_index@boost@@@detail@multi_index@boost@@@012@AEBQEAU3012@@Z
	??$raw_ptr@PEAU?$ordered_index_node_impl@Unull_augment_policy@detail@multi_index@boost@@V?$allocator@D@std@@@detail@multi_index@boost@@@detail@multi_index@boost@@YAPEAU?$ordered_index_node_impl@Unull_augment_policy@detail@multi_index@boost@@V?$allocator@D@std@@@012@AEBQEAU3012@U?$bool_@$00@mpl@2@@Z
	??$raw_ptr@PEAU?$ordered_index_node_impl@Unull_augment_policy@detail@multi_index@boost@@V?$allocator@D@std@@@detail@multi_index@boost@@PEAU1234@@detail@multi_index@boost@@YAPEAU?$ordered_index_node_impl@Unull_augment_policy@detail@multi_index@boost@@V?$allocator@D@std@@@012@AEBQEAU3012@@Z
	??$raw_ptr@PEAU?$sequenced_index_node@U?$ordered_index_node@Unull_augment_policy@detail@multi_index@boost@@U?$index_node_base@U?$pair@$$CBV?$basic_string@DU?$char_traits@D@std@@V?$allocator@D@2@@std@@V?$basic_ptree@V?$basic_string@DU?$char_traits@D@std@@V?$allocator@D@2@@std@@V12@U?$less@V?$basic_string@DU?$char_traits@D@std@@V?$allocator@D@2@@std@@@2@@property_tree@boost@@@std@@V?$allocator@U?$pair@$$CBV?$basic_string@DU?$char_traits@D@std@@V?$allocator@D@2@@std@@V?$basic_ptree@V?$basic_string@DU?$char_traits@D@std@@V?$allocator@D@2@@std@@V12@U?$less@V?$basic_string@DU?$char_traits@D@std@@V?$allocator@D@2@@std@@@2@@property_tree@boost@@@std@@@2@@234@@detail@multi_index@boost@@@detail@multi_index@boost@@@detail@multi_index@boost@@YAPEAU?$sequenced_index_node@U?$ordered_index_node@Unull_augment_policy@detail@multi_index@boost@@U?$index_node_base@U?$pair@$$CBV?$basic_string@DU?$char_traits@D@std@@V?$allocator@D@2@@std@@V?$basic_ptree@V?$basic_string@DU?$char_traits@D@std@@V?$allocator@D@2@@std@@V12@U?$less@V?$basic_string@DU?$char_traits@D@std@@V?$allocator@D@2@@std@@@2@@property_tree@boost@@@std@@V?$allocator@U?$pair@$$CBV?$basic_string@DU?$char_traits@D@std@@V?$allocator@D@2@@std@@V?$basic_ptree@V?$basic_string@DU?$char_traits@D@std@@V?$allocator@D@2@@std@@V12@U?$less@V?$basic_string@DU?$char_traits@D@std@@V?$allocator@D@2@@std@@@2@@property_tree@boost@@@std@@@2@@234@@detail@multi_index@boost@@@012@AEBQEAU3012@U?$bool_@$00@mpl@2@@Z
	??$raw_ptr@PEAU?$sequenced_index_node@U?$ordered_index_node@Unull_augment_policy@detail@multi_index@boost@@U?$index_node_base@U?$pair@$$CBV?$basic_string@DU?$char_traits@D@std@@V?$allocator@D@2@@std@@V?$basic_ptree@V?$basic_string@DU?$char_traits@D@std@@V?$allocator@D@2@@std@@V12@U?$less@V?$basic_string@DU?$char_traits@D@std@@V?$allocator@D@2@@std@@@2@@property_tree@boost@@@std@@V?$allocator@U?$pair@$$CBV?$basic_string@DU?$char_traits@D@std@@V?$allocator@D@2@@std@@V?$basic_ptree@V?$basic_string@DU?$char_traits@D@std@@V?$allocator@D@2@@std@@V12@U?$less@V?$basic_string@DU?$char_traits@D@std@@V?$allocator@D@2@@std@@@2@@property_tree@boost@@@std@@@2@@234@@detail@multi_index@boost@@@detail@multi_index@boost@@PEAU1234@@detail@multi_index@boost@@YAPEAU?$sequenced_index_node@U?$ordered_index_node@Unull_augment_policy@detail@multi_index@boost@@U?$index_node_base@U?$pair@$$CBV?$basic_string@DU?$char_traits@D@std@@V?$allocator@D@2@@std@@V?$basic_ptree@V?$basic_string@DU?$char_traits@D@std@@V?$allocator@D@2@@std@@V12@U?$less@V?$basic_string@DU?$char_traits@D@std@@V?$allocator@D@2@@std@@@2@@property_tree@boost@@@std@@V?$allocator@U?$pair@$$CBV?$basic_string@DU?$char_traits@D@std@@V?$allocator@D@2@@std@@V?$basic_ptree@V?$basic_string@DU?$char_traits@D@std@@V?$allocator@D@2@@std@@V12@U?$less@V?$basic_string@DU?$char_traits@D@std@@V?$allocator@D@2@@std@@@2@@property_tree@boost@@@std@@@2@@234@@detail@multi_index@boost@@@012@AEBQEAU3012@@Z
	??$raw_ptr@PEAU?$sequenced_index_node_impl@V?$allocator@D@std@@@detail@multi_index@boost@@@detail@multi_index@boost@@YAPEAU?$sequenced_index_node_impl@V?$allocator@D@std@@@012@AEBQEAU3012@U?$bool_@$00@mpl@2@@Z
	??$raw_ptr@PEAU?$sequenced_index_node_impl@V?$allocator@D@std@@@detail@multi_index@boost@@PEAU1234@@detail@multi_index@boost@@YAPEAU?$sequenced_index_node_impl@V?$allocator@D@std@@@012@AEBQEAU3012@@Z
	??$raw_ptr@PEBU?$copy_map_entry@U?$sequenced_index_node@U?$ordered_index_node@Unull_augment_policy@detail@multi_index@boost@@U?$index_node_base@U?$pair@$$CBV?$basic_string@DU?$char_traits@D@std@@V?$allocator@D@2@@std@@V?$basic_ptree@V?$basic_string@DU?$char_traits@D@std@@V?$allocator@D@2@@std@@V12@U?$less@V?$basic_string@DU?$char_traits@D@std@@V?$allocator@D@2@@std@@@2@@property_tree@boost@@@std@@V?$allocator@U?$pair@$$CBV?$basic_string@DU?$char_traits@D@std@@V?$allocator@D@2@@std@@V?$basic_ptree@V?$basic_string@DU?$char_traits@D@std@@V?$allocator@D@2@@std@@V12@U?$less@V?$basic_string@DU?$char_traits@D@std@@V?$allocator@D@2@@std@@@2@@property_tree@boost@@@std@@@2@@234@@detail@multi_index@boost@@@detail@multi_index@boost@@@detail@multi_index@boost@@PEAU1234@@detail@multi_index@boost@@YAPEBU?$copy_map_entry@U?$sequenced_index_node@U?$ordered_index_node@Unull_augment_policy@detail@multi_index@boost@@U?$index_node_base@U?$pair@$$CBV?$basic_string@DU?$char_traits@D@std@@V?$allocator@D@2@@std@@V?$basic_ptree@V?$basic_string@DU?$char_traits@D@std@@V?$allocator@D@2@@std@@V12@U?$less@V?$basic_string@DU?$char_traits@D@std@@V?$allocator@D@2@@std@@@2@@property_tree@boost@@@std@@V?$allocator@U?$pair@$$CBV?$basic_string@DU?$char_traits@D@std@@V?$allocator@D@2@@std@@V?$basic_ptree@V?$basic_string@DU?$char_traits@D@std@@V?$allocator@D@2@@std@@V12@U?$less@V?$basic_string@DU?$char_traits@D@std@@V?$allocator@D@2@@std@@@2@@property_tree@boost@@@std@@@2@@234@@detail@multi_index@boost@@@detail@multi_index@boost@@@012@AEBQEAU3012@@Z
	??$raw_ptr@PEBU?$copy_map_entry@U?$sequenced_index_node@U?$ordered_index_node@Unull_augment_policy@detail@multi_index@boost@@U?$index_node_base@U?$pair@$$CBV?$basic_string@DU?$char_traits@D@std@@V?$allocator@D@2@@std@@V?$basic_ptree@V?$basic_string@DU?$char_traits@D@std@@V?$allocator@D@2@@std@@V12@U?$less@V?$basic_string@DU?$char_traits@D@std@@V?$allocator@D@2@@std@@@2@@property_tree@boost@@@std@@V?$allocator@U?$pair@$$CBV?$basic_string@DU?$char_traits@D@std@@V?$allocator@D@2@@std@@V?$basic_ptree@V?$basic_string@DU?$char_traits@D@std@@V?$allocator@D@2@@std@@V12@U?$less@V?$basic_string@DU?$char_traits@D@std@@V?$allocator@D@2@@std@@@2@@property_tree@boost@@@std@@@2@@234@@detail@multi_index@boost@@@detail@multi_index@boost@@@detail@multi_index@boost@@PEAU1234@@detail@multi_index@boost@@YAPEBU?$copy_map_entry@U?$sequenced_index_node@U?$ordered_index_node@Unull_augment_policy@detail@multi_index@boost@@U?$index_node_base@U?$pair@$$CBV?$basic_string@DU?$char_traits@D@std@@V?$allocator@D@2@@std@@V?$basic_ptree@V?$basic_string@DU?$char_traits@D@std@@V?$allocator@D@2@@std@@V12@U?$less@V?$basic_string@DU?$char_traits@D@std@@V?$allocator@D@2@@std@@@2@@property_tree@boost@@@std@@V?$allocator@U?$pair@$$CBV?$basic_string@DU?$char_traits@D@std@@V?$allocator@D@2@@std@@V?$basic_ptree@V?$basic_string@DU?$char_traits@D@std@@V?$allocator@D@2@@std@@V12@U?$less@V?$basic_string@DU?$char_traits@D@std@@V?$allocator@D@2@@std@@@2@@property_tree@boost@@@std@@@2@@234@@detail@multi_index@boost@@@detail@multi_index@boost@@@012@AEBQEAU3012@U?$bool_@$0A@@mpl@2@@Z
	??$read_xml@V?$basic_ptree@V?$basic_string@DU?$char_traits@D@std@@V?$allocator@D@2@@std@@V12@U?$less@V?$basic_string@DU?$char_traits@D@std@@V?$allocator@D@2@@std@@@2@@property_tree@boost@@@xml_parser@property_tree@boost@@YAXAEBV?$basic_string@DU?$char_traits@D@std@@V?$allocator@D@2@@std@@AEAV?$basic_ptree@V?$basic_string@DU?$char_traits@D@std@@V?$allocator@D@2@@std@@V12@U?$less@V?$basic_string@DU?$char_traits@D@std@@V?$allocator@D@2@@std@@@2@@12@HAEBVlocale@4@@Z
	??$read_xml_internal@V?$basic_ptree@V?$basic_string@DU?$char_traits@D@std@@V?$allocator@D@2@@std@@V12@U?$less@V?$basic_string@DU?$char_traits@D@std@@V?$allocator@D@2@@std@@@2@@property_tree@boost@@@xml_parser@property_tree@boost@@YAXAEAV?$basic_istream@DU?$char_traits@D@std@@@std@@AEAV?$basic_ptree@V?$basic_string@DU?$char_traits@D@std@@V?$allocator@D@2@@std@@V12@U?$less@V?$basic_string@DU?$char_traits@D@std@@V?$allocator@D@2@@std@@@2@@12@HAEBV?$basic_string@DU?$char_traits@D@std@@V?$allocator@D@2@@4@@Z
	??$read_xml_node@V?$basic_ptree@V?$basic_string@DU?$char_traits@D@std@@V?$allocator@D@2@@std@@V12@U?$less@V?$basic_string@DU?$char_traits@D@std@@V?$allocator@D@2@@std@@@2@@property_tree@boost@@D@xml_parser@property_tree@boost@@YAXPEAV?$xml_node@D@rapidxml@detail@12@AEAV?$basic_ptree@V?$basic_string@DU?$char_traits@D@std@@V?$allocator@D@2@@std@@V12@U?$less@V?$basic_string@DU?$char_traits@D@std@@V?$allocator@D@2@@std@@@2@@12@H@Z
	??$replace@PEB_WX@?$basic_string@_WU?$char_traits@_W@std@@V?$allocator@_W@2@@std@@QEAAAEAV01@V?$_String_const_iterator@V?$_String_val@U?$_Simple_types@_W@std@@@std@@@1@0QEB_W1@Z
	??$rotate_left@PEAU?$ordered_index_node_impl@Unull_augment_policy@detail@multi_index@boost@@V?$allocator@D@std@@@detail@multi_index@boost@@@null_augment_policy@detail@multi_index@boost@@SAXPEAU?$ordered_index_node_impl@Unull_augment_policy@detail@multi_index@boost@@V?$allocator@D@std@@@123@0@Z
	??$rotate_right@PEAU?$ordered_index_node_impl@Unull_augment_policy@detail@multi_index@boost@@V?$allocator@D@std@@@detail@multi_index@boost@@@null_augment_policy@detail@multi_index@boost@@SAXPEAU?$ordered_index_node_impl@Unull_augment_policy@detail@multi_index@boost@@V?$allocator@D@std@@@123@0@Z
	??$seed@V?$generator_iterator@Vseed_rng@detail@uuids@boost@@@detail@uuids@boost@@@?$mersenne_twister_engine@I$0CA@$0CHA@$0BIN@$0BP@$0JJAILANP@$0L@$0PPPPPPPP@$06$0JNCMFGIA@$0P@$0OPMGAAAA@$0BC@$0GMAHIJGF@@random@boost@@QEAAXAEAV?$generator_iterator@Vseed_rng@detail@uuids@boost@@@detail@uuids@2@V3452@@Z
	??$seed@V?$mersenne_twister_engine@I$0CA@$0CHA@$0BIN@$0BP@$0JJAILANP@$0L@$0PPPPPPPP@$06$0JNCMFGIA@$0P@$0OPMGAAAA@$0BC@$0GMAHIJGF@@random@boost@@@detail@uuids@boost@@YAXAEAV?$mersenne_twister_engine@I$0CA@$0CHA@$0BIN@$0BP@$0JJAILANP@$0L@$0PPPPPPPP@$06$0JNCMFGIA@$0P@$0OPMGAAAA@$0BC@$0GMAHIJGF@@random@2@@Z
	??$set_info@U?$error_info_injector@Vptree_bad_path@property_tree@boost@@@exception_detail@boost@@@exception_detail@boost@@YAAEBU?$error_info_injector@Vptree_bad_path@property_tree@boost@@@01@AEBU201@AEBV?$error_info@Uthrow_file_@boost@@PEBD@1@@Z
	??$set_info@U?$error_info_injector@Vptree_bad_path@property_tree@boost@@@exception_detail@boost@@@exception_detail@boost@@YAAEBU?$error_info_injector@Vptree_bad_path@property_tree@boost@@@01@AEBU201@AEBV?$error_info@Uthrow_function_@boost@@PEBD@1@@Z
	??$set_info@U?$error_info_injector@Vptree_bad_path@property_tree@boost@@@exception_detail@boost@@@exception_detail@boost@@YAAEBU?$error_info_injector@Vptree_bad_path@property_tree@boost@@@01@AEBU201@AEBV?$error_info@Uthrow_line_@boost@@H@1@@Z
	??$set_info@U?$error_info_injector@Vruntime_error@std@@@exception_detail@boost@@@exception_detail@boost@@YAAEBU?$error_info_injector@Vruntime_error@std@@@01@AEBU201@AEBV?$error_info@Uthrow_file_@boost@@PEBD@1@@Z
	??$set_info@U?$error_info_injector@Vruntime_error@std@@@exception_detail@boost@@@exception_detail@boost@@YAAEBU?$error_info_injector@Vruntime_error@std@@@01@AEBU201@AEBV?$error_info@Uthrow_function_@boost@@PEBD@1@@Z
	??$set_info@U?$error_info_injector@Vruntime_error@std@@@exception_detail@boost@@@exception_detail@boost@@YAAEBU?$error_info_injector@Vruntime_error@std@@@01@AEBU201@AEBV?$error_info@Uthrow_line_@boost@@H@1@@Z
	??$set_info@U?$error_info_injector@Vxml_parser_error@xml_parser@property_tree@boost@@@exception_detail@boost@@@exception_detail@boost@@YAAEBU?$error_info_injector@Vxml_parser_error@xml_parser@property_tree@boost@@@01@AEBU201@AEBV?$error_info@Uthrow_file_@boost@@PEBD@1@@Z
	??$set_info@U?$error_info_injector@Vxml_parser_error@xml_parser@property_tree@boost@@@exception_detail@boost@@@exception_detail@boost@@YAAEBU?$error_info_injector@Vxml_parser_error@xml_parser@property_tree@boost@@@01@AEBU201@AEBV?$error_info@Uthrow_function_@boost@@PEBD@1@@Z
	??$set_info@U?$error_info_injector@Vxml_parser_error@xml_parser@property_tree@boost@@@exception_detail@boost@@@exception_detail@boost@@YAAEBU?$error_info_injector@Vxml_parser_error@xml_parser@property_tree@boost@@@01@AEBU201@AEBV?$error_info@Uthrow_line_@boost@@H@1@@Z
	??$skip@U?$attribute_value_pred@$0CC@@?$xml_document@D@rapidxml@detail@property_tree@boost@@$0A@@?$xml_document@D@rapidxml@detail@property_tree@boost@@CAXAEAPEAD@Z
	??$skip@U?$attribute_value_pred@$0CC@@?$xml_document@D@rapidxml@detail@property_tree@boost@@$0EA@@?$xml_document@D@rapidxml@detail@property_tree@boost@@CAXAEAPEAD@Z
	??$skip@U?$attribute_value_pred@$0CC@@?$xml_document@D@rapidxml@detail@property_tree@boost@@$0EAA@@?$xml_document@D@rapidxml@detail@property_tree@boost@@CAXAEAPEAD@Z
	??$skip@U?$attribute_value_pred@$0CC@@?$xml_document@D@rapidxml@detail@property_tree@boost@@$0EEA@@?$xml_document@D@rapidxml@detail@property_tree@boost@@CAXAEAPEAD@Z
	??$skip@U?$attribute_value_pred@$0CH@@?$xml_document@D@rapidxml@detail@property_tree@boost@@$0A@@?$xml_document@D@rapidxml@detail@property_tree@boost@@CAXAEAPEAD@Z
	??$skip@U?$attribute_value_pred@$0CH@@?$xml_document@D@rapidxml@detail@property_tree@boost@@$0EA@@?$xml_document@D@rapidxml@detail@property_tree@boost@@CAXAEAPEAD@Z
	??$skip@U?$attribute_value_pred@$0CH@@?$xml_document@D@rapidxml@detail@property_tree@boost@@$0EAA@@?$xml_document@D@rapidxml@detail@property_tree@boost@@CAXAEAPEAD@Z
	??$skip@U?$attribute_value_pred@$0CH@@?$xml_document@D@rapidxml@detail@property_tree@boost@@$0EEA@@?$xml_document@D@rapidxml@detail@property_tree@boost@@CAXAEAPEAD@Z
	??$skip@U?$attribute_value_pure_pred@$0CC@@?$xml_document@D@rapidxml@detail@property_tree@boost@@$0A@@?$xml_document@D@rapidxml@detail@property_tree@boost@@CAXAEAPEAD@Z
	??$skip@U?$attribute_value_pure_pred@$0CC@@?$xml_document@D@rapidxml@detail@property_tree@boost@@$0EA@@?$xml_document@D@rapidxml@detail@property_tree@boost@@CAXAEAPEAD@Z
	??$skip@U?$attribute_value_pure_pred@$0CC@@?$xml_document@D@rapidxml@detail@property_tree@boost@@$0EAA@@?$xml_document@D@rapidxml@detail@property_tree@boost@@CAXAEAPEAD@Z
	??$skip@U?$attribute_value_pure_pred@$0CC@@?$xml_document@D@rapidxml@detail@property_tree@boost@@$0EEA@@?$xml_document@D@rapidxml@detail@property_tree@boost@@CAXAEAPEAD@Z
	??$skip@U?$attribute_value_pure_pred@$0CH@@?$xml_document@D@rapidxml@detail@property_tree@boost@@$0A@@?$xml_document@D@rapidxml@detail@property_tree@boost@@CAXAEAPEAD@Z
	??$skip@U?$attribute_value_pure_pred@$0CH@@?$xml_document@D@rapidxml@detail@property_tree@boost@@$0EA@@?$xml_document@D@rapidxml@detail@property_tree@boost@@CAXAEAPEAD@Z
	??$skip@U?$attribute_value_pure_pred@$0CH@@?$xml_document@D@rapidxml@detail@property_tree@boost@@$0EAA@@?$xml_document@D@rapidxml@detail@property_tree@boost@@CAXAEAPEAD@Z
	??$skip@U?$attribute_value_pure_pred@$0CH@@?$xml_document@D@rapidxml@detail@property_tree@boost@@$0EEA@@?$xml_document@D@rapidxml@detail@property_tree@boost@@CAXAEAPEAD@Z
	??$skip@Uattribute_name_pred@?$xml_document@D@rapidxml@detail@property_tree@boost@@$0A@@?$xml_document@D@rapidxml@detail@property_tree@boost@@CAXAEAPEAD@Z
	??$skip@Uattribute_name_pred@?$xml_document@D@rapidxml@detail@property_tree@boost@@$0EA@@?$xml_document@D@rapidxml@detail@property_tree@boost@@CAXAEAPEAD@Z
	??$skip@Uattribute_name_pred@?$xml_document@D@rapidxml@detail@property_tree@boost@@$0MAA@@?$xml_document@D@rapidxml@detail@property_tree@boost@@CAXAEAPEAD@Z
	??$skip@Uattribute_name_pred@?$xml_document@D@rapidxml@detail@property_tree@boost@@$0MEA@@?$xml_document@D@rapidxml@detail@property_tree@boost@@CAXAEAPEAD@Z
	??$skip@Unode_name_pred@?$xml_document@D@rapidxml@detail@property_tree@boost@@$0A@@?$xml_document@D@rapidxml@detail@property_tree@boost@@CAXAEAPEAD@Z
	??$skip@Unode_name_pred@?$xml_document@D@rapidxml@detail@property_tree@boost@@$0EA@@?$xml_document@D@rapidxml@detail@property_tree@boost@@CAXAEAPEAD@Z
	??$skip@Unode_name_pred@?$xml_document@D@rapidxml@detail@property_tree@boost@@$0MAA@@?$xml_document@D@rapidxml@detail@property_tree@boost@@CAXAEAPEAD@Z
	??$skip@Unode_name_pred@?$xml_document@D@rapidxml@detail@property_tree@boost@@$0MEA@@?$xml_document@D@rapidxml@detail@property_tree@boost@@CAXAEAPEAD@Z
	??$skip@Utext_pred@?$xml_document@D@rapidxml@detail@property_tree@boost@@$0A@@?$xml_document@D@rapidxml@detail@property_tree@boost@@CAXAEAPEAD@Z
	??$skip@Utext_pred@?$xml_document@D@rapidxml@detail@property_tree@boost@@$0EA@@?$xml_document@D@rapidxml@detail@property_tree@boost@@CAXAEAPEAD@Z
	??$skip@Utext_pred@?$xml_document@D@rapidxml@detail@property_tree@boost@@$0MAA@@?$xml_document@D@rapidxml@detail@property_tree@boost@@CAXAEAPEAD@Z
	??$skip@Utext_pred@?$xml_document@D@rapidxml@detail@property_tree@boost@@$0MEA@@?$xml_document@D@rapidxml@detail@property_tree@boost@@CAXAEAPEAD@Z
	??$skip@Utext_pure_no_ws_pred@?$xml_document@D@rapidxml@detail@property_tree@boost@@$0A@@?$xml_document@D@rapidxml@detail@property_tree@boost@@CAXAEAPEAD@Z
	??$skip@Utext_pure_no_ws_pred@?$xml_document@D@rapidxml@detail@property_tree@boost@@$0EA@@?$xml_document@D@rapidxml@detail@property_tree@boost@@CAXAEAPEAD@Z
	??$skip@Utext_pure_no_ws_pred@?$xml_document@D@rapidxml@detail@property_tree@boost@@$0MAA@@?$xml_document@D@rapidxml@detail@property_tree@boost@@CAXAEAPEAD@Z
	??$skip@Utext_pure_no_ws_pred@?$xml_document@D@rapidxml@detail@property_tree@boost@@$0MEA@@?$xml_document@D@rapidxml@detail@property_tree@boost@@CAXAEAPEAD@Z
	??$skip@Utext_pure_with_ws_pred@?$xml_document@D@rapidxml@detail@property_tree@boost@@$0A@@?$xml_document@D@rapidxml@detail@property_tree@boost@@CAXAEAPEAD@Z
	??$skip@Utext_pure_with_ws_pred@?$xml_document@D@rapidxml@detail@property_tree@boost@@$0EA@@?$xml_document@D@rapidxml@detail@property_tree@boost@@CAXAEAPEAD@Z
	??$skip@Utext_pure_with_ws_pred@?$xml_document@D@rapidxml@detail@property_tree@boost@@$0MAA@@?$xml_document@D@rapidxml@detail@property_tree@boost@@CAXAEAPEAD@Z
	??$skip@Utext_pure_with_ws_pred@?$xml_document@D@rapidxml@detail@property_tree@boost@@$0MEA@@?$xml_document@D@rapidxml@detail@property_tree@boost@@CAXAEAPEAD@Z
	??$skip@Uwhitespace_pred@?$xml_document@D@rapidxml@detail@property_tree@boost@@$0A@@?$xml_document@D@rapidxml@detail@property_tree@boost@@CAXAEAPEAD@Z
	??$skip@Uwhitespace_pred@?$xml_document@D@rapidxml@detail@property_tree@boost@@$0EA@@?$xml_document@D@rapidxml@detail@property_tree@boost@@CAXAEAPEAD@Z
	??$skip@Uwhitespace_pred@?$xml_document@D@rapidxml@detail@property_tree@boost@@$0MAA@@?$xml_document@D@rapidxml@detail@property_tree@boost@@CAXAEAPEAD@Z
	??$skip@Uwhitespace_pred@?$xml_document@D@rapidxml@detail@property_tree@boost@@$0MEA@@?$xml_document@D@rapidxml@detail@property_tree@boost@@CAXAEAPEAD@Z
	??$skip_and_expand_character_refs@U?$attribute_value_pred@$0CC@@?$xml_document@D@rapidxml@detail@property_tree@boost@@U?$attribute_value_pure_pred@$0CC@@23456@$0A@@?$xml_document@D@rapidxml@detail@property_tree@boost@@CAPEADAEAPEAD@Z
	??$skip_and_expand_character_refs@U?$attribute_value_pred@$0CC@@?$xml_document@D@rapidxml@detail@property_tree@boost@@U?$attribute_value_pure_pred@$0CC@@23456@$0EA@@?$xml_document@D@rapidxml@detail@property_tree@boost@@CAPEADAEAPEAD@Z
	??$skip_and_expand_character_refs@U?$attribute_value_pred@$0CC@@?$xml_document@D@rapidxml@detail@property_tree@boost@@U?$attribute_value_pure_pred@$0CC@@23456@$0EAA@@?$xml_document@D@rapidxml@detail@property_tree@boost@@CAPEADAEAPEAD@Z
	??$skip_and_expand_character_refs@U?$attribute_value_pred@$0CC@@?$xml_document@D@rapidxml@detail@property_tree@boost@@U?$attribute_value_pure_pred@$0CC@@23456@$0EEA@@?$xml_document@D@rapidxml@detail@property_tree@boost@@CAPEADAEAPEAD@Z
	??$skip_and_expand_character_refs@U?$attribute_value_pred@$0CH@@?$xml_document@D@rapidxml@detail@property_tree@boost@@U?$attribute_value_pure_pred@$0CH@@23456@$0A@@?$xml_document@D@rapidxml@detail@property_tree@boost@@CAPEADAEAPEAD@Z
	??$skip_and_expand_character_refs@U?$attribute_value_pred@$0CH@@?$xml_document@D@rapidxml@detail@property_tree@boost@@U?$attribute_value_pure_pred@$0CH@@23456@$0EA@@?$xml_document@D@rapidxml@detail@property_tree@boost@@CAPEADAEAPEAD@Z
	??$skip_and_expand_character_refs@U?$attribute_value_pred@$0CH@@?$xml_document@D@rapidxml@detail@property_tree@boost@@U?$attribute_value_pure_pred@$0CH@@23456@$0EAA@@?$xml_document@D@rapidxml@detail@property_tree@boost@@CAPEADAEAPEAD@Z
	??$skip_and_expand_character_refs@U?$attribute_value_pred@$0CH@@?$xml_document@D@rapidxml@detail@property_tree@boost@@U?$attribute_value_pure_pred@$0CH@@23456@$0EEA@@?$xml_document@D@rapidxml@detail@property_tree@boost@@CAPEADAEAPEAD@Z
	??$skip_and_expand_character_refs@Utext_pred@?$xml_document@D@rapidxml@detail@property_tree@boost@@Utext_pure_no_ws_pred@23456@$0A@@?$xml_document@D@rapidxml@detail@property_tree@boost@@CAPEADAEAPEAD@Z
	??$skip_and_expand_character_refs@Utext_pred@?$xml_document@D@rapidxml@detail@property_tree@boost@@Utext_pure_no_ws_pred@23456@$0EA@@?$xml_document@D@rapidxml@detail@property_tree@boost@@CAPEADAEAPEAD@Z
	??$skip_and_expand_character_refs@Utext_pred@?$xml_document@D@rapidxml@detail@property_tree@boost@@Utext_pure_no_ws_pred@23456@$0MAA@@?$xml_document@D@rapidxml@detail@property_tree@boost@@CAPEADAEAPEAD@Z
	??$skip_and_expand_character_refs@Utext_pred@?$xml_document@D@rapidxml@detail@property_tree@boost@@Utext_pure_no_ws_pred@23456@$0MEA@@?$xml_document@D@rapidxml@detail@property_tree@boost@@CAPEADAEAPEAD@Z
	??$skip_and_expand_character_refs@Utext_pred@?$xml_document@D@rapidxml@detail@property_tree@boost@@Utext_pure_with_ws_pred@23456@$0A@@?$xml_document@D@rapidxml@detail@property_tree@boost@@CAPEADAEAPEAD@Z
	??$skip_and_expand_character_refs@Utext_pred@?$xml_document@D@rapidxml@detail@property_tree@boost@@Utext_pure_with_ws_pred@23456@$0EA@@?$xml_document@D@rapidxml@detail@property_tree@boost@@CAPEADAEAPEAD@Z
	??$skip_and_expand_character_refs@Utext_pred@?$xml_document@D@rapidxml@detail@property_tree@boost@@Utext_pure_with_ws_pred@23456@$0MAA@@?$xml_document@D@rapidxml@detail@property_tree@boost@@CAPEADAEAPEAD@Z
	??$skip_and_expand_character_refs@Utext_pred@?$xml_document@D@rapidxml@detail@property_tree@boost@@Utext_pure_with_ws_pred@23456@$0MEA@@?$xml_document@D@rapidxml@detail@property_tree@boost@@CAPEADAEAPEAD@Z
	??$sort@PEAU?$copy_map_entry@U?$sequenced_index_node@U?$ordered_index_node@Unull_augment_policy@detail@multi_index@boost@@U?$index_node_base@U?$pair@$$CBV?$basic_string@DU?$char_traits@D@std@@V?$allocator@D@2@@std@@V?$basic_ptree@V?$basic_string@DU?$char_traits@D@std@@V?$allocator@D@2@@std@@V12@U?$less@V?$basic_string@DU?$char_traits@D@std@@V?$allocator@D@2@@std@@@2@@property_tree@boost@@@std@@V?$allocator@U?$pair@$$CBV?$basic_string@DU?$char_traits@D@std@@V?$allocator@D@2@@std@@V?$basic_ptree@V?$basic_string@DU?$char_traits@D@std@@V?$allocator@D@2@@std@@V12@U?$less@V?$basic_string@DU?$char_traits@D@std@@V?$allocator@D@2@@std@@@2@@property_tree@boost@@@std@@@2@@234@@detail@multi_index@boost@@@detail@multi_index@boost@@@detail@multi_index@boost@@@std@@YAXQEAU?$copy_map_entry@U?$sequenced_index_node@U?$ordered_index_node@Unull_augment_policy@detail@multi_index@boost@@U?$index_node_base@U?$pair@$$CBV?$basic_string@DU?$char_traits@D@std@@V?$allocator@D@2@@std@@V?$basic_ptree@V?$basic_string@DU?$char_traits@D@std@@V?$allocator@D@2@@std@@V12@U?$less@V?$basic_string@DU?$char_traits@D@std@@V?$allocator@D@2@@std@@@2@@property_tree@boost@@@std@@V?$allocator@U?$pair@$$CBV?$basic_string@DU?$char_traits@D@std@@V?$allocator@D@2@@std@@V?$basic_ptree@V?$basic_string@DU?$char_traits@D@std@@V?$allocator@D@2@@std@@V12@U?$less@V?$basic_string@DU?$char_traits@D@std@@V?$allocator@D@2@@std@@@2@@property_tree@boost@@@std@@@2@@234@@detail@multi_index@boost@@@detail@multi_index@boost@@@detail@multi_index@boost@@0@Z
	??$sort@PEAU?$copy_map_entry@U?$sequenced_index_node@U?$ordered_index_node@Unull_augment_policy@detail@multi_index@boost@@U?$index_node_base@U?$pair@$$CBV?$basic_string@DU?$char_traits@D@std@@V?$allocator@D@2@@std@@V?$basic_ptree@V?$basic_string@DU?$char_traits@D@std@@V?$allocator@D@2@@std@@V12@U?$less@V?$basic_string@DU?$char_traits@D@std@@V?$allocator@D@2@@std@@@2@@property_tree@boost@@@std@@V?$allocator@U?$pair@$$CBV?$basic_string@DU?$char_traits@D@std@@V?$allocator@D@2@@std@@V?$basic_ptree@V?$basic_string@DU?$char_traits@D@std@@V?$allocator@D@2@@std@@V12@U?$less@V?$basic_string@DU?$char_traits@D@std@@V?$allocator@D@2@@std@@@2@@property_tree@boost@@@std@@@2@@234@@detail@multi_index@boost@@@detail@multi_index@boost@@@detail@multi_index@boost@@U?$less@X@std@@@std@@YAXQEAU?$copy_map_entry@U?$sequenced_index_node@U?$ordered_index_node@Unull_augment_policy@detail@multi_index@boost@@U?$index_node_base@U?$pair@$$CBV?$basic_string@DU?$char_traits@D@std@@V?$allocator@D@2@@std@@V?$basic_ptree@V?$basic_string@DU?$char_traits@D@std@@V?$allocator@D@2@@std@@V12@U?$less@V?$basic_string@DU?$char_traits@D@std@@V?$allocator@D@2@@std@@@2@@property_tree@boost@@@std@@V?$allocator@U?$pair@$$CBV?$basic_string@DU?$char_traits@D@std@@V?$allocator@D@2@@std@@V?$basic_ptree@V?$basic_string@DU?$char_traits@D@std@@V?$allocator@D@2@@std@@V12@U?$less@V?$basic_string@DU?$char_traits@D@std@@V?$allocator@D@2@@std@@@2@@property_tree@boost@@@std@@@2@@234@@detail@multi_index@boost@@@detail@multi_index@boost@@@detail@multi_index@boost@@0U?$less@X@0@@Z
	??$sp_assert_convertible@U?$logger_holder@V?$severity_logger_mt@W4level@log@cse@@@sources@v2s_mt_nt6@log@boost@@@aux@sources@v2s_mt_nt6@log@boost@@Ulogger_holder_base@23456@@detail@boost@@YAXXZ
	??$sp_deleter_construct@U?$logger_holder@V?$severity_logger_mt@W4level@log@cse@@@sources@v2s_mt_nt6@log@boost@@@aux@sources@v2s_mt_nt6@log@boost@@U123456@@detail@boost@@YAXPEAV?$shared_ptr@U?$logger_holder@V?$severity_logger_mt@W4level@log@cse@@@sources@v2s_mt_nt6@log@boost@@@aux@sources@v2s_mt_nt6@log@boost@@@1@PEAU?$logger_holder@V?$severity_logger_mt@W4level@log@cse@@@sources@v2s_mt_nt6@log@boost@@@aux@sources@v2s_mt_nt6@log@1@@Z
	??$sp_forward@I@detail@boost@@YA$$QEAIAEAI@Z
	??$sp_forward@PEBD@detail@boost@@YA$$QEAPEBDAEAPEBD@Z
	??$sp_forward@V?$severity_logger_mt@W4level@log@cse@@@sources@v2s_mt_nt6@log@boost@@@detail@boost@@YA$$QEAV?$severity_logger_mt@W4level@log@cse@@@sources@v2s_mt_nt6@log@1@AEAV23451@@Z
	??$sp_pointer_construct@V?$mersenne_twister_engine@I$0CA@$0CHA@$0BIN@$0BP@$0JJAILANP@$0L@$0PPPPPPPP@$06$0JNCMFGIA@$0P@$0OPMGAAAA@$0BC@$0GMAHIJGF@@random@boost@@V123@@detail@boost@@YAXPEAV?$shared_ptr@V?$mersenne_twister_engine@I$0CA@$0CHA@$0BIN@$0BP@$0JJAILANP@$0L@$0PPPPPPPP@$06$0JNCMFGIA@$0P@$0OPMGAAAA@$0BC@$0GMAHIJGF@@random@boost@@@1@PEAV?$mersenne_twister_engine@I$0CA@$0CHA@$0BIN@$0BP@$0JJAILANP@$0L@$0PPPPPPPP@$06$0JNCMFGIA@$0P@$0OPMGAAAA@$0BC@$0GMAHIJGF@@random@1@AEAVshared_count@01@@Z
	??$static_pointer_cast@U?$logger_holder@V?$severity_logger_mt@W4level@log@cse@@@sources@v2s_mt_nt6@log@boost@@@aux@sources@v2s_mt_nt6@log@boost@@Ulogger_holder_base@23456@@boost@@YA?AV?$shared_ptr@U?$logger_holder@V?$severity_logger_mt@W4level@log@cse@@@sources@v2s_mt_nt6@log@boost@@@aux@sources@v2s_mt_nt6@log@boost@@@0@AEBV?$shared_ptr@Ulogger_holder_base@aux@sources@v2s_mt_nt6@log@boost@@@0@@Z
	??$static_pointer_cast@Vfmu@fmi@cse@@V1v1@23@@std@@YA?AV?$shared_ptr@Vfmu@fmi@cse@@@0@AEBV?$shared_ptr@Vfmu@v1@fmi@cse@@@0@@Z
	??$static_pointer_cast@Vfmu@fmi@cse@@V1v2@23@@std@@YA?AV?$shared_ptr@Vfmu@fmi@cse@@@0@AEBV?$shared_ptr@Vfmu@v2@fmi@cse@@@0@@Z
	??$static_pointer_cast@Vslave_instance@fmi@cse@@V1v1@23@@std@@YA?AV?$shared_ptr@Vslave_instance@fmi@cse@@@0@AEBV?$shared_ptr@Vslave_instance@v1@fmi@cse@@@0@@Z
	??$static_pointer_cast@Vslave_instance@fmi@cse@@V1v2@23@@std@@YA?AV?$shared_ptr@Vslave_instance@fmi@cse@@@0@AEBV?$shared_ptr@Vslave_instance@v2@fmi@cse@@@0@@Z
	??$string@DU?$char_traits@D@std@@V?$allocator@D@2@$0A@@path@filesystem@std@@QEBA?AV?$basic_string@DU?$char_traits@D@std@@V?$allocator@D@2@@2@AEBV?$allocator@D@2@@Z
	??$swap@DU?$char_traits@D@std@@V?$allocator@D@2@@std@@YAXAEAV?$basic_string@DU?$char_traits@D@std@@V?$allocator@D@2@@0@0@Z
	??$swap@DX@std@@YAXAEAD0@Z
	??$swap@PEAU?$logger_holder@V?$severity_logger_mt@W4level@log@cse@@@sources@v2s_mt_nt6@log@boost@@@aux@sources@v2s_mt_nt6@log@boost@@X@std@@YAXAEAPEAU?$logger_holder@V?$severity_logger_mt@W4level@log@cse@@@sources@v2s_mt_nt6@log@boost@@@aux@sources@v2s_mt_nt6@log@boost@@0@Z
	??$swap@PEAU_Dir_enum_impl@filesystem@std@@X@std@@YAXAEAPEAU_Dir_enum_impl@filesystem@0@0@Z
	??$swap@PEAV_Ref_count_base@std@@X@std@@YAXAEAPEAV_Ref_count_base@0@0@Z
	??$swap@PEAVcore@v2s_mt_nt6@log@boost@@X@std@@YAXAEAPEAVcore@v2s_mt_nt6@log@boost@@0@Z
	??$swap@PEAVfmu@fmi@cse@@X@std@@YAXAEAPEAVfmu@fmi@cse@@0@Z
	??$swap@PEAVfmu@v1@fmi@cse@@X@std@@YAXAEAPEAVfmu@v1@fmi@cse@@0@Z
	??$swap@PEAVfmu@v2@fmi@cse@@X@std@@YAXAEAPEAVfmu@v2@fmi@cse@@0@Z
	??$swap@PEAVimporter@fmi@cse@@X@std@@YAXAEAPEAVimporter@fmi@cse@@0@Z
	??$swap@PEAVslave_instance@v1@fmi@cse@@X@std@@YAXAEAPEAVslave_instance@v1@fmi@cse@@0@Z
	??$swap@PEAVslave_instance@v2@fmi@cse@@X@std@@YAXAEAPEAVslave_instance@v2@fmi@cse@@0@Z
	??$swap@PEAXX@std@@YAXAEAPEAX0@Z
	??$swap@U?$copy_map_entry@U?$sequenced_index_node@U?$ordered_index_node@Unull_augment_policy@detail@multi_index@boost@@U?$index_node_base@U?$pair@$$CBV?$basic_string@DU?$char_traits@D@std@@V?$allocator@D@2@@std@@V?$basic_ptree@V?$basic_string@DU?$char_traits@D@std@@V?$allocator@D@2@@std@@V12@U?$less@V?$basic_string@DU?$char_traits@D@std@@V?$allocator@D@2@@std@@@2@@property_tree@boost@@@std@@V?$allocator@U?$pair@$$CBV?$basic_string@DU?$char_traits@D@std@@V?$allocator@D@2@@std@@V?$basic_ptree@V?$basic_string@DU?$char_traits@D@std@@V?$allocator@D@2@@std@@V12@U?$less@V?$basic_string@DU?$char_traits@D@std@@V?$allocator@D@2@@std@@@2@@property_tree@boost@@@std@@@2@@234@@detail@multi_index@boost@@@detail@multi_index@boost@@@detail@multi_index@boost@@X@std@@YAXAEAU?$copy_map_entry@U?$sequenced_index_node@U?$ordered_index_node@Unull_augment_policy@detail@multi_index@boost@@U?$index_node_base@U?$pair@$$CBV?$basic_string@DU?$char_traits@D@std@@V?$allocator@D@2@@std@@V?$basic_ptree@V?$basic_string@DU?$char_traits@D@std@@V?$allocator@D@2@@std@@V12@U?$less@V?$basic_string@DU?$char_traits@D@std@@V?$allocator@D@2@@std@@@2@@property_tree@boost@@@std@@V?$allocator@U?$pair@$$CBV?$basic_string@DU?$char_traits@D@std@@V?$allocator@D@2@@std@@V?$basic_ptree@V?$basic_string@DU?$char_traits@D@std@@V?$allocator@D@2@@std@@V12@U?$less@V?$basic_string@DU?$char_traits@D@std@@V?$allocator@D@2@@std@@@2@@property_tree@boost@@@std@@@2@@234@@detail@multi_index@boost@@@detail@multi_index@boost@@@detail@multi_index@boost@@0@Z
	??$swap@V?$basic_string@DU?$char_traits@D@std@@V?$allocator@D@2@@std@@V12@@boost@@YAXAEAV?$basic_string@DU?$char_traits@D@std@@V?$allocator@D@2@@std@@0@Z
	??$swap_impl@V?$basic_string@DU?$char_traits@D@std@@V?$allocator@D@2@@std@@@boost_swap_impl@@YAXAEAV?$basic_string@DU?$char_traits@D@std@@V?$allocator@D@2@@std@@0@Z
	??$throw_exception@U?$error_info_injector@Vptree_bad_path@property_tree@boost@@@exception_detail@boost@@@boost@@YAXAEBU?$error_info_injector@Vptree_bad_path@property_tree@boost@@@exception_detail@0@@Z
	??$throw_exception@U?$error_info_injector@Vruntime_error@std@@@exception_detail@boost@@@boost@@YAXAEBU?$error_info_injector@Vruntime_error@std@@@exception_detail@0@@Z
	??$throw_exception@U?$error_info_injector@Vxml_parser_error@xml_parser@property_tree@boost@@@exception_detail@boost@@@boost@@YAXAEBU?$error_info_injector@Vxml_parser_error@xml_parser@property_tree@boost@@@exception_detail@0@@Z
	??$throw_exception@Vinvalid_argument@std@@@boost@@YAXAEBVinvalid_argument@std@@@Z
	??$throw_exception_@Vptree_bad_path@property_tree@boost@@@exception_detail@boost@@YAXAEBVptree_bad_path@property_tree@1@PEBD1H@Z
	??$throw_exception_@Vruntime_error@std@@@exception_detail@boost@@YAXAEBVruntime_error@std@@PEBD1H@Z
	??$throw_exception_@Vxml_parser_error@xml_parser@property_tree@boost@@@exception_detail@boost@@YAXAEBVxml_parser_error@xml_parser@property_tree@1@PEBD1H@Z
	??$trim@V?$basic_string@DU?$char_traits@D@std@@V?$allocator@D@2@@std@@@algorithm@boost@@YAXAEAV?$basic_string@DU?$char_traits@D@std@@V?$allocator@D@2@@std@@AEBVlocale@3@@Z
	??$trim_begin@V?$_String_iterator@V?$_String_val@U?$_Simple_types@D@std@@@std@@@std@@Uis_classifiedF@detail@algorithm@boost@@@detail@algorithm@boost@@YA?AV?$_String_iterator@V?$_String_val@U?$_Simple_types@D@std@@@std@@@std@@V34@0Uis_classifiedF@012@@Z
	??$trim_end@V?$_String_iterator@V?$_String_val@U?$_Simple_types@D@std@@@std@@@std@@Uis_classifiedF@detail@algorithm@boost@@@detail@algorithm@boost@@YA?AV?$_String_iterator@V?$_String_val@U?$_Simple_types@D@std@@@std@@@std@@V34@0Uis_classifiedF@012@@Z
	??$trim_end_iter_select@V?$_String_iterator@V?$_String_val@U?$_Simple_types@D@std@@@std@@@std@@Uis_classifiedF@detail@algorithm@boost@@@detail@algorithm@boost@@YA?AV?$_String_iterator@V?$_String_val@U?$_Simple_types@D@std@@@std@@@std@@V34@0Uis_classifiedF@012@Ubidirectional_iterator_tag@4@@Z
	??$trim_if@V?$basic_string@DU?$char_traits@D@std@@V?$allocator@D@2@@std@@Uis_classifiedF@detail@algorithm@boost@@@algorithm@boost@@YAXAEAV?$basic_string@DU?$char_traits@D@std@@V?$allocator@D@2@@std@@Uis_classifiedF@detail@01@@Z
	??$trim_left_if@V?$basic_string@DU?$char_traits@D@std@@V?$allocator@D@2@@std@@Uis_classifiedF@detail@algorithm@boost@@@algorithm@boost@@YAXAEAV?$basic_string@DU?$char_traits@D@std@@V?$allocator@D@2@@std@@Uis_classifiedF@detail@01@@Z
	??$trim_right_if@V?$basic_string@DU?$char_traits@D@std@@V?$allocator@D@2@@std@@Uis_classifiedF@detail@algorithm@boost@@@algorithm@boost@@YAXAEAV?$basic_string@DU?$char_traits@D@std@@V?$allocator@D@2@@std@@Uis_classifiedF@detail@01@@Z
	??$try_emplace@$$V@?$map@V?$basic_string@DU?$char_traits@D@std@@V?$allocator@D@2@@std@@V?$weak_ptr@Vfmu@fmi@cse@@@2@U?$less@V?$basic_string@DU?$char_traits@D@std@@V?$allocator@D@2@@std@@@2@V?$allocator@U?$pair@$$CBV?$basic_string@DU?$char_traits@D@std@@V?$allocator@D@2@@std@@V?$weak_ptr@Vfmu@fmi@cse@@@2@@std@@@2@@std@@QEAA?AU?$pair@V?$_Tree_iterator@V?$_Tree_val@U?$_Tree_simple_types@U?$pair@$$CBV?$basic_string@DU?$char_traits@D@std@@V?$allocator@D@2@@std@@V?$weak_ptr@Vfmu@fmi@cse@@@2@@std@@@std@@@std@@@std@@_N@1@AEBV?$basic_string@DU?$char_traits@D@std@@V?$allocator@D@2@@1@@Z
	??$try_emplace@$$V@?$map@Vpath@filesystem@std@@V?$weak_ptr@Vfmu@fmi@cse@@@3@U?$less@Vpath@filesystem@std@@@3@V?$allocator@U?$pair@$$CBVpath@filesystem@std@@V?$weak_ptr@Vfmu@fmi@cse@@@3@@std@@@3@@std@@QEAA?AU?$pair@V?$_Tree_iterator@V?$_Tree_val@U?$_Tree_simple_types@U?$pair@$$CBVpath@filesystem@std@@V?$weak_ptr@Vfmu@fmi@cse@@@3@@std@@@std@@@std@@@std@@_N@1@AEBVpath@filesystem@1@@Z
	??$type_id@Ulogger@log@cse@@@stl_type_index@typeindex@boost@@SA?AV012@XZ
	??$type_id@Ulogger@log@cse@@@typeindex@boost@@YA?AVstl_type_index@01@XZ
	??$type_id@V?$severity_logger_mt@W4level@log@cse@@@sources@v2s_mt_nt6@log@boost@@@stl_type_index@typeindex@boost@@SA?AV012@XZ
	??$type_id@V?$severity_logger_mt@W4level@log@cse@@@sources@v2s_mt_nt6@log@boost@@@typeindex@boost@@YA?AVstl_type_index@01@XZ
	??$type_id@V?$string_path@V?$basic_string@DU?$char_traits@D@std@@V?$allocator@D@2@@std@@U?$id_translator@V?$basic_string@DU?$char_traits@D@std@@V?$allocator@D@2@@std@@@property_tree@boost@@@property_tree@boost@@@stl_type_index@typeindex@boost@@SA?AV012@XZ
	??$type_id@V?$string_path@V?$basic_string@DU?$char_traits@D@std@@V?$allocator@D@2@@std@@U?$id_translator@V?$basic_string@DU?$char_traits@D@std@@V?$allocator@D@2@@std@@@property_tree@boost@@@property_tree@boost@@@typeindex@boost@@YA?AVstl_type_index@01@XZ
	??$type_id@W4level@log@cse@@@stl_type_index@typeindex@boost@@SA?AV012@XZ
	??$type_id@W4level@log@cse@@@typeindex@boost@@YA?AVstl_type_index@01@XZ
	??$use_facet@V?$codecvt@DDU_Mbstatet@@@std@@@std@@YAAEBV?$codecvt@DDU_Mbstatet@@@0@AEBVlocale@0@@Z
	??$use_facet@V?$codecvt@_WDU_Mbstatet@@@std@@@std@@YAAEBV?$codecvt@_WDU_Mbstatet@@@0@AEBVlocale@0@@Z
	??$use_facet@V?$ctype@D@std@@@std@@YAAEBV?$ctype@D@0@AEBVlocale@0@@Z
	??$where@D@parse_error@rapidxml@detail@property_tree@boost@@QEBAPEADXZ
	??$widen@V?$basic_string@DU?$char_traits@D@std@@V?$allocator@D@2@@std@@@detail@property_tree@boost@@YA?AV?$basic_string@DU?$char_traits@D@std@@V?$allocator@D@2@@std@@PEBD@Z
	??$xmlattr@V?$basic_string@DU?$char_traits@D@std@@V?$allocator@D@2@@std@@@xml_parser@property_tree@boost@@YAAEBV?$basic_string@DU?$char_traits@D@std@@V?$allocator@D@2@@std@@XZ
	??$xmlcomment@V?$basic_string@DU?$char_traits@D@std@@V?$allocator@D@2@@std@@@xml_parser@property_tree@boost@@YAAEBV?$basic_string@DU?$char_traits@D@std@@V?$allocator@D@2@@std@@XZ
	??$xmltext@V?$basic_string@DU?$char_traits@D@std@@V?$allocator@D@2@@std@@@xml_parser@property_tree@boost@@YAAEBV?$basic_string@DU?$char_traits@D@std@@V?$allocator@D@2@@std@@XZ
	??0?$_Ptr_base@$$CBUmodel_description@cse@@@std@@IEAA@XZ
	??0?$_Ptr_base@$$CBVfmu@v1@fmi@cse@@@std@@IEAA@XZ
	??0?$_Ptr_base@$$CBVfmu@v2@fmi@cse@@@std@@IEAA@XZ
	??0?$_Ptr_base@U_Dir_enum_impl@filesystem@std@@@std@@IEAA@XZ
	??0?$_Ptr_base@Vfmu@fmi@cse@@@std@@IEAA@XZ
	??0?$_Ptr_base@Vfmu@v1@fmi@cse@@@std@@IEAA@XZ
	??0?$_Ptr_base@Vfmu@v2@fmi@cse@@@std@@IEAA@XZ
	??0?$_Ptr_base@Vimporter@fmi@cse@@@std@@IEAA@XZ
	??0?$_Ptr_base@Vslave_instance@fmi@cse@@@std@@IEAA@XZ
	??0?$_Ptr_base@Vslave_instance@v1@fmi@cse@@@std@@IEAA@XZ
	??0?$_Ptr_base@Vslave_instance@v2@fmi@cse@@@std@@IEAA@XZ
	??0?$_Ref_count@Vfmu@v1@fmi@cse@@@std@@QEAA@PEAVfmu@v1@fmi@cse@@@Z
	??0?$_Ref_count@Vfmu@v2@fmi@cse@@@std@@QEAA@PEAVfmu@v2@fmi@cse@@@Z
	??0?$_Ref_count@Vimporter@fmi@cse@@@std@@QEAA@PEAVimporter@fmi@cse@@@Z
	??0?$_Ref_count@Vslave_instance@v1@fmi@cse@@@std@@QEAA@PEAVslave_instance@v1@fmi@cse@@@Z
	??0?$_Ref_count@Vslave_instance@v2@fmi@cse@@@std@@QEAA@PEAVslave_instance@v2@fmi@cse@@@Z
	??0?$_String_alloc@U?$_String_base_types@DV?$allocator@D@std@@@std@@@std@@QEAA@XZ
	??0?$_String_alloc@U?$_String_base_types@_WV?$allocator@_W@std@@@std@@@std@@QEAA@XZ
	??0?$_String_const_iterator@V?$_String_val@U?$_Simple_types@D@std@@@std@@@std@@QEAA@$$QEAV01@@Z
	??0?$_String_const_iterator@V?$_String_val@U?$_Simple_types@D@std@@@std@@@std@@QEAA@AEBV01@@Z
	??0?$_String_const_iterator@V?$_String_val@U?$_Simple_types@D@std@@@std@@@std@@QEAA@PEBDPEBU_Container_base12@1@@Z
	??0?$_String_const_iterator@V?$_String_val@U?$_Simple_types@_W@std@@@std@@@std@@QEAA@$$QEAV01@@Z
	??0?$_String_const_iterator@V?$_String_val@U?$_Simple_types@_W@std@@@std@@@std@@QEAA@AEBV01@@Z
	??0?$_String_const_iterator@V?$_String_val@U?$_Simple_types@_W@std@@@std@@@std@@QEAA@PEB_WPEBU_Container_base12@1@@Z
	??0?$_String_iterator@V?$_String_val@U?$_Simple_types@D@std@@@std@@@std@@QEAA@$$QEAV01@@Z
	??0?$_String_iterator@V?$_String_val@U?$_Simple_types@D@std@@@std@@@std@@QEAA@AEBV01@@Z
	??0?$_String_iterator@V?$_String_val@U?$_Simple_types@D@std@@@std@@@std@@QEAA@PEADPEBU_Container_base12@1@@Z
	??0?$_String_iterator@V?$_String_val@U?$_Simple_types@_W@std@@@std@@@std@@QEAA@PEA_WPEBU_Container_base12@1@@Z
	??0?$_String_val@U?$_Simple_types@D@std@@@std@@QEAA@XZ
	??0?$_String_val@U?$_Simple_types@_W@std@@@std@@QEAA@XZ
	??0?$_Tree@V?$_Tmap_traits@V?$basic_string@DU?$char_traits@D@std@@V?$allocator@D@2@@std@@V?$weak_ptr@Vfmu@fmi@cse@@@2@U?$less@V?$basic_string@DU?$char_traits@D@std@@V?$allocator@D@2@@std@@@2@V?$allocator@U?$pair@$$CBV?$basic_string@DU?$char_traits@D@std@@V?$allocator@D@2@@std@@V?$weak_ptr@Vfmu@fmi@cse@@@2@@std@@@2@$0A@@std@@@std@@QEAA@AEBU?$less@V?$basic_string@DU?$char_traits@D@std@@V?$allocator@D@2@@std@@@1@@Z
	??0?$_Tree@V?$_Tmap_traits@Vpath@filesystem@std@@V?$weak_ptr@Vfmu@fmi@cse@@@3@U?$less@Vpath@filesystem@std@@@3@V?$allocator@U?$pair@$$CBVpath@filesystem@std@@V?$weak_ptr@Vfmu@fmi@cse@@@3@@std@@@3@$0A@@std@@@std@@QEAA@AEBU?$less@Vpath@filesystem@std@@@1@@Z
	??0?$_Tree_comp_alloc@V?$_Tmap_traits@V?$basic_string@DU?$char_traits@D@std@@V?$allocator@D@2@@std@@V?$weak_ptr@Vfmu@fmi@cse@@@2@U?$less@V?$basic_string@DU?$char_traits@D@std@@V?$allocator@D@2@@std@@@2@V?$allocator@U?$pair@$$CBV?$basic_string@DU?$char_traits@D@std@@V?$allocator@D@2@@std@@V?$weak_ptr@Vfmu@fmi@cse@@@2@@std@@@2@$0A@@std@@@std@@QEAA@AEBU?$less@V?$basic_string@DU?$char_traits@D@std@@V?$allocator@D@2@@std@@@1@@Z
	??0?$_Tree_comp_alloc@V?$_Tmap_traits@Vpath@filesystem@std@@V?$weak_ptr@Vfmu@fmi@cse@@@3@U?$less@Vpath@filesystem@std@@@3@V?$allocator@U?$pair@$$CBVpath@filesystem@std@@V?$weak_ptr@Vfmu@fmi@cse@@@3@@std@@@3@$0A@@std@@@std@@QEAA@AEBU?$less@Vpath@filesystem@std@@@1@@Z
	??0?$_Tree_const_iterator@V?$_Tree_val@U?$_Tree_simple_types@U?$pair@$$CBV?$basic_string@DU?$char_traits@D@std@@V?$allocator@D@2@@std@@V?$weak_ptr@Vfmu@fmi@cse@@@2@@std@@@std@@@std@@@std@@QEAA@$$QEAV01@@Z
	??0?$_Tree_const_iterator@V?$_Tree_val@U?$_Tree_simple_types@U?$pair@$$CBV?$basic_string@DU?$char_traits@D@std@@V?$allocator@D@2@@std@@V?$weak_ptr@Vfmu@fmi@cse@@@2@@std@@@std@@@std@@@std@@QEAA@AEBV01@@Z
	??0?$_Tree_const_iterator@V?$_Tree_val@U?$_Tree_simple_types@U?$pair@$$CBV?$basic_string@DU?$char_traits@D@std@@V?$allocator@D@2@@std@@V?$weak_ptr@Vfmu@fmi@cse@@@2@@std@@@std@@@std@@@std@@QEAA@PEAU?$_Tree_node@U?$pair@$$CBV?$basic_string@DU?$char_traits@D@std@@V?$allocator@D@2@@std@@V?$weak_ptr@Vfmu@fmi@cse@@@2@@std@@PEAX@1@PEBV?$_Tree_val@U?$_Tree_simple_types@U?$pair@$$CBV?$basic_string@DU?$char_traits@D@std@@V?$allocator@D@2@@std@@V?$weak_ptr@Vfmu@fmi@cse@@@2@@std@@@std@@@1@@Z
	??0?$_Tree_const_iterator@V?$_Tree_val@U?$_Tree_simple_types@U?$pair@$$CBV?$basic_string@DU?$char_traits@D@std@@V?$allocator@D@2@@std@@V?$weak_ptr@Vfmu@fmi@cse@@@2@@std@@@std@@@std@@@std@@QEAA@XZ
	??0?$_Tree_const_iterator@V?$_Tree_val@U?$_Tree_simple_types@U?$pair@$$CBVpath@filesystem@std@@V?$weak_ptr@Vfmu@fmi@cse@@@3@@std@@@std@@@std@@@std@@QEAA@$$QEAV01@@Z
	??0?$_Tree_const_iterator@V?$_Tree_val@U?$_Tree_simple_types@U?$pair@$$CBVpath@filesystem@std@@V?$weak_ptr@Vfmu@fmi@cse@@@3@@std@@@std@@@std@@@std@@QEAA@AEBV01@@Z
	??0?$_Tree_const_iterator@V?$_Tree_val@U?$_Tree_simple_types@U?$pair@$$CBVpath@filesystem@std@@V?$weak_ptr@Vfmu@fmi@cse@@@3@@std@@@std@@@std@@@std@@QEAA@PEAU?$_Tree_node@U?$pair@$$CBVpath@filesystem@std@@V?$weak_ptr@Vfmu@fmi@cse@@@3@@std@@PEAX@1@PEBV?$_Tree_val@U?$_Tree_simple_types@U?$pair@$$CBVpath@filesystem@std@@V?$weak_ptr@Vfmu@fmi@cse@@@3@@std@@@std@@@1@@Z
	??0?$_Tree_const_iterator@V?$_Tree_val@U?$_Tree_simple_types@U?$pair@$$CBVpath@filesystem@std@@V?$weak_ptr@Vfmu@fmi@cse@@@3@@std@@@std@@@std@@@std@@QEAA@XZ
	??0?$_Tree_iterator@V?$_Tree_val@U?$_Tree_simple_types@U?$pair@$$CBV?$basic_string@DU?$char_traits@D@std@@V?$allocator@D@2@@std@@V?$weak_ptr@Vfmu@fmi@cse@@@2@@std@@@std@@@std@@@std@@QEAA@$$QEAV01@@Z
	??0?$_Tree_iterator@V?$_Tree_val@U?$_Tree_simple_types@U?$pair@$$CBV?$basic_string@DU?$char_traits@D@std@@V?$allocator@D@2@@std@@V?$weak_ptr@Vfmu@fmi@cse@@@2@@std@@@std@@@std@@@std@@QEAA@AEBV01@@Z
	??0?$_Tree_iterator@V?$_Tree_val@U?$_Tree_simple_types@U?$pair@$$CBV?$basic_string@DU?$char_traits@D@std@@V?$allocator@D@2@@std@@V?$weak_ptr@Vfmu@fmi@cse@@@2@@std@@@std@@@std@@@std@@QEAA@PEAU?$_Tree_node@U?$pair@$$CBV?$basic_string@DU?$char_traits@D@std@@V?$allocator@D@2@@std@@V?$weak_ptr@Vfmu@fmi@cse@@@2@@std@@PEAX@1@PEBV?$_Tree_val@U?$_Tree_simple_types@U?$pair@$$CBV?$basic_string@DU?$char_traits@D@std@@V?$allocator@D@2@@std@@V?$weak_ptr@Vfmu@fmi@cse@@@2@@std@@@std@@@1@@Z
	??0?$_Tree_iterator@V?$_Tree_val@U?$_Tree_simple_types@U?$pair@$$CBVpath@filesystem@std@@V?$weak_ptr@Vfmu@fmi@cse@@@3@@std@@@std@@@std@@@std@@QEAA@$$QEAV01@@Z
	??0?$_Tree_iterator@V?$_Tree_val@U?$_Tree_simple_types@U?$pair@$$CBVpath@filesystem@std@@V?$weak_ptr@Vfmu@fmi@cse@@@3@@std@@@std@@@std@@@std@@QEAA@AEBV01@@Z
	??0?$_Tree_iterator@V?$_Tree_val@U?$_Tree_simple_types@U?$pair@$$CBVpath@filesystem@std@@V?$weak_ptr@Vfmu@fmi@cse@@@3@@std@@@std@@@std@@@std@@QEAA@PEAU?$_Tree_node@U?$pair@$$CBVpath@filesystem@std@@V?$weak_ptr@Vfmu@fmi@cse@@@3@@std@@PEAX@1@PEBV?$_Tree_val@U?$_Tree_simple_types@U?$pair@$$CBVpath@filesystem@std@@V?$weak_ptr@Vfmu@fmi@cse@@@3@@std@@@std@@@1@@Z
	??0?$_Tree_unchecked_const_iterator@V?$_Tree_val@U?$_Tree_simple_types@U?$pair@$$CBV?$basic_string@DU?$char_traits@D@std@@V?$allocator@D@2@@std@@V?$weak_ptr@Vfmu@fmi@cse@@@2@@std@@@std@@@std@@U_Iterator_base12@2@@std@@QEAA@$$QEAV01@@Z
	??0?$_Tree_unchecked_const_iterator@V?$_Tree_val@U?$_Tree_simple_types@U?$pair@$$CBV?$basic_string@DU?$char_traits@D@std@@V?$allocator@D@2@@std@@V?$weak_ptr@Vfmu@fmi@cse@@@2@@std@@@std@@@std@@U_Iterator_base12@2@@std@@QEAA@AEBV01@@Z
	??0?$_Tree_unchecked_const_iterator@V?$_Tree_val@U?$_Tree_simple_types@U?$pair@$$CBV?$basic_string@DU?$char_traits@D@std@@V?$allocator@D@2@@std@@V?$weak_ptr@Vfmu@fmi@cse@@@2@@std@@@std@@@std@@U_Iterator_base12@2@@std@@QEAA@PEAU?$_Tree_node@U?$pair@$$CBV?$basic_string@DU?$char_traits@D@std@@V?$allocator@D@2@@std@@V?$weak_ptr@Vfmu@fmi@cse@@@2@@std@@PEAX@1@PEBV?$_Tree_val@U?$_Tree_simple_types@U?$pair@$$CBV?$basic_string@DU?$char_traits@D@std@@V?$allocator@D@2@@std@@V?$weak_ptr@Vfmu@fmi@cse@@@2@@std@@@std@@@1@@Z
	??0?$_Tree_unchecked_const_iterator@V?$_Tree_val@U?$_Tree_simple_types@U?$pair@$$CBV?$basic_string@DU?$char_traits@D@std@@V?$allocator@D@2@@std@@V?$weak_ptr@Vfmu@fmi@cse@@@2@@std@@@std@@@std@@U_Iterator_base12@2@@std@@QEAA@XZ
	??0?$_Tree_unchecked_const_iterator@V?$_Tree_val@U?$_Tree_simple_types@U?$pair@$$CBVpath@filesystem@std@@V?$weak_ptr@Vfmu@fmi@cse@@@3@@std@@@std@@@std@@U_Iterator_base12@2@@std@@QEAA@$$QEAV01@@Z
	??0?$_Tree_unchecked_const_iterator@V?$_Tree_val@U?$_Tree_simple_types@U?$pair@$$CBVpath@filesystem@std@@V?$weak_ptr@Vfmu@fmi@cse@@@3@@std@@@std@@@std@@U_Iterator_base12@2@@std@@QEAA@AEBV01@@Z
	??0?$_Tree_unchecked_const_iterator@V?$_Tree_val@U?$_Tree_simple_types@U?$pair@$$CBVpath@filesystem@std@@V?$weak_ptr@Vfmu@fmi@cse@@@3@@std@@@std@@@std@@U_Iterator_base12@2@@std@@QEAA@PEAU?$_Tree_node@U?$pair@$$CBVpath@filesystem@std@@V?$weak_ptr@Vfmu@fmi@cse@@@3@@std@@PEAX@1@PEBV?$_Tree_val@U?$_Tree_simple_types@U?$pair@$$CBVpath@filesystem@std@@V?$weak_ptr@Vfmu@fmi@cse@@@3@@std@@@std@@@1@@Z
	??0?$_Tree_unchecked_const_iterator@V?$_Tree_val@U?$_Tree_simple_types@U?$pair@$$CBVpath@filesystem@std@@V?$weak_ptr@Vfmu@fmi@cse@@@3@@std@@@std@@@std@@U_Iterator_base12@2@@std@@QEAA@XZ
	??0?$_Tree_val@U?$_Tree_simple_types@U?$pair@$$CBV?$basic_string@DU?$char_traits@D@std@@V?$allocator@D@2@@std@@V?$weak_ptr@Vfmu@fmi@cse@@@2@@std@@@std@@@std@@QEAA@XZ
	??0?$_Tree_val@U?$_Tree_simple_types@U?$pair@$$CBVpath@filesystem@std@@V?$weak_ptr@Vfmu@fmi@cse@@@3@@std@@@std@@@std@@QEAA@XZ
	??0?$_Uhash_compare@V?$basic_string@DU?$char_traits@D@std@@V?$allocator@D@2@@std@@U?$hash@V?$basic_string@DU?$char_traits@D@std@@V?$allocator@D@2@@std@@@2@U?$equal_to@V?$basic_string@DU?$char_traits@D@std@@V?$allocator@D@2@@std@@@2@@std@@QEAA@U?$hash@V?$basic_string@DU?$char_traits@D@std@@V?$allocator@D@2@@std@@@1@U?$equal_to@V?$basic_string@DU?$char_traits@D@std@@V?$allocator@D@2@@std@@@1@@Z
	??0?$_Uninitialized_backout_al@PEAUvariable_description@cse@@V?$allocator@Uvariable_description@cse@@@std@@@std@@QEAA@PEAUvariable_description@cse@@AEAV?$allocator@Uvariable_description@cse@@@1@@Z
	??0?$_Uninitialized_backout_al@PEAV?$weak_ptr@Vslave_instance@v1@fmi@cse@@@std@@V?$allocator@V?$weak_ptr@Vslave_instance@v1@fmi@cse@@@std@@@2@@std@@QEAA@PEAV?$weak_ptr@Vslave_instance@v1@fmi@cse@@@1@AEAV?$allocator@V?$weak_ptr@Vslave_instance@v1@fmi@cse@@@std@@@1@@Z
	??0?$_Uninitialized_backout_al@PEAV?$weak_ptr@Vslave_instance@v2@fmi@cse@@@std@@V?$allocator@V?$weak_ptr@Vslave_instance@v2@fmi@cse@@@std@@@2@@std@@QEAA@PEAV?$weak_ptr@Vslave_instance@v2@fmi@cse@@@1@AEAV?$allocator@V?$weak_ptr@Vslave_instance@v2@fmi@cse@@@std@@@1@@Z
	??0?$_Vector_alloc@U?$_Vec_base_types@Uvariable_description@cse@@V?$allocator@Uvariable_description@cse@@@std@@@std@@@std@@QEAA@XZ
	??0?$_Vector_alloc@U?$_Vec_base_types@V?$weak_ptr@Vslave_instance@v1@fmi@cse@@@std@@V?$allocator@V?$weak_ptr@Vslave_instance@v1@fmi@cse@@@std@@@2@@std@@@std@@QEAA@XZ
	??0?$_Vector_alloc@U?$_Vec_base_types@V?$weak_ptr@Vslave_instance@v2@fmi@cse@@@std@@V?$allocator@V?$weak_ptr@Vslave_instance@v2@fmi@cse@@@std@@@2@@std@@@std@@QEAA@XZ
	??0?$_Vector_const_iterator@V?$_Vector_val@U?$_Simple_types@V?$weak_ptr@Vslave_instance@v1@fmi@cse@@@std@@@std@@@std@@@std@@QEAA@$$QEAV01@@Z
	??0?$_Vector_const_iterator@V?$_Vector_val@U?$_Simple_types@V?$weak_ptr@Vslave_instance@v1@fmi@cse@@@std@@@std@@@std@@@std@@QEAA@AEBV01@@Z
	??0?$_Vector_const_iterator@V?$_Vector_val@U?$_Simple_types@V?$weak_ptr@Vslave_instance@v1@fmi@cse@@@std@@@std@@@std@@@std@@QEAA@PEAV?$weak_ptr@Vslave_instance@v1@fmi@cse@@@1@PEBU_Container_base12@1@@Z
	??0?$_Vector_const_iterator@V?$_Vector_val@U?$_Simple_types@V?$weak_ptr@Vslave_instance@v2@fmi@cse@@@std@@@std@@@std@@@std@@QEAA@$$QEAV01@@Z
	??0?$_Vector_const_iterator@V?$_Vector_val@U?$_Simple_types@V?$weak_ptr@Vslave_instance@v2@fmi@cse@@@std@@@std@@@std@@@std@@QEAA@AEBV01@@Z
	??0?$_Vector_const_iterator@V?$_Vector_val@U?$_Simple_types@V?$weak_ptr@Vslave_instance@v2@fmi@cse@@@std@@@std@@@std@@@std@@QEAA@PEAV?$weak_ptr@Vslave_instance@v2@fmi@cse@@@1@PEBU_Container_base12@1@@Z
	??0?$_Vector_iterator@V?$_Vector_val@U?$_Simple_types@V?$weak_ptr@Vslave_instance@v1@fmi@cse@@@std@@@std@@@std@@@std@@QEAA@$$QEAV01@@Z
	??0?$_Vector_iterator@V?$_Vector_val@U?$_Simple_types@V?$weak_ptr@Vslave_instance@v1@fmi@cse@@@std@@@std@@@std@@@std@@QEAA@PEAV?$weak_ptr@Vslave_instance@v1@fmi@cse@@@1@PEBU_Container_base12@1@@Z
	??0?$_Vector_iterator@V?$_Vector_val@U?$_Simple_types@V?$weak_ptr@Vslave_instance@v2@fmi@cse@@@std@@@std@@@std@@@std@@QEAA@$$QEAV01@@Z
	??0?$_Vector_iterator@V?$_Vector_val@U?$_Simple_types@V?$weak_ptr@Vslave_instance@v2@fmi@cse@@@std@@@std@@@std@@@std@@QEAA@PEAV?$weak_ptr@Vslave_instance@v2@fmi@cse@@@1@PEBU_Container_base12@1@@Z
	??0?$_Vector_val@U?$_Simple_types@D@std@@@std@@QEAA@XZ
	??0?$_Vector_val@U?$_Simple_types@H@std@@@std@@QEAA@XZ
	??0?$_Vector_val@U?$_Simple_types@PEBD@std@@@std@@QEAA@XZ
	??0?$_Vector_val@U?$_Simple_types@Uvariable_description@cse@@@std@@@std@@QEAA@XZ
	??0?$_Vector_val@U?$_Simple_types@V?$weak_ptr@Vslave_instance@v1@fmi@cse@@@std@@@std@@@std@@QEAA@XZ
	??0?$_Vector_val@U?$_Simple_types@V?$weak_ptr@Vslave_instance@v2@fmi@cse@@@std@@@std@@@std@@QEAA@XZ
	??0?$allocator@D@std@@QEAA@XZ
	??0?$allocator@H@std@@QEAA@XZ
	??0?$allocator@PEBD@std@@QEAA@XZ
	??0?$allocator@U?$_Tree_node@U?$pair@$$CBV?$basic_string@DU?$char_traits@D@std@@V?$allocator@D@2@@std@@V?$weak_ptr@Vfmu@fmi@cse@@@2@@std@@PEAX@std@@@std@@QEAA@XZ
	??0?$allocator@U?$_Tree_node@U?$pair@$$CBVpath@filesystem@std@@V?$weak_ptr@Vfmu@fmi@cse@@@3@@std@@PEAX@std@@@std@@QEAA@XZ
	??0?$allocator@U?$pair@$$CBV?$basic_string@DU?$char_traits@D@std@@V?$allocator@D@2@@std@@V?$basic_ptree@V?$basic_string@DU?$char_traits@D@std@@V?$allocator@D@2@@std@@V12@U?$less@V?$basic_string@DU?$char_traits@D@std@@V?$allocator@D@2@@std@@@2@@property_tree@boost@@@std@@@std@@QEAA@XZ
	??0?$allocator@Uvariable_description@cse@@@std@@QEAA@XZ
	??0?$allocator@V?$weak_ptr@Vslave_instance@v1@fmi@cse@@@std@@@std@@QEAA@XZ
	??0?$allocator@V?$weak_ptr@Vslave_instance@v2@fmi@cse@@@std@@@std@@QEAA@XZ
	??0?$allocator@_W@std@@QEAA@XZ
	??0?$atomic@H@std@@QEAA@H@Z
	??0?$attribute_value_impl@W4level@log@cse@@@attributes@v2s_mt_nt6@log@boost@@QEAA@AEBW4level@3cse@@@Z
	??0?$auto_space@U?$copy_map_entry@U?$sequenced_index_node@U?$ordered_index_node@Unull_augment_policy@detail@multi_index@boost@@U?$index_node_base@U?$pair@$$CBV?$basic_string@DU?$char_traits@D@std@@V?$allocator@D@2@@std@@V?$basic_ptree@V?$basic_string@DU?$char_traits@D@std@@V?$allocator@D@2@@std@@V12@U?$less@V?$basic_string@DU?$char_traits@D@std@@V?$allocator@D@2@@std@@@2@@property_tree@boost@@@std@@V?$allocator@U?$pair@$$CBV?$basic_string@DU?$char_traits@D@std@@V?$allocator@D@2@@std@@V?$basic_ptree@V?$basic_string@DU?$char_traits@D@std@@V?$allocator@D@2@@std@@V12@U?$less@V?$basic_string@DU?$char_traits@D@std@@V?$allocator@D@2@@std@@@2@@property_tree@boost@@@std@@@2@@234@@detail@multi_index@boost@@@detail@multi_index@boost@@@detail@multi_index@boost@@V?$allocator@U?$pair@$$CBV?$basic_string@DU?$char_traits@D@std@@V?$allocator@D@2@@std@@V?$basic_ptree@V?$basic_string@DU?$char_traits@D@std@@V?$allocator@D@2@@std@@V12@U?$less@V?$basic_string@DU?$char_traits@D@std@@V?$allocator@D@2@@std@@@2@@property_tree@boost@@@std@@@std@@@detail@multi_index@boost@@QEAA@AEBV?$allocator@U?$pair@$$CBV?$basic_string@DU?$char_traits@D@std@@V?$allocator@D@2@@std@@V?$basic_ptree@V?$basic_string@DU?$char_traits@D@std@@V?$allocator@D@2@@std@@V12@U?$less@V?$basic_string@DU?$char_traits@D@std@@V?$allocator@D@2@@std@@@2@@property_tree@boost@@@std@@@std@@_K@Z
	??0?$basic_composite_logger@DV?$severity_logger_mt@W4level@log@cse@@@sources@v2s_mt_nt6@log@boost@@U?$multi_thread_model@Vlight_rw_mutex@aux@v2s_mt_nt6@log@boost@@@2345@U?$features@U?$severity@W4level@log@cse@@@sources@v2s_mt_nt6@log@boost@@@2345@@sources@v2s_mt_nt6@log@boost@@QEAA@$$QEAV01234@@Z
	??0?$basic_composite_logger@DV?$severity_logger_mt@W4level@log@cse@@@sources@v2s_mt_nt6@log@boost@@U?$multi_thread_model@Vlight_rw_mutex@aux@v2s_mt_nt6@log@boost@@@2345@U?$features@U?$severity@W4level@log@cse@@@sources@v2s_mt_nt6@log@boost@@@2345@@sources@v2s_mt_nt6@log@boost@@QEAA@XZ
	??0?$basic_filebuf@DU?$char_traits@D@std@@@std@@QEAA@PEAU_iobuf@@@Z
	??0?$basic_ifstream@DU?$char_traits@D@std@@@std@@QEAA@PEBDHH@Z
	??0?$basic_logger@DV?$severity_logger_mt@W4level@log@cse@@@sources@v2s_mt_nt6@log@boost@@U?$multi_thread_model@Vlight_rw_mutex@aux@v2s_mt_nt6@log@boost@@@2345@@sources@v2s_mt_nt6@log@boost@@QEAA@$$QEAV01234@@Z
	??0?$basic_logger@DV?$severity_logger_mt@W4level@log@cse@@@sources@v2s_mt_nt6@log@boost@@U?$multi_thread_model@Vlight_rw_mutex@aux@v2s_mt_nt6@log@boost@@@2345@@sources@v2s_mt_nt6@log@boost@@QEAA@XZ
	??0?$basic_ofstream@DU?$char_traits@D@std@@@std@@QEAA@AEBV?$basic_string@DU?$char_traits@D@std@@V?$allocator@D@2@@1@HH@Z
	??0?$basic_ofstream@DU?$char_traits@D@std@@@std@@QEAA@PEBDHH@Z
	??0?$basic_ostringstream@DU?$char_traits@D@std@@V?$allocator@D@2@@std@@QEAA@H@Z
	??0?$basic_ptree@V?$basic_string@DU?$char_traits@D@std@@V?$allocator@D@2@@std@@V12@U?$less@V?$basic_string@DU?$char_traits@D@std@@V?$allocator@D@2@@std@@@2@@property_tree@boost@@QEAA@AEBV012@@Z
	??0?$basic_ptree@V?$basic_string@DU?$char_traits@D@std@@V?$allocator@D@2@@std@@V12@U?$less@V?$basic_string@DU?$char_traits@D@std@@V?$allocator@D@2@@std@@@2@@property_tree@boost@@QEAA@AEBV?$basic_string@DU?$char_traits@D@std@@V?$allocator@D@2@@std@@@Z
	??0?$basic_ptree@V?$basic_string@DU?$char_traits@D@std@@V?$allocator@D@2@@std@@V12@U?$less@V?$basic_string@DU?$char_traits@D@std@@V?$allocator@D@2@@std@@@2@@property_tree@boost@@QEAA@XZ
	??0?$basic_random_generator@V?$mersenne_twister_engine@I$0CA@$0CHA@$0BIN@$0BP@$0JJAILANP@$0L@$0PPPPPPPP@$06$0JNCMFGIA@$0P@$0OPMGAAAA@$0BC@$0GMAHIJGF@@random@boost@@@uuids@boost@@QEAA@XZ
	??0?$basic_severity_logger@V?$basic_logger@DV?$severity_logger_mt@W4level@log@cse@@@sources@v2s_mt_nt6@log@boost@@U?$multi_thread_model@Vlight_rw_mutex@aux@v2s_mt_nt6@log@boost@@@2345@@sources@v2s_mt_nt6@log@boost@@W4level@4cse@@@sources@v2s_mt_nt6@log@boost@@QEAA@$$QEAV01234@@Z
	??0?$basic_severity_logger@V?$basic_logger@DV?$severity_logger_mt@W4level@log@cse@@@sources@v2s_mt_nt6@log@boost@@U?$multi_thread_model@Vlight_rw_mutex@aux@v2s_mt_nt6@log@boost@@@2345@@sources@v2s_mt_nt6@log@boost@@W4level@4cse@@@sources@v2s_mt_nt6@log@boost@@QEAA@XZ
	??0?$basic_string@DU?$char_traits@D@std@@V?$allocator@D@2@@std@@QEAA@$$QEAV01@@Z
	??0?$basic_string@DU?$char_traits@D@std@@V?$allocator@D@2@@std@@QEAA@AEBV01@@Z
	??0?$basic_string@DU?$char_traits@D@std@@V?$allocator@D@2@@std@@QEAA@AEBV01@_K1AEBV?$allocator@D@1@@Z
	??0?$basic_string@DU?$char_traits@D@std@@V?$allocator@D@2@@std@@QEAA@AEBV?$allocator@D@1@@Z
	??0?$basic_string@DU?$char_traits@D@std@@V?$allocator@D@2@@std@@QEAA@QEBD@Z
	??0?$basic_string@DU?$char_traits@D@std@@V?$allocator@D@2@@std@@QEAA@QEBD_K@Z
	??0?$basic_string@DU?$char_traits@D@std@@V?$allocator@D@2@@std@@QEAA@XZ
	??0?$basic_string@DU?$char_traits@D@std@@V?$allocator@D@2@@std@@QEAA@_KD@Z
	??0?$basic_string@_WU?$char_traits@_W@std@@V?$allocator@_W@2@@std@@QEAA@$$QEAV01@@Z
	??0?$basic_string@_WU?$char_traits@_W@std@@V?$allocator@_W@2@@std@@QEAA@AEBV01@@Z
	??0?$basic_string@_WU?$char_traits@_W@std@@V?$allocator@_W@2@@std@@QEAA@AEBV01@_K1AEBV?$allocator@_W@1@@Z
	??0?$basic_string@_WU?$char_traits@_W@std@@V?$allocator@_W@2@@std@@QEAA@QEB_W_K@Z
	??0?$basic_string@_WU?$char_traits@_W@std@@V?$allocator@_W@2@@std@@QEAA@XZ
	??0?$basic_string_view@DU?$char_traits@D@std@@@std@@QEAA@QEBD@Z
	??0?$basic_string_view@DU?$char_traits@D@std@@@std@@QEAA@QEBD_K@Z
	??0?$basic_string_view@_WU?$char_traits@_W@std@@@std@@QEAA@QEB_W@Z
	??0?$basic_string_view@_WU?$char_traits@_W@std@@@std@@QEAA@QEB_W_K@Z
	??0?$basic_stringbuf@DU?$char_traits@D@std@@V?$allocator@D@2@@std@@QEAA@H@Z
	??0?$basic_stringstream@DU?$char_traits@D@std@@V?$allocator@D@2@@std@@QEAA@H@Z
	??0?$bidir_node_iterator@U?$ordered_index_node@Unull_augment_policy@detail@multi_index@boost@@U?$index_node_base@U?$pair@$$CBV?$basic_string@DU?$char_traits@D@std@@V?$allocator@D@2@@std@@V?$basic_ptree@V?$basic_string@DU?$char_traits@D@std@@V?$allocator@D@2@@std@@V12@U?$less@V?$basic_string@DU?$char_traits@D@std@@V?$allocator@D@2@@std@@@2@@property_tree@boost@@@std@@V?$allocator@U?$pair@$$CBV?$basic_string@DU?$char_traits@D@std@@V?$allocator@D@2@@std@@V?$basic_ptree@V?$basic_string@DU?$char_traits@D@std@@V?$allocator@D@2@@std@@V12@U?$less@V?$basic_string@DU?$char_traits@D@std@@V?$allocator@D@2@@std@@@2@@property_tree@boost@@@std@@@2@@234@@detail@multi_index@boost@@@detail@multi_index@boost@@QEAA@PEAU?$ordered_index_node@Unull_augment_policy@detail@multi_index@boost@@U?$index_node_base@U?$pair@$$CBV?$basic_string@DU?$char_traits@D@std@@V?$allocator@D@2@@std@@V?$basic_ptree@V?$basic_string@DU?$char_traits@D@std@@V?$allocator@D@2@@std@@V12@U?$less@V?$basic_string@DU?$char_traits@D@std@@V?$allocator@D@2@@std@@@2@@property_tree@boost@@@std@@V?$allocator@U?$pair@$$CBV?$basic_string@DU?$char_traits@D@std@@V?$allocator@D@2@@std@@V?$basic_ptree@V?$basic_string@DU?$char_traits@D@std@@V?$allocator@D@2@@std@@V12@U?$less@V?$basic_string@DU?$char_traits@D@std@@V?$allocator@D@2@@std@@@2@@property_tree@boost@@@std@@@2@@234@@123@@Z
	??0?$bidir_node_iterator@U?$sequenced_index_node@U?$ordered_index_node@Unull_augment_policy@detail@multi_index@boost@@U?$index_node_base@U?$pair@$$CBV?$basic_string@DU?$char_traits@D@std@@V?$allocator@D@2@@std@@V?$basic_ptree@V?$basic_string@DU?$char_traits@D@std@@V?$allocator@D@2@@std@@V12@U?$less@V?$basic_string@DU?$char_traits@D@std@@V?$allocator@D@2@@std@@@2@@property_tree@boost@@@std@@V?$allocator@U?$pair@$$CBV?$basic_string@DU?$char_traits@D@std@@V?$allocator@D@2@@std@@V?$basic_ptree@V?$basic_string@DU?$char_traits@D@std@@V?$allocator@D@2@@std@@V12@U?$less@V?$basic_string@DU?$char_traits@D@std@@V?$allocator@D@2@@std@@@2@@property_tree@boost@@@std@@@2@@234@@detail@multi_index@boost@@@detail@multi_index@boost@@@detail@multi_index@boost@@QEAA@PEAU?$sequenced_index_node@U?$ordered_index_node@Unull_augment_policy@detail@multi_index@boost@@U?$index_node_base@U?$pair@$$CBV?$basic_string@DU?$char_traits@D@std@@V?$allocator@D@2@@std@@V?$basic_ptree@V?$basic_string@DU?$char_traits@D@std@@V?$allocator@D@2@@std@@V12@U?$less@V?$basic_string@DU?$char_traits@D@std@@V?$allocator@D@2@@std@@@2@@property_tree@boost@@@std@@V?$allocator@U?$pair@$$CBV?$basic_string@DU?$char_traits@D@std@@V?$allocator@D@2@@std@@V?$basic_ptree@V?$basic_string@DU?$char_traits@D@std@@V?$allocator@D@2@@std@@V12@U?$less@V?$basic_string@DU?$char_traits@D@std@@V?$allocator@D@2@@std@@@2@@property_tree@boost@@@std@@@2@@234@@detail@multi_index@boost@@@123@@Z
	??0?$callback@W4level@log@cse@@@type_dispatcher@v2s_mt_nt6@log@boost@@QEAA@AEBVcallback_base@1234@@Z
	??0?$clone_impl@U?$error_info_injector@Vinvalid_argument@std@@@exception_detail@boost@@@exception_detail@boost@@AEAA@AEBV012@Uclone_tag@012@@Z
	??0?$clone_impl@U?$error_info_injector@Vinvalid_argument@std@@@exception_detail@boost@@@exception_detail@boost@@QEAA@AEBU?$error_info_injector@Vinvalid_argument@std@@@12@@Z
	??0?$clone_impl@U?$error_info_injector@Vinvalid_argument@std@@@exception_detail@boost@@@exception_detail@boost@@QEAA@AEBV012@@Z
	??0?$clone_impl@U?$error_info_injector@Vptree_bad_path@property_tree@boost@@@exception_detail@boost@@@exception_detail@boost@@AEAA@AEBV012@Uclone_tag@012@@Z
	??0?$clone_impl@U?$error_info_injector@Vptree_bad_path@property_tree@boost@@@exception_detail@boost@@@exception_detail@boost@@QEAA@AEBU?$error_info_injector@Vptree_bad_path@property_tree@boost@@@12@@Z
	??0?$clone_impl@U?$error_info_injector@Vptree_bad_path@property_tree@boost@@@exception_detail@boost@@@exception_detail@boost@@QEAA@AEBV012@@Z
	??0?$clone_impl@U?$error_info_injector@Vruntime_error@std@@@exception_detail@boost@@@exception_detail@boost@@AEAA@AEBV012@Uclone_tag@012@@Z
	??0?$clone_impl@U?$error_info_injector@Vruntime_error@std@@@exception_detail@boost@@@exception_detail@boost@@QEAA@AEBU?$error_info_injector@Vruntime_error@std@@@12@@Z
	??0?$clone_impl@U?$error_info_injector@Vruntime_error@std@@@exception_detail@boost@@@exception_detail@boost@@QEAA@AEBV012@@Z
	??0?$clone_impl@U?$error_info_injector@Vxml_parser_error@xml_parser@property_tree@boost@@@exception_detail@boost@@@exception_detail@boost@@AEAA@AEBV012@Uclone_tag@012@@Z
	??0?$clone_impl@U?$error_info_injector@Vxml_parser_error@xml_parser@property_tree@boost@@@exception_detail@boost@@@exception_detail@boost@@QEAA@AEBU?$error_info_injector@Vxml_parser_error@xml_parser@property_tree@boost@@@12@@Z
	??0?$clone_impl@U?$error_info_injector@Vxml_parser_error@xml_parser@property_tree@boost@@@exception_detail@boost@@@exception_detail@boost@@QEAA@AEBV012@@Z
	??0?$cons@U?$less@V?$basic_string@DU?$char_traits@D@std@@V?$allocator@D@2@@std@@@std@@Unull_type@tuples@boost@@@tuples@boost@@QEAA@XZ
	??0?$cons@U?$member@U?$pair@$$CBV?$basic_string@DU?$char_traits@D@std@@V?$allocator@D@2@@std@@V?$basic_ptree@V?$basic_string@DU?$char_traits@D@std@@V?$allocator@D@2@@std@@V12@U?$less@V?$basic_string@DU?$char_traits@D@std@@V?$allocator@D@2@@std@@@2@@property_tree@boost@@@std@@$$CBV?$basic_string@DU?$char_traits@D@std@@V?$allocator@D@2@@2@$0A@@multi_index@boost@@U?$cons@U?$less@V?$basic_string@DU?$char_traits@D@std@@V?$allocator@D@2@@std@@@std@@Unull_type@tuples@boost@@@tuples@3@@tuples@boost@@QEAA@XZ
	??0?$cons@Unull_type@tuples@boost@@U?$cons@V?$tuple@U?$member@U?$pair@$$CBV?$basic_string@DU?$char_traits@D@std@@V?$allocator@D@2@@std@@V?$basic_ptree@V?$basic_string@DU?$char_traits@D@std@@V?$allocator@D@2@@std@@V12@U?$less@V?$basic_string@DU?$char_traits@D@std@@V?$allocator@D@2@@std@@@2@@property_tree@boost@@@std@@$$CBV?$basic_string@DU?$char_traits@D@std@@V?$allocator@D@2@@2@$0A@@multi_index@boost@@U?$less@V?$basic_string@DU?$char_traits@D@std@@V?$allocator@D@2@@std@@@std@@Unull_type@tuples@3@U673@U673@U673@U673@U673@U673@U673@@tuples@boost@@Unull_type@23@@23@@tuples@boost@@QEAA@XZ
	??0?$cons@V?$tuple@U?$member@U?$pair@$$CBV?$basic_string@DU?$char_traits@D@std@@V?$allocator@D@2@@std@@V?$basic_ptree@V?$basic_string@DU?$char_traits@D@std@@V?$allocator@D@2@@std@@V12@U?$less@V?$basic_string@DU?$char_traits@D@std@@V?$allocator@D@2@@std@@@2@@property_tree@boost@@@std@@$$CBV?$basic_string@DU?$char_traits@D@std@@V?$allocator@D@2@@2@$0A@@multi_index@boost@@U?$less@V?$basic_string@DU?$char_traits@D@std@@V?$allocator@D@2@@std@@@std@@Unull_type@tuples@3@U673@U673@U673@U673@U673@U673@U673@@tuples@boost@@Unull_type@23@@tuples@boost@@QEAA@XZ
	??0?$copy_map@U?$sequenced_index_node@U?$ordered_index_node@Unull_augment_policy@detail@multi_index@boost@@U?$index_node_base@U?$pair@$$CBV?$basic_string@DU?$char_traits@D@std@@V?$allocator@D@2@@std@@V?$basic_ptree@V?$basic_string@DU?$char_traits@D@std@@V?$allocator@D@2@@std@@V12@U?$less@V?$basic_string@DU?$char_traits@D@std@@V?$allocator@D@2@@std@@@2@@property_tree@boost@@@std@@V?$allocator@U?$pair@$$CBV?$basic_string@DU?$char_traits@D@std@@V?$allocator@D@2@@std@@V?$basic_ptree@V?$basic_string@DU?$char_traits@D@std@@V?$allocator@D@2@@std@@V12@U?$less@V?$basic_string@DU?$char_traits@D@std@@V?$allocator@D@2@@std@@@2@@property_tree@boost@@@std@@@2@@234@@detail@multi_index@boost@@@detail@multi_index@boost@@V?$allocator@U?$pair@$$CBV?$basic_string@DU?$char_traits@D@std@@V?$allocator@D@2@@std@@V?$basic_ptree@V?$basic_string@DU?$char_traits@D@std@@V?$allocator@D@2@@std@@V12@U?$less@V?$basic_string@DU?$char_traits@D@std@@V?$allocator@D@2@@std@@@2@@property_tree@boost@@@std@@@std@@@detail@multi_index@boost@@QEAA@AEBV?$allocator@U?$pair@$$CBV?$basic_string@DU?$char_traits@D@std@@V?$allocator@D@2@@std@@V?$basic_ptree@V?$basic_string@DU?$char_traits@D@std@@V?$allocator@D@2@@std@@V12@U?$less@V?$basic_string@DU?$char_traits@D@std@@V?$allocator@D@2@@std@@@2@@property_tree@boost@@@std@@@std@@_KPEAU?$sequenced_index_node@U?$ordered_index_node@Unull_augment_policy@detail@multi_index@boost@@U?$index_node_base@U?$pair@$$CBV?$basic_string@DU?$char_traits@D@std@@V?$allocator@D@2@@std@@V?$basic_ptree@V?$basic_string@DU?$char_traits@D@std@@V?$allocator@D@2@@std@@V12@U?$less@V?$basic_string@DU?$char_traits@D@std@@V?$allocator@D@2@@std@@@2@@property_tree@boost@@@std@@V?$allocator@U?$pair@$$CBV?$basic_string@DU?$char_traits@D@std@@V?$allocator@D@2@@std@@V?$basic_ptree@V?$basic_string@DU?$char_traits@D@std@@V?$allocator@D@2@@std@@V12@U?$less@V?$basic_string@DU?$char_traits@D@std@@V?$allocator@D@2@@std@@@2@@property_tree@boost@@@std@@@2@@234@@detail@multi_index@boost@@@123@2@Z
	??0?$copy_map_entry@U?$sequenced_index_node@U?$ordered_index_node@Unull_augment_policy@detail@multi_index@boost@@U?$index_node_base@U?$pair@$$CBV?$basic_string@DU?$char_traits@D@std@@V?$allocator@D@2@@std@@V?$basic_ptree@V?$basic_string@DU?$char_traits@D@std@@V?$allocator@D@2@@std@@V12@U?$less@V?$basic_string@DU?$char_traits@D@std@@V?$allocator@D@2@@std@@@2@@property_tree@boost@@@std@@V?$allocator@U?$pair@$$CBV?$basic_string@DU?$char_traits@D@std@@V?$allocator@D@2@@std@@V?$basic_ptree@V?$basic_string@DU?$char_traits@D@std@@V?$allocator@D@2@@std@@V12@U?$less@V?$basic_string@DU?$char_traits@D@std@@V?$allocator@D@2@@std@@@2@@property_tree@boost@@@std@@@2@@234@@detail@multi_index@boost@@@detail@multi_index@boost@@@detail@multi_index@boost@@QEAA@PEAU?$sequenced_index_node@U?$ordered_index_node@Unull_augment_policy@detail@multi_index@boost@@U?$index_node_base@U?$pair@$$CBV?$basic_string@DU?$char_traits@D@std@@V?$allocator@D@2@@std@@V?$basic_ptree@V?$basic_string@DU?$char_traits@D@std@@V?$allocator@D@2@@std@@V12@U?$less@V?$basic_string@DU?$char_traits@D@std@@V?$allocator@D@2@@std@@@2@@property_tree@boost@@@std@@V?$allocator@U?$pair@$$CBV?$basic_string@DU?$char_traits@D@std@@V?$allocator@D@2@@std@@V?$basic_ptree@V?$basic_string@DU?$char_traits@D@std@@V?$allocator@D@2@@std@@V12@U?$less@V?$basic_string@DU?$char_traits@D@std@@V?$allocator@D@2@@std@@@2@@property_tree@boost@@@std@@@2@@234@@detail@multi_index@boost@@@123@0@Z
	??0?$default_@Useverity@tag@keywords@v2s_mt_nt6@log@boost@@W4level@5cse@@@aux@parameter@boost@@QEAA@AEAW4level@log@cse@@@Z
	??0?$enable_shared_from_this@Vfmu@v1@fmi@cse@@@std@@IEAA@XZ
	??0?$enable_shared_from_this@Vfmu@v2@fmi@cse@@@std@@IEAA@XZ
	??0?$enable_shared_from_this@Vimporter@fmi@cse@@@std@@IEAA@XZ
	??0?$error_info@Uthrow_file_@boost@@PEBD@boost@@QEAA@PEBD@Z
	??0?$error_info@Uthrow_function_@boost@@PEBD@boost@@QEAA@PEBD@Z
	??0?$error_info@Uthrow_line_@boost@@H@boost@@QEAA@H@Z
	??0?$error_info_injector@Vinvalid_argument@std@@@exception_detail@boost@@QEAA@AEBU012@@Z
	??0?$error_info_injector@Vinvalid_argument@std@@@exception_detail@boost@@QEAA@AEBVinvalid_argument@std@@@Z
	??0?$error_info_injector@Vptree_bad_path@property_tree@boost@@@exception_detail@boost@@QEAA@AEBU012@@Z
	??0?$error_info_injector@Vptree_bad_path@property_tree@boost@@@exception_detail@boost@@QEAA@AEBVptree_bad_path@property_tree@2@@Z
	??0?$error_info_injector@Vruntime_error@std@@@exception_detail@boost@@QEAA@AEBU012@@Z
	??0?$error_info_injector@Vruntime_error@std@@@exception_detail@boost@@QEAA@AEBVruntime_error@std@@@Z
	??0?$error_info_injector@Vxml_parser_error@xml_parser@property_tree@boost@@@exception_detail@boost@@QEAA@AEBU012@@Z
	??0?$error_info_injector@Vxml_parser_error@xml_parser@property_tree@boost@@@exception_detail@boost@@QEAA@AEBVxml_parser_error@xml_parser@property_tree@2@@Z
	??0?$fpos@U_Mbstatet@@@std@@QEAA@U_Mbstatet@@_J@Z
	??0?$fpos@U_Mbstatet@@@std@@QEAA@_J@Z
	??0?$generator_iterator@Vseed_rng@detail@uuids@boost@@@detail@uuids@boost@@QEAA@PEAVseed_rng@123@@Z
	??0?$generator_iterator@Vseed_rng@detail@uuids@boost@@@detail@uuids@boost@@QEAA@XZ
	??0?$header_holder@PEAU?$sequenced_index_node@U?$ordered_index_node@Unull_augment_policy@detail@multi_index@boost@@U?$index_node_base@U?$pair@$$CBV?$basic_string@DU?$char_traits@D@std@@V?$allocator@D@2@@std@@V?$basic_ptree@V?$basic_string@DU?$char_traits@D@std@@V?$allocator@D@2@@std@@V12@U?$less@V?$basic_string@DU?$char_traits@D@std@@V?$allocator@D@2@@std@@@2@@property_tree@boost@@@std@@V?$allocator@U?$pair@$$CBV?$basic_string@DU?$char_traits@D@std@@V?$allocator@D@2@@std@@V?$basic_ptree@V?$basic_string@DU?$char_traits@D@std@@V?$allocator@D@2@@std@@V12@U?$less@V?$basic_string@DU?$char_traits@D@std@@V?$allocator@D@2@@std@@@2@@property_tree@boost@@@std@@@2@@234@@detail@multi_index@boost@@@detail@multi_index@boost@@V?$multi_index_container@U?$pair@$$CBV?$basic_string@DU?$char_traits@D@std@@V?$allocator@D@2@@std@@V?$basic_ptree@V?$basic_string@DU?$char_traits@D@std@@V?$allocator@D@2@@std@@V12@U?$less@V?$basic_string@DU?$char_traits@D@std@@V?$allocator@D@2@@std@@@2@@property_tree@boost@@@std@@U?$indexed_by@U?$sequenced@U?$tag@Una@mpl@boost@@U123@U123@U123@U123@U123@U123@U123@U123@U123@U123@U123@U123@U123@U123@U123@U123@U123@U123@U123@@multi_index@boost@@@multi_index@boost@@U?$ordered_non_unique@U?$tag@Uby_name@subs@?$basic_ptree@V?$basic_string@DU?$char_traits@D@std@@V?$allocator@D@2@@std@@V12@U?$less@V?$basic_string@DU?$char_traits@D@std@@V?$allocator@D@2@@std@@@2@@property_tree@boost@@Una@mpl@5@U675@U675@U675@U675@U675@U675@U675@U675@U675@U675@U675@U675@U675@U675@U675@U675@U675@U675@@multi_index@boost@@U?$member@U?$pair@$$CBV?$basic_string@DU?$char_traits@D@std@@V?$allocator@D@2@@std@@V?$basic_ptree@V?$basic_string@DU?$char_traits@D@std@@V?$allocator@D@2@@std@@V12@U?$less@V?$basic_string@DU?$char_traits@D@std@@V?$allocator@D@2@@std@@@2@@property_tree@boost@@@std@@$$CBV?$basic_string@DU?$char_traits@D@std@@V?$allocator@D@2@@2@$0A@@23@U?$less@V?$basic_string@DU?$char_traits@D@std@@V?$allocator@D@2@@std@@@std@@@23@Una@mpl@3@U563@U563@U563@U563@U563@U563@U563@U563@U563@U563@U563@U563@U563@U563@U563@U563@U563@@multi_index@boost@@V?$allocator@U?$pair@$$CBV?$basic_string@DU?$char_traits@D@std@@V?$allocator@D@2@@std@@V?$basic_ptree@V?$basic_string@DU?$char_traits@D@std@@V?$allocator@D@2@@std@@V12@U?$less@V?$basic_string@DU?$char_traits@D@std@@V?$allocator@D@2@@std@@@2@@property_tree@boost@@@std@@@2@@34@@detail@multi_index@boost@@QEAA@XZ
	??0?$holder@V?$string_path@V?$basic_string@DU?$char_traits@D@std@@V?$allocator@D@2@@std@@U?$id_translator@V?$basic_string@DU?$char_traits@D@std@@V?$allocator@D@2@@std@@@property_tree@boost@@@property_tree@boost@@@any@boost@@QEAA@AEBV?$string_path@V?$basic_string@DU?$char_traits@D@std@@V?$allocator@D@2@@std@@U?$id_translator@V?$basic_string@DU?$char_traits@D@std@@V?$allocator@D@2@@std@@@property_tree@boost@@@property_tree@2@@Z
	??0?$index_base@U?$pair@$$CBV?$basic_string@DU?$char_traits@D@std@@V?$allocator@D@2@@std@@V?$basic_ptree@V?$basic_string@DU?$char_traits@D@std@@V?$allocator@D@2@@std@@V12@U?$less@V?$basic_string@DU?$char_traits@D@std@@V?$allocator@D@2@@std@@@2@@property_tree@boost@@@std@@U?$indexed_by@U?$sequenced@U?$tag@Una@mpl@boost@@U123@U123@U123@U123@U123@U123@U123@U123@U123@U123@U123@U123@U123@U123@U123@U123@U123@U123@U123@@multi_index@boost@@@multi_index@boost@@U?$ordered_non_unique@U?$tag@Uby_name@subs@?$basic_ptree@V?$basic_string@DU?$char_traits@D@std@@V?$allocator@D@2@@std@@V12@U?$less@V?$basic_string@DU?$char_traits@D@std@@V?$allocator@D@2@@std@@@2@@property_tree@boost@@Una@mpl@5@U675@U675@U675@U675@U675@U675@U675@U675@U675@U675@U675@U675@U675@U675@U675@U675@U675@U675@@multi_index@boost@@U?$member@U?$pair@$$CBV?$basic_string@DU?$char_traits@D@std@@V?$allocator@D@2@@std@@V?$basic_ptree@V?$basic_string@DU?$char_traits@D@std@@V?$allocator@D@2@@std@@V12@U?$less@V?$basic_string@DU?$char_traits@D@std@@V?$allocator@D@2@@std@@@2@@property_tree@boost@@@std@@$$CBV?$basic_string@DU?$char_traits@D@std@@V?$allocator@D@2@@2@$0A@@23@U?$less@V?$basic_string@DU?$char_traits@D@std@@V?$allocator@D@2@@std@@@std@@@23@Una@mpl@3@U563@U563@U563@U563@U563@U563@U563@U563@U563@U563@U563@U563@U563@U563@U563@U563@U563@@multi_index@boost@@V?$allocator@U?$pair@$$CBV?$basic_string@DU?$char_traits@D@std@@V?$allocator@D@2@@std@@V?$basic_ptree@V?$basic_string@DU?$char_traits@D@std@@V?$allocator@D@2@@std@@V12@U?$less@V?$basic_string@DU?$char_traits@D@std@@V?$allocator@D@2@@std@@@2@@property_tree@boost@@@std@@@2@@detail@multi_index@boost@@IEAA@AEBUnull_type@tuples@3@AEBV?$allocator@U?$pair@$$CBV?$basic_string@DU?$char_traits@D@std@@V?$allocator@D@2@@std@@V?$basic_ptree@V?$basic_string@DU?$char_traits@D@std@@V?$allocator@D@2@@std@@V12@U?$less@V?$basic_string@DU?$char_traits@D@std@@V?$allocator@D@2@@std@@@2@@property_tree@boost@@@std@@@std@@@Z
	??0?$intrusive_ptr@Uimpl@attribute@v2s_mt_nt6@log@boost@@@boost@@QEAA@AEBV01@@Z
	??0?$intrusive_ptr@Uimpl@attribute@v2s_mt_nt6@log@boost@@@boost@@QEAA@PEAUimpl@attribute@v2s_mt_nt6@log@1@_N@Z
	??0?$intrusive_ptr@Uimpl@attribute@v2s_mt_nt6@log@boost@@@boost@@QEAA@XZ
	??0?$intrusive_ptr@Uimpl@attribute_value@v2s_mt_nt6@log@boost@@@boost@@QEAA@PEAUimpl@attribute_value@v2s_mt_nt6@log@1@_N@Z
	??0?$intrusive_ptr@Uimpl@attribute_value@v2s_mt_nt6@log@boost@@@boost@@QEAA@XZ
	??0?$intrusive_ref_counter@Uimpl@attribute@v2s_mt_nt6@log@boost@@Uthread_safe_counter@sp_adl_block@5@@sp_adl_block@boost@@QEAA@XZ
	??0?$istreambuf_iterator@DU?$char_traits@D@std@@@std@@QEAA@PEAV?$basic_streambuf@DU?$char_traits@D@std@@@1@@Z
	??0?$istreambuf_iterator@DU?$char_traits@D@std@@@std@@QEAA@XZ
	??0?$iterator_adaptor@Vconst_assoc_iterator@?$basic_ptree@V?$basic_string@DU?$char_traits@D@std@@V?$allocator@D@2@@std@@V12@U?$less@V?$basic_string@DU?$char_traits@D@std@@V?$allocator@D@2@@std@@@2@@property_tree@boost@@V?$bidir_node_iterator@U?$ordered_index_node@Unull_augment_policy@detail@multi_index@boost@@U?$index_node_base@U?$pair@$$CBV?$basic_string@DU?$char_traits@D@std@@V?$allocator@D@2@@std@@V?$basic_ptree@V?$basic_string@DU?$char_traits@D@std@@V?$allocator@D@2@@std@@V12@U?$less@V?$basic_string@DU?$char_traits@D@std@@V?$allocator@D@2@@std@@@2@@property_tree@boost@@@std@@V?$allocator@U?$pair@$$CBV?$basic_string@DU?$char_traits@D@std@@V?$allocator@D@2@@std@@V?$basic_ptree@V?$basic_string@DU?$char_traits@D@std@@V?$allocator@D@2@@std@@V12@U?$less@V?$basic_string@DU?$char_traits@D@std@@V?$allocator@D@2@@std@@@2@@property_tree@boost@@@std@@@2@@234@@detail@multi_index@boost@@@detail@multi_index@4@Uuse_default@iterators@4@U894@U894@U894@@iterators@boost@@QEAA@AEBV?$bidir_node_iterator@U?$ordered_index_node@Unull_augment_policy@detail@multi_index@boost@@U?$index_node_base@U?$pair@$$CBV?$basic_string@DU?$char_traits@D@std@@V?$allocator@D@2@@std@@V?$basic_ptree@V?$basic_string@DU?$char_traits@D@std@@V?$allocator@D@2@@std@@V12@U?$less@V?$basic_string@DU?$char_traits@D@std@@V?$allocator@D@2@@std@@@2@@property_tree@boost@@@std@@V?$allocator@U?$pair@$$CBV?$basic_string@DU?$char_traits@D@std@@V?$allocator@D@2@@std@@V?$basic_ptree@V?$basic_string@DU?$char_traits@D@std@@V?$allocator@D@2@@std@@V12@U?$less@V?$basic_string@DU?$char_traits@D@std@@V?$allocator@D@2@@std@@@2@@property_tree@boost@@@std@@@2@@234@@detail@multi_index@boost@@@detail@multi_index@2@@Z
	??0?$iterator_adaptor@Viterator@?$basic_ptree@V?$basic_string@DU?$char_traits@D@std@@V?$allocator@D@2@@std@@V12@U?$less@V?$basic_string@DU?$char_traits@D@std@@V?$allocator@D@2@@std@@@2@@property_tree@boost@@V?$bidir_node_iterator@U?$sequenced_index_node@U?$ordered_index_node@Unull_augment_policy@detail@multi_index@boost@@U?$index_node_base@U?$pair@$$CBV?$basic_string@DU?$char_traits@D@std@@V?$allocator@D@2@@std@@V?$basic_ptree@V?$basic_string@DU?$char_traits@D@std@@V?$allocator@D@2@@std@@V12@U?$less@V?$basic_string@DU?$char_traits@D@std@@V?$allocator@D@2@@std@@@2@@property_tree@boost@@@std@@V?$allocator@U?$pair@$$CBV?$basic_string@DU?$char_traits@D@std@@V?$allocator@D@2@@std@@V?$basic_ptree@V?$basic_string@DU?$char_traits@D@std@@V?$allocator@D@2@@std@@V12@U?$less@V?$basic_string@DU?$char_traits@D@std@@V?$allocator@D@2@@std@@@2@@property_tree@boost@@@std@@@2@@234@@detail@multi_index@boost@@@detail@multi_index@boost@@@detail@multi_index@4@U?$pair@$$CBV?$basic_string@DU?$char_traits@D@std@@V?$allocator@D@2@@std@@V?$basic_ptree@V?$basic_string@DU?$char_traits@D@std@@V?$allocator@D@2@@std@@V12@U?$less@V?$basic_string@DU?$char_traits@D@std@@V?$allocator@D@2@@std@@@2@@property_tree@boost@@@std@@Uuse_default@iterators@4@Uuse_default@iterators@4@Uuse_default@iterators@4@@iterators@boost@@QEAA@AEBV?$bidir_node_iterator@U?$sequenced_index_node@U?$ordered_index_node@Unull_augment_policy@detail@multi_index@boost@@U?$index_node_base@U?$pair@$$CBV?$basic_string@DU?$char_traits@D@std@@V?$allocator@D@2@@std@@V?$basic_ptree@V?$basic_string@DU?$char_traits@D@std@@V?$allocator@D@2@@std@@V12@U?$less@V?$basic_string@DU?$char_traits@D@std@@V?$allocator@D@2@@std@@@2@@property_tree@boost@@@std@@V?$allocator@U?$pair@$$CBV?$basic_string@DU?$char_traits@D@std@@V?$allocator@D@2@@std@@V?$basic_ptree@V?$basic_string@DU?$char_traits@D@std@@V?$allocator@D@2@@std@@V12@U?$less@V?$basic_string@DU?$char_traits@D@std@@V?$allocator@D@2@@std@@@2@@property_tree@boost@@@std@@@2@@234@@detail@multi_index@boost@@@detail@multi_index@boost@@@detail@multi_index@2@@Z
	??0?$lock_guard@Vmutex@std@@@std@@QEAA@AEAVmutex@1@@Z
	??0?$logger_holder@V?$severity_logger_mt@W4level@log@cse@@@sources@v2s_mt_nt6@log@boost@@@aux@sources@v2s_mt_nt6@log@boost@@QEAA@PEBDI$$QEAV?$severity_logger_mt@W4level@log@cse@@@2345@@Z
	??0?$map@V?$basic_string@DU?$char_traits@D@std@@V?$allocator@D@2@@std@@V?$weak_ptr@Vfmu@fmi@cse@@@2@U?$less@V?$basic_string@DU?$char_traits@D@std@@V?$allocator@D@2@@std@@@2@V?$allocator@U?$pair@$$CBV?$basic_string@DU?$char_traits@D@std@@V?$allocator@D@2@@std@@V?$weak_ptr@Vfmu@fmi@cse@@@2@@std@@@2@@std@@QEAA@XZ
	??0?$map@Vpath@filesystem@std@@V?$weak_ptr@Vfmu@fmi@cse@@@3@U?$less@Vpath@filesystem@std@@@3@V?$allocator@U?$pair@$$CBVpath@filesystem@std@@V?$weak_ptr@Vfmu@fmi@cse@@@3@@std@@@3@@std@@QEAA@XZ
	??0?$memory_pool@D@rapidxml@detail@property_tree@boost@@QEAA@XZ
	??0?$mersenne_twister_engine@I$0CA@$0CHA@$0BIN@$0BP@$0JJAILANP@$0L@$0PPPPPPPP@$06$0JNCMFGIA@$0P@$0OPMGAAAA@$0BC@$0GMAHIJGF@@random@boost@@QEAA@XZ
	??0?$multi_index_container@U?$pair@$$CBV?$basic_string@DU?$char_traits@D@std@@V?$allocator@D@2@@std@@V?$basic_ptree@V?$basic_string@DU?$char_traits@D@std@@V?$allocator@D@2@@std@@V12@U?$less@V?$basic_string@DU?$char_traits@D@std@@V?$allocator@D@2@@std@@@2@@property_tree@boost@@@std@@U?$indexed_by@U?$sequenced@U?$tag@Una@mpl@boost@@U123@U123@U123@U123@U123@U123@U123@U123@U123@U123@U123@U123@U123@U123@U123@U123@U123@U123@U123@@multi_index@boost@@@multi_index@boost@@U?$ordered_non_unique@U?$tag@Uby_name@subs@?$basic_ptree@V?$basic_string@DU?$char_traits@D@std@@V?$allocator@D@2@@std@@V12@U?$less@V?$basic_string@DU?$char_traits@D@std@@V?$allocator@D@2@@std@@@2@@property_tree@boost@@Una@mpl@5@U675@U675@U675@U675@U675@U675@U675@U675@U675@U675@U675@U675@U675@U675@U675@U675@U675@U675@@multi_index@boost@@U?$member@U?$pair@$$CBV?$basic_string@DU?$char_traits@D@std@@V?$allocator@D@2@@std@@V?$basic_ptree@V?$basic_string@DU?$char_traits@D@std@@V?$allocator@D@2@@std@@V12@U?$less@V?$basic_string@DU?$char_traits@D@std@@V?$allocator@D@2@@std@@@2@@property_tree@boost@@@std@@$$CBV?$basic_string@DU?$char_traits@D@std@@V?$allocator@D@2@@2@$0A@@23@U?$less@V?$basic_string@DU?$char_traits@D@std@@V?$allocator@D@2@@std@@@std@@@23@Una@mpl@3@U563@U563@U563@U563@U563@U563@U563@U563@U563@U563@U563@U563@U563@U563@U563@U563@U563@@multi_index@boost@@V?$allocator@U?$pair@$$CBV?$basic_string@DU?$char_traits@D@std@@V?$allocator@D@2@@std@@V?$basic_ptree@V?$basic_string@DU?$char_traits@D@std@@V?$allocator@D@2@@std@@V12@U?$less@V?$basic_string@DU?$char_traits@D@std@@V?$allocator@D@2@@std@@@2@@property_tree@boost@@@std@@@2@@multi_index@boost@@QEAA@AEBU?$cons@Unull_type@tuples@boost@@U?$cons@V?$tuple@U?$member@U?$pair@$$CBV?$basic_string@DU?$char_traits@D@std@@V?$allocator@D@2@@std@@V?$basic_ptree@V?$basic_string@DU?$char_traits@D@std@@V?$allocator@D@2@@std@@V12@U?$less@V?$basic_string@DU?$char_traits@D@std@@V?$allocator@D@2@@std@@@2@@property_tree@boost@@@std@@$$CBV?$basic_string@DU?$char_traits@D@std@@V?$allocator@D@2@@2@$0A@@multi_index@boost@@U?$less@V?$basic_string@DU?$char_traits@D@std@@V?$allocator@D@2@@std@@@std@@Unull_type@tuples@3@U673@U673@U673@U673@U673@U673@U673@@tuples@boost@@Unull_type@23@@23@@tuples@2@AEBV?$allocator@U?$pair@$$CBV?$basic_string@DU?$char_traits@D@std@@V?$allocator@D@2@@std@@V?$basic_ptree@V?$basic_string@DU?$char_traits@D@std@@V?$allocator@D@2@@std@@V12@U?$less@V?$basic_string@DU?$char_traits@D@std@@V?$allocator@D@2@@std@@@2@@property_tree@boost@@@std@@@std@@@Z
	??0?$multi_index_container@U?$pair@$$CBV?$basic_string@DU?$char_traits@D@std@@V?$allocator@D@2@@std@@V?$basic_ptree@V?$basic_string@DU?$char_traits@D@std@@V?$allocator@D@2@@std@@V12@U?$less@V?$basic_string@DU?$char_traits@D@std@@V?$allocator@D@2@@std@@@2@@property_tree@boost@@@std@@U?$indexed_by@U?$sequenced@U?$tag@Una@mpl@boost@@U123@U123@U123@U123@U123@U123@U123@U123@U123@U123@U123@U123@U123@U123@U123@U123@U123@U123@U123@@multi_index@boost@@@multi_index@boost@@U?$ordered_non_unique@U?$tag@Uby_name@subs@?$basic_ptree@V?$basic_string@DU?$char_traits@D@std@@V?$allocator@D@2@@std@@V12@U?$less@V?$basic_string@DU?$char_traits@D@std@@V?$allocator@D@2@@std@@@2@@property_tree@boost@@Una@mpl@5@U675@U675@U675@U675@U675@U675@U675@U675@U675@U675@U675@U675@U675@U675@U675@U675@U675@U675@@multi_index@boost@@U?$member@U?$pair@$$CBV?$basic_string@DU?$char_traits@D@std@@V?$allocator@D@2@@std@@V?$basic_ptree@V?$basic_string@DU?$char_traits@D@std@@V?$allocator@D@2@@std@@V12@U?$less@V?$basic_string@DU?$char_traits@D@std@@V?$allocator@D@2@@std@@@2@@property_tree@boost@@@std@@$$CBV?$basic_string@DU?$char_traits@D@std@@V?$allocator@D@2@@2@$0A@@23@U?$less@V?$basic_string@DU?$char_traits@D@std@@V?$allocator@D@2@@std@@@std@@@23@Una@mpl@3@U563@U563@U563@U563@U563@U563@U563@U563@U563@U563@U563@U563@U563@U563@U563@U563@U563@@multi_index@boost@@V?$allocator@U?$pair@$$CBV?$basic_string@DU?$char_traits@D@std@@V?$allocator@D@2@@std@@V?$basic_ptree@V?$basic_string@DU?$char_traits@D@std@@V?$allocator@D@2@@std@@V12@U?$less@V?$basic_string@DU?$char_traits@D@std@@V?$allocator@D@2@@std@@@2@@property_tree@boost@@@std@@@2@@multi_index@boost@@QEAA@AEBV012@@Z
	??0?$multi_thread_model@Vlight_rw_mutex@aux@v2s_mt_nt6@log@boost@@@sources@v2s_mt_nt6@log@boost@@QEAA@AEBU01234@@Z
	??0?$multi_thread_model@Vlight_rw_mutex@aux@v2s_mt_nt6@log@boost@@@sources@v2s_mt_nt6@log@boost@@QEAA@XZ
	??0?$no_lock@U?$multi_thread_model@Vlight_rw_mutex@aux@v2s_mt_nt6@log@boost@@@sources@v2s_mt_nt6@log@boost@@@v2s_mt_nt6@log@boost@@QEAA@AEAU?$multi_thread_model@Vlight_rw_mutex@aux@v2s_mt_nt6@log@boost@@@sources@123@@Z
	??0?$optional@AEBV?$basic_ptree@V?$basic_string@DU?$char_traits@D@std@@V?$allocator@D@2@@std@@V12@U?$less@V?$basic_string@DU?$char_traits@D@std@@V?$allocator@D@2@@std@@@2@@property_tree@boost@@@boost@@QEAA@XZ
	??0?$optional@V?$basic_string@DU?$char_traits@D@std@@V?$allocator@D@2@@std@@@boost@@QEAA@AEBV?$basic_string@DU?$char_traits@D@std@@V?$allocator@D@2@@std@@@Z
	??0?$optional@V?$basic_string@DU?$char_traits@D@std@@V?$allocator@D@2@@std@@@boost@@QEAA@XZ
	??0?$optional_base@V?$basic_string@DU?$char_traits@D@std@@V?$allocator@D@2@@std@@@optional_detail@boost@@IEAA@AEBV?$basic_string@DU?$char_traits@D@std@@V?$allocator@D@2@@std@@@Z
	??0?$optional_base@V?$basic_string@DU?$char_traits@D@std@@V?$allocator@D@2@@std@@@optional_detail@boost@@IEAA@XZ
	??0?$ordered_index@U?$member@U?$pair@$$CBV?$basic_string@DU?$char_traits@D@std@@V?$allocator@D@2@@std@@V?$basic_ptree@V?$basic_string@DU?$char_traits@D@std@@V?$allocator@D@2@@std@@V12@U?$less@V?$basic_string@DU?$char_traits@D@std@@V?$allocator@D@2@@std@@@2@@property_tree@boost@@@std@@$$CBV?$basic_string@DU?$char_traits@D@std@@V?$allocator@D@2@@2@$0A@@multi_index@boost@@U?$less@V?$basic_string@DU?$char_traits@D@std@@V?$allocator@D@2@@std@@@std@@U?$nth_layer@$01U?$pair@$$CBV?$basic_string@DU?$char_traits@D@std@@V?$allocator@D@2@@std@@V?$basic_ptree@V?$basic_string@DU?$char_traits@D@std@@V?$allocator@D@2@@std@@V12@U?$less@V?$basic_string@DU?$char_traits@D@std@@V?$allocator@D@2@@std@@@2@@property_tree@boost@@@std@@U?$indexed_by@U?$sequenced@U?$tag@Una@mpl@boost@@U123@U123@U123@U123@U123@U123@U123@U123@U123@U123@U123@U123@U123@U123@U123@U123@U123@U123@U123@@multi_index@boost@@@multi_index@boost@@U?$ordered_non_unique@U?$tag@Uby_name@subs@?$basic_ptree@V?$basic_string@DU?$char_traits@D@std@@V?$allocator@D@2@@std@@V12@U?$less@V?$basic_string@DU?$char_traits@D@std@@V?$allocator@D@2@@std@@@2@@property_tree@boost@@Una@mpl@5@U675@U675@U675@U675@U675@U675@U675@U675@U675@U675@U675@U675@U675@U675@U675@U675@U675@U675@@multi_index@boost@@U?$member@U?$pair@$$CBV?$basic_string@DU?$char_traits@D@std@@V?$allocator@D@2@@std@@V?$basic_ptree@V?$basic_string@DU?$char_traits@D@std@@V?$allocator@D@2@@std@@V12@U?$less@V?$basic_string@DU?$char_traits@D@std@@V?$allocator@D@2@@std@@@2@@property_tree@boost@@@std@@$$CBV?$basic_string@DU?$char_traits@D@std@@V?$allocator@D@2@@2@$0A@@23@U?$less@V?$basic_string@DU?$char_traits@D@std@@V?$allocator@D@2@@std@@@std@@@23@Una@mpl@3@U563@U563@U563@U563@U563@U563@U563@U563@U563@U563@U563@U563@U563@U563@U563@U563@U563@@multi_index@boost@@V?$allocator@U?$pair@$$CBV?$basic_string@DU?$char_traits@D@std@@V?$allocator@D@2@@std@@V?$basic_ptree@V?$basic_string@DU?$char_traits@D@std@@V?$allocator@D@2@@std@@V12@U?$less@V?$basic_string@DU?$char_traits@D@std@@V?$allocator@D@2@@std@@@2@@property_tree@boost@@@std@@@2@@detail@23@U?$vector1@Uby_name@subs@?$basic_ptree@V?$basic_string@DU?$char_traits@D@std@@V?$allocator@D@2@@std@@V12@U?$less@V?$basic_string@DU?$char_traits@D@std@@V?$allocator@D@2@@std@@@2@@property_tree@boost@@@mpl@3@Uordered_non_unique_tag@723@Unull_augment_policy@723@@detail@multi_index@boost@@IEAA@AEBU?$cons@V?$tuple@U?$member@U?$pair@$$CBV?$basic_string@DU?$char_traits@D@std@@V?$allocator@D@2@@std@@V?$basic_ptree@V?$basic_string@DU?$char_traits@D@std@@V?$allocator@D@2@@std@@V12@U?$less@V?$basic_string@DU?$char_traits@D@std@@V?$allocator@D@2@@std@@@2@@property_tree@boost@@@std@@$$CBV?$basic_string@DU?$char_traits@D@std@@V?$allocator@D@2@@2@$0A@@multi_index@boost@@U?$less@V?$basic_string@DU?$char_traits@D@std@@V?$allocator@D@2@@std@@@std@@Unull_type@tuples@3@U673@U673@U673@U673@U673@U673@U673@@tuples@boost@@Unull_type@23@@tuples@3@AEBV?$allocator@U?$pair@$$CBV?$basic_string@DU?$char_traits@D@std@@V?$allocator@D@2@@std@@V?$basic_ptree@V?$basic_string@DU?$char_traits@D@std@@V?$allocator@D@2@@std@@V12@U?$less@V?$basic_string@DU?$char_traits@D@std@@V?$allocator@D@2@@std@@@2@@property_tree@boost@@@std@@@std@@@Z
	??0?$ordered_index@U?$member@U?$pair@$$CBV?$basic_string@DU?$char_traits@D@std@@V?$allocator@D@2@@std@@V?$basic_ptree@V?$basic_string@DU?$char_traits@D@std@@V?$allocator@D@2@@std@@V12@U?$less@V?$basic_string@DU?$char_traits@D@std@@V?$allocator@D@2@@std@@@2@@property_tree@boost@@@std@@$$CBV?$basic_string@DU?$char_traits@D@std@@V?$allocator@D@2@@2@$0A@@multi_index@boost@@U?$less@V?$basic_string@DU?$char_traits@D@std@@V?$allocator@D@2@@std@@@std@@U?$nth_layer@$01U?$pair@$$CBV?$basic_string@DU?$char_traits@D@std@@V?$allocator@D@2@@std@@V?$basic_ptree@V?$basic_string@DU?$char_traits@D@std@@V?$allocator@D@2@@std@@V12@U?$less@V?$basic_string@DU?$char_traits@D@std@@V?$allocator@D@2@@std@@@2@@property_tree@boost@@@std@@U?$indexed_by@U?$sequenced@U?$tag@Una@mpl@boost@@U123@U123@U123@U123@U123@U123@U123@U123@U123@U123@U123@U123@U123@U123@U123@U123@U123@U123@U123@@multi_index@boost@@@multi_index@boost@@U?$ordered_non_unique@U?$tag@Uby_name@subs@?$basic_ptree@V?$basic_string@DU?$char_traits@D@std@@V?$allocator@D@2@@std@@V12@U?$less@V?$basic_string@DU?$char_traits@D@std@@V?$allocator@D@2@@std@@@2@@property_tree@boost@@Una@mpl@5@U675@U675@U675@U675@U675@U675@U675@U675@U675@U675@U675@U675@U675@U675@U675@U675@U675@U675@@multi_index@boost@@U?$member@U?$pair@$$CBV?$basic_string@DU?$char_traits@D@std@@V?$allocator@D@2@@std@@V?$basic_ptree@V?$basic_string@DU?$char_traits@D@std@@V?$allocator@D@2@@std@@V12@U?$less@V?$basic_string@DU?$char_traits@D@std@@V?$allocator@D@2@@std@@@2@@property_tree@boost@@@std@@$$CBV?$basic_string@DU?$char_traits@D@std@@V?$allocator@D@2@@2@$0A@@23@U?$less@V?$basic_string@DU?$char_traits@D@std@@V?$allocator@D@2@@std@@@std@@@23@Una@mpl@3@U563@U563@U563@U563@U563@U563@U563@U563@U563@U563@U563@U563@U563@U563@U563@U563@U563@@multi_index@boost@@V?$allocator@U?$pair@$$CBV?$basic_string@DU?$char_traits@D@std@@V?$allocator@D@2@@std@@V?$basic_ptree@V?$basic_string@DU?$char_traits@D@std@@V?$allocator@D@2@@std@@V12@U?$less@V?$basic_string@DU?$char_traits@D@std@@V?$allocator@D@2@@std@@@2@@property_tree@boost@@@std@@@2@@detail@23@U?$vector1@Uby_name@subs@?$basic_ptree@V?$basic_string@DU?$char_traits@D@std@@V?$allocator@D@2@@std@@V12@U?$less@V?$basic_string@DU?$char_traits@D@std@@V?$allocator@D@2@@std@@@2@@property_tree@boost@@@mpl@3@Uordered_non_unique_tag@723@Unull_augment_policy@723@@detail@multi_index@boost@@IEAA@AEBV0123@@Z
	??0?$ordered_index_impl@U?$member@U?$pair@$$CBV?$basic_string@DU?$char_traits@D@std@@V?$allocator@D@2@@std@@V?$basic_ptree@V?$basic_string@DU?$char_traits@D@std@@V?$allocator@D@2@@std@@V12@U?$less@V?$basic_string@DU?$char_traits@D@std@@V?$allocator@D@2@@std@@@2@@property_tree@boost@@@std@@$$CBV?$basic_string@DU?$char_traits@D@std@@V?$allocator@D@2@@2@$0A@@multi_index@boost@@U?$less@V?$basic_string@DU?$char_traits@D@std@@V?$allocator@D@2@@std@@@std@@U?$nth_layer@$01U?$pair@$$CBV?$basic_string@DU?$char_traits@D@std@@V?$allocator@D@2@@std@@V?$basic_ptree@V?$basic_string@DU?$char_traits@D@std@@V?$allocator@D@2@@std@@V12@U?$less@V?$basic_string@DU?$char_traits@D@std@@V?$allocator@D@2@@std@@@2@@property_tree@boost@@@std@@U?$indexed_by@U?$sequenced@U?$tag@Una@mpl@boost@@U123@U123@U123@U123@U123@U123@U123@U123@U123@U123@U123@U123@U123@U123@U123@U123@U123@U123@U123@@multi_index@boost@@@multi_index@boost@@U?$ordered_non_unique@U?$tag@Uby_name@subs@?$basic_ptree@V?$basic_string@DU?$char_traits@D@std@@V?$allocator@D@2@@std@@V12@U?$less@V?$basic_string@DU?$char_traits@D@std@@V?$allocator@D@2@@std@@@2@@property_tree@boost@@Una@mpl@5@U675@U675@U675@U675@U675@U675@U675@U675@U675@U675@U675@U675@U675@U675@U675@U675@U675@U675@@multi_index@boost@@U?$member@U?$pair@$$CBV?$basic_string@DU?$char_traits@D@std@@V?$allocator@D@2@@std@@V?$basic_ptree@V?$basic_string@DU?$char_traits@D@std@@V?$allocator@D@2@@std@@V12@U?$less@V?$basic_string@DU?$char_traits@D@std@@V?$allocator@D@2@@std@@@2@@property_tree@boost@@@std@@$$CBV?$basic_string@DU?$char_traits@D@std@@V?$allocator@D@2@@2@$0A@@23@U?$less@V?$basic_string@DU?$char_traits@D@std@@V?$allocator@D@2@@std@@@std@@@23@Una@mpl@3@U563@U563@U563@U563@U563@U563@U563@U563@U563@U563@U563@U563@U563@U563@U563@U563@U563@@multi_index@boost@@V?$allocator@U?$pair@$$CBV?$basic_string@DU?$char_traits@D@std@@V?$allocator@D@2@@std@@V?$basic_ptree@V?$basic_string@DU?$char_traits@D@std@@V?$allocator@D@2@@std@@V12@U?$less@V?$basic_string@DU?$char_traits@D@std@@V?$allocator@D@2@@std@@@2@@property_tree@boost@@@std@@@2@@detail@23@U?$vector1@Uby_name@subs@?$basic_ptree@V?$basic_string@DU?$char_traits@D@std@@V?$allocator@D@2@@std@@V12@U?$less@V?$basic_string@DU?$char_traits@D@std@@V?$allocator@D@2@@std@@@2@@property_tree@boost@@@mpl@3@Uordered_non_unique_tag@723@Unull_augment_policy@723@@detail@multi_index@boost@@IEAA@AEBU?$cons@V?$tuple@U?$member@U?$pair@$$CBV?$basic_string@DU?$char_traits@D@std@@V?$allocator@D@2@@std@@V?$basic_ptree@V?$basic_string@DU?$char_traits@D@std@@V?$allocator@D@2@@std@@V12@U?$less@V?$basic_string@DU?$char_traits@D@std@@V?$allocator@D@2@@std@@@2@@property_tree@boost@@@std@@$$CBV?$basic_string@DU?$char_traits@D@std@@V?$allocator@D@2@@2@$0A@@multi_index@boost@@U?$less@V?$basic_string@DU?$char_traits@D@std@@V?$allocator@D@2@@std@@@std@@Unull_type@tuples@3@U673@U673@U673@U673@U673@U673@U673@@tuples@boost@@Unull_type@23@@tuples@3@AEBV?$allocator@U?$pair@$$CBV?$basic_string@DU?$char_traits@D@std@@V?$allocator@D@2@@std@@V?$basic_ptree@V?$basic_string@DU?$char_traits@D@std@@V?$allocator@D@2@@std@@V12@U?$less@V?$basic_string@DU?$char_traits@D@std@@V?$allocator@D@2@@std@@@2@@property_tree@boost@@@std@@@std@@@Z
	??0?$ordered_index_impl@U?$member@U?$pair@$$CBV?$basic_string@DU?$char_traits@D@std@@V?$allocator@D@2@@std@@V?$basic_ptree@V?$basic_string@DU?$char_traits@D@std@@V?$allocator@D@2@@std@@V12@U?$less@V?$basic_string@DU?$char_traits@D@std@@V?$allocator@D@2@@std@@@2@@property_tree@boost@@@std@@$$CBV?$basic_string@DU?$char_traits@D@std@@V?$allocator@D@2@@2@$0A@@multi_index@boost@@U?$less@V?$basic_string@DU?$char_traits@D@std@@V?$allocator@D@2@@std@@@std@@U?$nth_layer@$01U?$pair@$$CBV?$basic_string@DU?$char_traits@D@std@@V?$allocator@D@2@@std@@V?$basic_ptree@V?$basic_string@DU?$char_traits@D@std@@V?$allocator@D@2@@std@@V12@U?$less@V?$basic_string@DU?$char_traits@D@std@@V?$allocator@D@2@@std@@@2@@property_tree@boost@@@std@@U?$indexed_by@U?$sequenced@U?$tag@Una@mpl@boost@@U123@U123@U123@U123@U123@U123@U123@U123@U123@U123@U123@U123@U123@U123@U123@U123@U123@U123@U123@@multi_index@boost@@@multi_index@boost@@U?$ordered_non_unique@U?$tag@Uby_name@subs@?$basic_ptree@V?$basic_string@DU?$char_traits@D@std@@V?$allocator@D@2@@std@@V12@U?$less@V?$basic_string@DU?$char_traits@D@std@@V?$allocator@D@2@@std@@@2@@property_tree@boost@@Una@mpl@5@U675@U675@U675@U675@U675@U675@U675@U675@U675@U675@U675@U675@U675@U675@U675@U675@U675@U675@@multi_index@boost@@U?$member@U?$pair@$$CBV?$basic_string@DU?$char_traits@D@std@@V?$allocator@D@2@@std@@V?$basic_ptree@V?$basic_string@DU?$char_traits@D@std@@V?$allocator@D@2@@std@@V12@U?$less@V?$basic_string@DU?$char_traits@D@std@@V?$allocator@D@2@@std@@@2@@property_tree@boost@@@std@@$$CBV?$basic_string@DU?$char_traits@D@std@@V?$allocator@D@2@@2@$0A@@23@U?$less@V?$basic_string@DU?$char_traits@D@std@@V?$allocator@D@2@@std@@@std@@@23@Una@mpl@3@U563@U563@U563@U563@U563@U563@U563@U563@U563@U563@U563@U563@U563@U563@U563@U563@U563@@multi_index@boost@@V?$allocator@U?$pair@$$CBV?$basic_string@DU?$char_traits@D@std@@V?$allocator@D@2@@std@@V?$basic_ptree@V?$basic_string@DU?$char_traits@D@std@@V?$allocator@D@2@@std@@V12@U?$less@V?$basic_string@DU?$char_traits@D@std@@V?$allocator@D@2@@std@@@2@@property_tree@boost@@@std@@@2@@detail@23@U?$vector1@Uby_name@subs@?$basic_ptree@V?$basic_string@DU?$char_traits@D@std@@V?$allocator@D@2@@std@@V12@U?$less@V?$basic_string@DU?$char_traits@D@std@@V?$allocator@D@2@@std@@@2@@property_tree@boost@@@mpl@3@Uordered_non_unique_tag@723@Unull_augment_policy@723@@detail@multi_index@boost@@IEAA@AEBV0123@@Z
	??0?$pair@$$CBV?$basic_string@DU?$char_traits@D@std@@V?$allocator@D@2@@std@@V?$basic_ptree@V?$basic_string@DU?$char_traits@D@std@@V?$allocator@D@2@@std@@V12@U?$less@V?$basic_string@DU?$char_traits@D@std@@V?$allocator@D@2@@std@@@2@@property_tree@boost@@@std@@QEAA@AEBU01@@Z
	??0?$postfix_increment_proxy@V?$generator_iterator@Vseed_rng@detail@uuids@boost@@@detail@uuids@boost@@@detail@iterators@boost@@QEAA@AEBV?$generator_iterator@Vseed_rng@detail@uuids@boost@@@1uuids@3@@Z
	??0?$record_pump@V?$severity_logger_mt@W4level@log@cse@@@sources@v2s_mt_nt6@log@boost@@@aux@v2s_mt_nt6@log@boost@@QEAA@AEAV?$severity_logger_mt@W4level@log@cse@@@sources@234@AEAVrecord@234@@Z
	??0?$refcount_ptr@Uerror_info_container@exception_detail@boost@@@exception_detail@boost@@QEAA@AEBV012@@Z
	??0?$refcount_ptr@Uerror_info_container@exception_detail@boost@@@exception_detail@boost@@QEAA@XZ
	??0?$sequenced_index@U?$nth_layer@$00U?$pair@$$CBV?$basic_string@DU?$char_traits@D@std@@V?$allocator@D@2@@std@@V?$basic_ptree@V?$basic_string@DU?$char_traits@D@std@@V?$allocator@D@2@@std@@V12@U?$less@V?$basic_string@DU?$char_traits@D@std@@V?$allocator@D@2@@std@@@2@@property_tree@boost@@@std@@U?$indexed_by@U?$sequenced@U?$tag@Una@mpl@boost@@U123@U123@U123@U123@U123@U123@U123@U123@U123@U123@U123@U123@U123@U123@U123@U123@U123@U123@U123@@multi_index@boost@@@multi_index@boost@@U?$ordered_non_unique@U?$tag@Uby_name@subs@?$basic_ptree@V?$basic_string@DU?$char_traits@D@std@@V?$allocator@D@2@@std@@V12@U?$less@V?$basic_string@DU?$char_traits@D@std@@V?$allocator@D@2@@std@@@2@@property_tree@boost@@Una@mpl@5@U675@U675@U675@U675@U675@U675@U675@U675@U675@U675@U675@U675@U675@U675@U675@U675@U675@U675@@multi_index@boost@@U?$member@U?$pair@$$CBV?$basic_string@DU?$char_traits@D@std@@V?$allocator@D@2@@std@@V?$basic_ptree@V?$basic_string@DU?$char_traits@D@std@@V?$allocator@D@2@@std@@V12@U?$less@V?$basic_string@DU?$char_traits@D@std@@V?$allocator@D@2@@std@@@2@@property_tree@boost@@@std@@$$CBV?$basic_string@DU?$char_traits@D@std@@V?$allocator@D@2@@2@$0A@@23@U?$less@V?$basic_string@DU?$char_traits@D@std@@V?$allocator@D@2@@std@@@std@@@23@Una@mpl@3@U563@U563@U563@U563@U563@U563@U563@U563@U563@U563@U563@U563@U563@U563@U563@U563@U563@@multi_index@boost@@V?$allocator@U?$pair@$$CBV?$basic_string@DU?$char_traits@D@std@@V?$allocator@D@2@@std@@V?$basic_ptree@V?$basic_string@DU?$char_traits@D@std@@V?$allocator@D@2@@std@@V12@U?$less@V?$basic_string@DU?$char_traits@D@std@@V?$allocator@D@2@@std@@@2@@property_tree@boost@@@std@@@2@@detail@multi_index@boost@@U?$vector0@Una@mpl@boost@@@mpl@4@@detail@multi_index@boost@@IEAA@AEBU?$cons@Unull_type@tuples@boost@@U?$cons@V?$tuple@U?$member@U?$pair@$$CBV?$basic_string@DU?$char_traits@D@std@@V?$allocator@D@2@@std@@V?$basic_ptree@V?$basic_string@DU?$char_traits@D@std@@V?$allocator@D@2@@std@@V12@U?$less@V?$basic_string@DU?$char_traits@D@std@@V?$allocator@D@2@@std@@@2@@property_tree@boost@@@std@@$$CBV?$basic_string@DU?$char_traits@D@std@@V?$allocator@D@2@@2@$0A@@multi_index@boost@@U?$less@V?$basic_string@DU?$char_traits@D@std@@V?$allocator@D@2@@std@@@std@@Unull_type@tuples@3@U673@U673@U673@U673@U673@U673@U673@@tuples@boost@@Unull_type@23@@23@@tuples@3@AEBV?$allocator@U?$pair@$$CBV?$basic_string@DU?$char_traits@D@std@@V?$allocator@D@2@@std@@V?$basic_ptree@V?$basic_string@DU?$char_traits@D@std@@V?$allocator@D@2@@std@@V12@U?$less@V?$basic_string@DU?$char_traits@D@std@@V?$allocator@D@2@@std@@@2@@property_tree@boost@@@std@@@std@@@Z
	??0?$sequenced_index@U?$nth_layer@$00U?$pair@$$CBV?$basic_string@DU?$char_traits@D@std@@V?$allocator@D@2@@std@@V?$basic_ptree@V?$basic_string@DU?$char_traits@D@std@@V?$allocator@D@2@@std@@V12@U?$less@V?$basic_string@DU?$char_traits@D@std@@V?$allocator@D@2@@std@@@2@@property_tree@boost@@@std@@U?$indexed_by@U?$sequenced@U?$tag@Una@mpl@boost@@U123@U123@U123@U123@U123@U123@U123@U123@U123@U123@U123@U123@U123@U123@U123@U123@U123@U123@U123@@multi_index@boost@@@multi_index@boost@@U?$ordered_non_unique@U?$tag@Uby_name@subs@?$basic_ptree@V?$basic_string@DU?$char_traits@D@std@@V?$allocator@D@2@@std@@V12@U?$less@V?$basic_string@DU?$char_traits@D@std@@V?$allocator@D@2@@std@@@2@@property_tree@boost@@Una@mpl@5@U675@U675@U675@U675@U675@U675@U675@U675@U675@U675@U675@U675@U675@U675@U675@U675@U675@U675@@multi_index@boost@@U?$member@U?$pair@$$CBV?$basic_string@DU?$char_traits@D@std@@V?$allocator@D@2@@std@@V?$basic_ptree@V?$basic_string@DU?$char_traits@D@std@@V?$allocator@D@2@@std@@V12@U?$less@V?$basic_string@DU?$char_traits@D@std@@V?$allocator@D@2@@std@@@2@@property_tree@boost@@@std@@$$CBV?$basic_string@DU?$char_traits@D@std@@V?$allocator@D@2@@2@$0A@@23@U?$less@V?$basic_string@DU?$char_traits@D@std@@V?$allocator@D@2@@std@@@std@@@23@Una@mpl@3@U563@U563@U563@U563@U563@U563@U563@U563@U563@U563@U563@U563@U563@U563@U563@U563@U563@@multi_index@boost@@V?$allocator@U?$pair@$$CBV?$basic_string@DU?$char_traits@D@std@@V?$allocator@D@2@@std@@V?$basic_ptree@V?$basic_string@DU?$char_traits@D@std@@V?$allocator@D@2@@std@@V12@U?$less@V?$basic_string@DU?$char_traits@D@std@@V?$allocator@D@2@@std@@@2@@property_tree@boost@@@std@@@2@@detail@multi_index@boost@@U?$vector0@Una@mpl@boost@@@mpl@4@@detail@multi_index@boost@@IEAA@AEBV0123@@Z
	??0?$severity_level@W4level@log@cse@@@aux@sources@v2s_mt_nt6@log@boost@@QEAA@$$QEAV012345@@Z
	??0?$severity_level@W4level@log@cse@@@aux@sources@v2s_mt_nt6@log@boost@@QEAA@XZ
	??0?$severity_logger_mt@W4level@log@cse@@@sources@v2s_mt_nt6@log@boost@@QEAA@$$QEAV01234@@Z
	??0?$severity_logger_mt@W4level@log@cse@@@sources@v2s_mt_nt6@log@boost@@QEAA@XZ
	??0?$shared_lock_guard@U?$multi_thread_model@Vlight_rw_mutex@aux@v2s_mt_nt6@log@boost@@@sources@v2s_mt_nt6@log@boost@@@aux@v2s_mt_nt6@log@boost@@QEAA@AEAU?$multi_thread_model@Vlight_rw_mutex@aux@v2s_mt_nt6@log@boost@@@sources@234@@Z
	??0?$shared_ptr@U?$logger_holder@V?$severity_logger_mt@W4level@log@cse@@@sources@v2s_mt_nt6@log@boost@@@aux@sources@v2s_mt_nt6@log@boost@@@boost@@QEAA@$$QEAV01@@Z
	??0?$shared_ptr@U?$logger_holder@V?$severity_logger_mt@W4level@log@cse@@@sources@v2s_mt_nt6@log@boost@@@aux@sources@v2s_mt_nt6@log@boost@@@boost@@QEAA@XZ
	??0?$shared_ptr@U_Dir_enum_impl@filesystem@std@@@std@@QEAA@$$QEAV01@@Z
	??0?$shared_ptr@U_Dir_enum_impl@filesystem@std@@@std@@QEAA@XZ
	??0?$shared_ptr@Vcore@v2s_mt_nt6@log@boost@@@boost@@QEAA@XZ
	??0?$shared_ptr@Vfmu@fmi@cse@@@std@@QEAA@$$QEAV01@@Z
	??0?$shared_ptr@Vfmu@fmi@cse@@@std@@QEAA@XZ
	??0?$shared_ptr@Vfmu@v1@fmi@cse@@@std@@QEAA@AEBV01@@Z
	??0?$shared_ptr@Vfmu@v2@fmi@cse@@@std@@QEAA@AEBV01@@Z
	??0?$shared_ptr@Vimporter@fmi@cse@@@std@@QEAA@AEBV01@@Z
	??0?$shared_ptr@Vslave_instance@v1@fmi@cse@@@std@@QEAA@$$QEAV01@@Z
	??0?$shared_ptr@Vslave_instance@v2@fmi@cse@@@std@@QEAA@$$QEAV01@@Z
	??0?$sp_counted_impl_p@V?$mersenne_twister_engine@I$0CA@$0CHA@$0BIN@$0BP@$0JJAILANP@$0L@$0PPPPPPPP@$06$0JNCMFGIA@$0P@$0OPMGAAAA@$0BC@$0GMAHIJGF@@random@boost@@@detail@boost@@QEAA@PEAV?$mersenne_twister_engine@I$0CA@$0CHA@$0BIN@$0BP@$0JJAILANP@$0L@$0PPPPPPPP@$06$0JNCMFGIA@$0P@$0OPMGAAAA@$0BC@$0GMAHIJGF@@random@2@@Z
	??0?$sp_counted_impl_pd@PEAU?$logger_holder@V?$severity_logger_mt@W4level@log@cse@@@sources@v2s_mt_nt6@log@boost@@@aux@sources@v2s_mt_nt6@log@boost@@V?$sp_ms_deleter@U?$logger_holder@V?$severity_logger_mt@W4level@log@cse@@@sources@v2s_mt_nt6@log@boost@@@aux@sources@v2s_mt_nt6@log@boost@@@detail@6@@detail@boost@@QEAA@PEAU?$logger_holder@V?$severity_logger_mt@W4level@log@cse@@@sources@v2s_mt_nt6@log@boost@@@aux@sources@v2s_mt_nt6@log@2@@Z
	??0?$sp_ms_deleter@U?$logger_holder@V?$severity_logger_mt@W4level@log@cse@@@sources@v2s_mt_nt6@log@boost@@@aux@sources@v2s_mt_nt6@log@boost@@@detail@boost@@QEAA@XZ
	??0?$string_path@V?$basic_string@DU?$char_traits@D@std@@V?$allocator@D@2@@std@@U?$id_translator@V?$basic_string@DU?$char_traits@D@std@@V?$allocator@D@2@@std@@@property_tree@boost@@@property_tree@boost@@QEAA@AEBV012@@Z
	??0?$string_path@V?$basic_string@DU?$char_traits@D@std@@V?$allocator@D@2@@std@@U?$id_translator@V?$basic_string@DU?$char_traits@D@std@@V?$allocator@D@2@@std@@@property_tree@boost@@@property_tree@boost@@QEAA@PEBDDU?$id_translator@V?$basic_string@DU?$char_traits@D@std@@V?$allocator@D@2@@std@@@12@@Z
	??0?$tagged_argument@Useverity@tag@keywords@v2s_mt_nt6@log@boost@@$$CBW4level@5cse@@@aux@parameter@boost@@QEAA@AEBW4level@log@cse@@@Z
	??0?$tagged_argument@Useverity@tag@keywords@v2s_mt_nt6@log@boost@@W4level@5cse@@@aux@parameter@boost@@QEAA@AEAW4level@log@cse@@@Z
	??0?$time_point@U_File_time_clock@filesystem@std@@V?$duration@_JU?$ratio@$00$0JIJGIA@@std@@@chrono@3@@chrono@std@@QEAA@AEBV?$duration@_JU?$ratio@$00$0JIJGIA@@std@@@12@@Z
	??0?$time_point@U_File_time_clock@filesystem@std@@V?$duration@_JU?$ratio@$00$0JIJGIA@@std@@@chrono@3@@chrono@std@@QEAA@XZ
	??0?$tuple@$$QEAV?$basic_string@DU?$char_traits@D@std@@V?$allocator@D@2@@std@@@std@@QEAA@$$QEAV01@@Z
	??0?$tuple@$$V@std@@QEAA@AEBV01@@Z
	??0?$tuple@$$V@std@@QEAA@XZ
	??0?$tuple@AEBV?$basic_string@DU?$char_traits@D@std@@V?$allocator@D@2@@std@@@std@@QEAA@$$QEAV01@@Z
	??0?$tuple@AEBVpath@filesystem@std@@@std@@QEAA@$$QEAV01@@Z
	??0?$tuple@U?$member@U?$pair@$$CBV?$basic_string@DU?$char_traits@D@std@@V?$allocator@D@2@@std@@V?$basic_ptree@V?$basic_string@DU?$char_traits@D@std@@V?$allocator@D@2@@std@@V12@U?$less@V?$basic_string@DU?$char_traits@D@std@@V?$allocator@D@2@@std@@@2@@property_tree@boost@@@std@@$$CBV?$basic_string@DU?$char_traits@D@std@@V?$allocator@D@2@@2@$0A@@multi_index@boost@@U?$less@V?$basic_string@DU?$char_traits@D@std@@V?$allocator@D@2@@std@@@std@@Unull_type@tuples@3@U673@U673@U673@U673@U673@U673@U673@@tuples@boost@@QEAA@XZ
	??0?$uniform_int@K@boost@@QEAA@KK@Z
	??0?$uniform_int_distribution@K@random@boost@@QEAA@KK@Z
	??0?$unique_ptr@Uevent@@P6AXPEAU1@@Z@std@@QEAA@$$QEAV01@@Z
	??0?$unique_ptr@Uevent_base@@P6AXPEAU1@@Z@std@@QEAA@$$QEAV01@@Z
	??0?$unique_ptr@Ujm_callbacks@@U?$default_delete@Ujm_callbacks@@@std@@@std@@QEAA@$$QEAV01@@Z
	??0?$variate_generator@PEAV?$mersenne_twister_engine@I$0CA@$0CHA@$0BIN@$0BP@$0JJAILANP@$0L@$0PPPPPPPP@$06$0JNCMFGIA@$0P@$0OPMGAAAA@$0BC@$0GMAHIJGF@@random@boost@@V?$uniform_int@K@3@@random@boost@@QEAA@PEAV?$mersenne_twister_engine@I$0CA@$0CHA@$0BIN@$0BP@$0JJAILANP@$0L@$0PPPPPPPP@$06$0JNCMFGIA@$0P@$0OPMGAAAA@$0BC@$0GMAHIJGF@@12@V?$uniform_int@K@2@@Z
	??0?$vector@DV?$allocator@D@std@@@std@@QEAA@_KAEBV?$allocator@D@1@@Z
	??0?$vector@HV?$allocator@H@std@@@std@@QEAA@_KAEBV?$allocator@H@1@@Z
	??0?$vector@PEBDV?$allocator@PEBD@std@@@std@@QEAA@_KAEBV?$allocator@PEBD@1@@Z
	??0?$vector@Uvariable_description@cse@@V?$allocator@Uvariable_description@cse@@@std@@@std@@QEAA@AEBV01@@Z
	??0?$vector@Uvariable_description@cse@@V?$allocator@Uvariable_description@cse@@@std@@@std@@QEAA@XZ
	??0?$vector@V?$weak_ptr@Vslave_instance@v1@fmi@cse@@@std@@V?$allocator@V?$weak_ptr@Vslave_instance@v1@fmi@cse@@@std@@@2@@std@@QEAA@XZ
	??0?$vector@V?$weak_ptr@Vslave_instance@v2@fmi@cse@@@std@@V?$allocator@V?$weak_ptr@Vslave_instance@v2@fmi@cse@@@std@@@2@@std@@QEAA@XZ
	??0?$weak_ptr@Vfmu@fmi@cse@@@std@@QEAA@XZ
	??0?$weak_ptr@Vfmu@v1@fmi@cse@@@std@@QEAA@XZ
	??0?$weak_ptr@Vfmu@v2@fmi@cse@@@std@@QEAA@XZ
	??0?$weak_ptr@Vimporter@fmi@cse@@@std@@QEAA@XZ
	??0?$weak_ptr@Vslave_instance@v1@fmi@cse@@@std@@QEAA@$$QEAV01@@Z
	??0?$weak_ptr@Vslave_instance@v2@fmi@cse@@@std@@QEAA@$$QEAV01@@Z
	??0?$xml_attribute@D@rapidxml@detail@property_tree@boost@@QEAA@XZ
	??0?$xml_base@D@rapidxml@detail@property_tree@boost@@QEAA@XZ
	??0?$xml_document@D@rapidxml@detail@property_tree@boost@@QEAA@XZ
	??0?$xml_node@D@rapidxml@detail@property_tree@boost@@QEAA@W4node_type@1234@@Z
	??0_Bxty@?$_String_val@U?$_Simple_types@D@std@@@std@@QEAA@XZ
	??0_Bxty@?$_String_val@U?$_Simple_types@_W@std@@@std@@QEAA@XZ
	??0_Container_base12@std@@QEAA@XZ
	??0_Container_proxy@std@@QEAA@XZ
	??0_Creator@_Dir_enum_impl@filesystem@std@@QEAA@AEBVpath@23@W4directory_options@23@@Z
	??0_Dir_enum_impl@filesystem@std@@QEAA@$$QEAU_Creator@012@W4directory_options@12@@Z
	??0_File_status_and_error@filesystem@std@@QEAA@XZ
	??0_Find_file_handle@filesystem@std@@QEAA@$$QEAU012@@Z
	??0_Find_file_handle@filesystem@std@@QEAA@XZ
	??0_Fnv1a_hasher@std@@QEAA@XZ
	??0_Generic_error_category@std@@QEAA@XZ
	??0_Iterator_base12@std@@QEAA@AEBU01@@Z
	??0_Iterator_base12@std@@QEAA@XZ
	??0_Mutex_base@std@@QEAA@H@Z
	??0_Ref_count_base@std@@IEAA@XZ
	??0_Sentry_base@?$basic_ostream@DU?$char_traits@D@std@@@std@@QEAA@AEAV12@@Z
	??0_System_error@std@@IEAA@Verror_code@1@AEBV?$basic_string@DU?$char_traits@D@std@@V?$allocator@D@2@@1@@Z
	??0_System_error@std@@QEAA@AEBV01@@Z
	??0_System_error_category@std@@QEAA@XZ
	??0additional_path@detail@fmi@cse@@QEAA@AEBVpath@filesystem@std@@@Z
	??0any@boost@@QEAA@AEBV01@@Z
	??0archive@zip@utility@cse@@QEAA@$$QEAV0123@@Z
	??0archive@zip@utility@cse@@QEAA@AEBVpath@filesystem@std@@@Z
	??0archive@zip@utility@cse@@QEAA@XZ
	??0atomic_count@detail@boost@@QEAA@J@Z
	??0attribute@v2s_mt_nt6@log@boost@@QEAA@$$QEAV0123@@Z
	??0attribute@v2s_mt_nt6@log@boost@@QEAA@V?$intrusive_ptr@Uimpl@attribute@v2s_mt_nt6@log@boost@@@3@@Z
	??0attribute_set_reference_proxy@aux@v2s_mt_nt6@log@boost@@QEAA@PEAVattribute_set@234@AEBVattribute_name@234@@Z
	??0attribute_value@v2s_mt_nt6@log@boost@@QEAA@V?$intrusive_ptr@Uimpl@attribute_value@v2s_mt_nt6@log@boost@@@3@@Z
	??0auto_release@?$record_pump@V?$severity_logger_mt@W4level@log@cse@@@sources@v2s_mt_nt6@log@boost@@@aux@v2s_mt_nt6@log@boost@@QEAA@PEAUstream_compound@?$stream_provider@D@2345@@Z
	??0bad_alloc@std@@QEAA@AEBV01@@Z
	??0bad_alloc@std@@QEAA@XZ
	??0bad_cast@std@@QEAA@AEBV01@@Z
	??0bad_cast@std@@QEAA@XZ
	??0bad_numeric_cast@numeric@boost@@QEAA@AEBV012@@Z
	??0bad_numeric_cast@numeric@boost@@QEAA@XZ
	??0bad_weak_ptr@std@@QEAA@AEBV01@@Z
	??0bad_weak_ptr@std@@QEAA@XZ
	??0clone_base@exception_detail@boost@@QEAA@AEBV012@@Z
	??0clone_base@exception_detail@boost@@QEAA@XZ
	??0color_ref@?$ordered_index_node_compressed_base@Unull_augment_policy@detail@multi_index@boost@@V?$allocator@D@std@@@detail@multi_index@boost@@QEAA@PEA_K@Z
	??0const_assoc_iterator@?$basic_ptree@V?$basic_string@DU?$char_traits@D@std@@V?$allocator@D@2@@std@@V12@U?$less@V?$basic_string@DU?$char_traits@D@std@@V?$allocator@D@2@@std@@@2@@property_tree@boost@@QEAA@V?$bidir_node_iterator@U?$ordered_index_node@Unull_augment_policy@detail@multi_index@boost@@U?$index_node_base@U?$pair@$$CBV?$basic_string@DU?$char_traits@D@std@@V?$allocator@D@2@@std@@V?$basic_ptree@V?$basic_string@DU?$char_traits@D@std@@V?$allocator@D@2@@std@@V12@U?$less@V?$basic_string@DU?$char_traits@D@std@@V?$allocator@D@2@@std@@@2@@property_tree@boost@@@std@@V?$allocator@U?$pair@$$CBV?$basic_string@DU?$char_traits@D@std@@V?$allocator@D@2@@std@@V?$basic_ptree@V?$basic_string@DU?$char_traits@D@std@@V?$allocator@D@2@@std@@V12@U?$less@V?$basic_string@DU?$char_traits@D@std@@V?$allocator@D@2@@std@@@2@@property_tree@boost@@@std@@@2@@234@@detail@multi_index@boost@@@detail@multi_index@3@@Z
	??0directory_entry@filesystem@std@@QEAA@XZ
	??0directory_iterator@filesystem@std@@QEAA@AEBVpath@12@@Z
	??0directory_iterator@filesystem@std@@QEAA@AEBVpath@12@AEAVerror_code@2@@Z
	??0directory_iterator@filesystem@std@@QEAA@XZ
	??0error@cse@@QEAA@AEBV01@@Z
	??0error@cse@@QEAA@Verror_code@std@@AEBV?$basic_string@DU?$char_traits@D@std@@V?$allocator@D@2@@3@@Z
	??0error@zip@utility@cse@@QEAA@AEBV0123@@Z
	??0error@zip@utility@cse@@QEAA@AEBV?$basic_string@DU?$char_traits@D@std@@V?$allocator@D@2@@std@@@Z
	??0error@zip@utility@cse@@QEAA@PEAU1@@Z
	??0error@zip@utility@cse@@QEAA@PEAUzip_file@@@Z
	??0error_category@std@@QEAA@XZ
	??0error_code@std@@QEAA@HAEBVerror_category@1@@Z
	??0error_code@std@@QEAA@XZ
	??0error_condition@std@@QEAA@HAEBVerror_category@1@@Z
	??0event_loop@cse@@QEAA@XZ
	??0exception@boost@@IEAA@XZ
	??0exception@boost@@QEAA@AEBV01@@Z
	??0exception@std@@QEAA@AEBV01@@Z
	??0exception@std@@QEAA@QEBD@Z
	??0exception@std@@QEAA@QEBDH@Z
	??0exception@std@@QEAA@XZ
	??0file_parser_error@property_tree@boost@@QEAA@AEBV012@@Z
	??0file_parser_error@property_tree@boost@@QEAA@AEBV?$basic_string@DU?$char_traits@D@std@@V?$allocator@D@2@@std@@0K@Z
	??0file_status@filesystem@std@@QEAA@W4file_type@12@W4perms@12@@Z
	??0file_status@filesystem@std@@QEAA@XZ
	??0filesystem_error@filesystem@std@@QEAA@AEBV012@@Z
	??0filesystem_error@filesystem@std@@QEAA@AEBV?$basic_string@DU?$char_traits@D@std@@V?$allocator@D@2@@2@AEBVpath@12@Verror_code@2@@Z
	??0filesystem_error@filesystem@std@@QEAA@AEBV?$basic_string@DU?$char_traits@D@std@@V?$allocator@D@2@@2@Verror_code@2@@Z
	??0fmu@fmi@cse@@QEAA@XZ
	??0fmu@v1@fmi@cse@@AEAA@V?$shared_ptr@Vimporter@fmi@cse@@@std@@AEBVpath@filesystem@5@@Z
	??0fmu@v2@fmi@cse@@AEAA@V?$shared_ptr@Vimporter@fmi@cse@@@std@@AEBVpath@filesystem@5@@Z
	??0impl@?$severity_level@W4level@log@cse@@@aux@sources@v2s_mt_nt6@log@boost@@QEAA@XZ
	??0impl@attribute@v2s_mt_nt6@log@boost@@QEAA@XZ
	??0impl@attribute_value@v2s_mt_nt6@log@boost@@QEAA@XZ
	??0importer@fmi@cse@@AEAA@$$QEAVtemp_dir@utility@2@@Z
	??0importer@fmi@cse@@AEAA@AEBVpath@filesystem@std@@@Z
	??0in_place_init_if_t@optional_ns@boost@@QEAA@Uinit_tag@012@@Z
	??0in_place_init_t@optional_ns@boost@@QEAA@Uinit_tag@012@@Z
	??0invalid_argument@std@@QEAA@AEBV01@@Z
	??0invalid_argument@std@@QEAA@AEBV?$basic_string@DU?$char_traits@D@std@@V?$allocator@D@2@@1@@Z
	??0invalid_argument@std@@QEAA@PEBD@Z
	??0is_classifiedF@detail@algorithm@boost@@QEAA@AEBU0123@@Z
	??0is_classifiedF@detail@algorithm@boost@@QEAA@FAEBVlocale@std@@@Z
	??0iterator@?$basic_ptree@V?$basic_string@DU?$char_traits@D@std@@V?$allocator@D@2@@std@@V12@U?$less@V?$basic_string@DU?$char_traits@D@std@@V?$allocator@D@2@@std@@@2@@property_tree@boost@@QEAA@V?$bidir_node_iterator@U?$sequenced_index_node@U?$ordered_index_node@Unull_augment_policy@detail@multi_index@boost@@U?$index_node_base@U?$pair@$$CBV?$basic_string@DU?$char_traits@D@std@@V?$allocator@D@2@@std@@V?$basic_ptree@V?$basic_string@DU?$char_traits@D@std@@V?$allocator@D@2@@std@@V12@U?$less@V?$basic_string@DU?$char_traits@D@std@@V?$allocator@D@2@@std@@@2@@property_tree@boost@@@std@@V?$allocator@U?$pair@$$CBV?$basic_string@DU?$char_traits@D@std@@V?$allocator@D@2@@std@@V?$basic_ptree@V?$basic_string@DU?$char_traits@D@std@@V?$allocator@D@2@@std@@V12@U?$less@V?$basic_string@DU?$char_traits@D@std@@V?$allocator@D@2@@std@@@2@@property_tree@boost@@@std@@@2@@234@@detail@multi_index@boost@@@detail@multi_index@boost@@@detail@multi_index@3@@Z
	??0light_rw_mutex@aux@v2s_mt_nt6@log@boost@@QEAA@XZ
	??0link_info@?$ordered_index_impl@U?$member@U?$pair@$$CBV?$basic_string@DU?$char_traits@D@std@@V?$allocator@D@2@@std@@V?$basic_ptree@V?$basic_string@DU?$char_traits@D@std@@V?$allocator@D@2@@std@@V12@U?$less@V?$basic_string@DU?$char_traits@D@std@@V?$allocator@D@2@@std@@@2@@property_tree@boost@@@std@@$$CBV?$basic_string@DU?$char_traits@D@std@@V?$allocator@D@2@@2@$0A@@multi_index@boost@@U?$less@V?$basic_string@DU?$char_traits@D@std@@V?$allocator@D@2@@std@@@std@@U?$nth_layer@$01U?$pair@$$CBV?$basic_string@DU?$char_traits@D@std@@V?$allocator@D@2@@std@@V?$basic_ptree@V?$basic_string@DU?$char_traits@D@std@@V?$allocator@D@2@@std@@V12@U?$less@V?$basic_string@DU?$char_traits@D@std@@V?$allocator@D@2@@std@@@2@@property_tree@boost@@@std@@U?$indexed_by@U?$sequenced@U?$tag@Una@mpl@boost@@U123@U123@U123@U123@U123@U123@U123@U123@U123@U123@U123@U123@U123@U123@U123@U123@U123@U123@U123@@multi_index@boost@@@multi_index@boost@@U?$ordered_non_unique@U?$tag@Uby_name@subs@?$basic_ptree@V?$basic_string@DU?$char_traits@D@std@@V?$allocator@D@2@@std@@V12@U?$less@V?$basic_string@DU?$char_traits@D@std@@V?$allocator@D@2@@std@@@2@@property_tree@boost@@Una@mpl@5@U675@U675@U675@U675@U675@U675@U675@U675@U675@U675@U675@U675@U675@U675@U675@U675@U675@U675@@multi_index@boost@@U?$member@U?$pair@$$CBV?$basic_string@DU?$char_traits@D@std@@V?$allocator@D@2@@std@@V?$basic_ptree@V?$basic_string@DU?$char_traits@D@std@@V?$allocator@D@2@@std@@V12@U?$less@V?$basic_string@DU?$char_traits@D@std@@V?$allocator@D@2@@std@@@2@@property_tree@boost@@@std@@$$CBV?$basic_string@DU?$char_traits@D@std@@V?$allocator@D@2@@2@$0A@@23@U?$less@V?$basic_string@DU?$char_traits@D@std@@V?$allocator@D@2@@std@@@std@@@23@Una@mpl@3@U563@U563@U563@U563@U563@U563@U563@U563@U563@U563@U563@U563@U563@U563@U563@U563@U563@@multi_index@boost@@V?$allocator@U?$pair@$$CBV?$basic_string@DU?$char_traits@D@std@@V?$allocator@D@2@@std@@V?$basic_ptree@V?$basic_string@DU?$char_traits@D@std@@V?$allocator@D@2@@std@@V12@U?$less@V?$basic_string@DU?$char_traits@D@std@@V?$allocator@D@2@@std@@@2@@property_tree@boost@@@std@@@2@@detail@23@U?$vector1@Uby_name@subs@?$basic_ptree@V?$basic_string@DU?$char_traits@D@std@@V?$allocator@D@2@@std@@V12@U?$less@V?$basic_string@DU?$char_traits@D@std@@V?$allocator@D@2@@std@@@2@@property_tree@boost@@@mpl@3@Uordered_non_unique_tag@723@Unull_augment_policy@723@@detail@multi_index@boost@@QEAA@XZ
	??0locale@std@@QEAA@AEBV01@@Z
	??0locale@std@@QEAA@XZ
	??0logger_holder_base@aux@sources@v2s_mt_nt6@log@boost@@QEAA@PEBDIVstl_type_index@typeindex@5@@Z
	??0logic_error@std@@QEAA@AEBV01@@Z
	??0logic_error@std@@QEAA@PEBD@Z
	??0model_description@cse@@QEAA@AEBU01@@Z
	??0model_description@cse@@QEAA@XZ
	??0mutex@std@@QEAA@XZ
	??0negative_overflow@numeric@boost@@QEAA@AEBV012@@Z
	??0negative_overflow@numeric@boost@@QEAA@XZ
	??0none_t@boost@@QEAA@Uinit_tag@01@@Z
	??0nonfatal_bad_value@cse@@QEAA@AEBV01@@Z
	??0nonfatal_bad_value@cse@@QEAA@AEBV?$basic_string@DU?$char_traits@D@std@@V?$allocator@D@2@@std@@@Z
	??0once_block_sentry@aux@v2s_mt_nt6@log@boost@@QEAA@AEAUonce_block_flag@234@@Z
	??0parent_ref@?$ordered_index_node_compressed_base@Unull_augment_policy@detail@multi_index@boost@@V?$allocator@D@std@@@detail@multi_index@boost@@QEAA@PEA_K@Z
	??0parse_error@rapidxml@detail@property_tree@boost@@QEAA@AEBV01234@@Z
	??0parse_error@rapidxml@detail@property_tree@boost@@QEAA@PEBDPEAX@Z
	??0path@filesystem@std@@QEAA@$$QEAV012@@Z
	??0path@filesystem@std@@QEAA@AEBV012@@Z
	??0path@filesystem@std@@QEAA@XZ
	??0placeholder@any@boost@@QEAA@XZ
	??0positive_overflow@numeric@boost@@QEAA@AEBV012@@Z
	??0positive_overflow@numeric@boost@@QEAA@XZ
	??0ptree_bad_path@property_tree@boost@@QEAA@AEBV012@@Z
	??0ptree_error@property_tree@boost@@QEAA@AEBV012@@Z
	??0ptree_error@property_tree@boost@@QEAA@AEBV?$basic_string@DU?$char_traits@D@std@@V?$allocator@D@2@@std@@@Z
	??0record@v2s_mt_nt6@log@boost@@QEAA@XZ
	??0runtime_error@std@@QEAA@AEBV01@@Z
	??0runtime_error@std@@QEAA@AEBV?$basic_string@DU?$char_traits@D@std@@V?$allocator@D@2@@1@@Z
	??0runtime_error@std@@QEAA@PEBD@Z
	??0seed_rng@detail@uuids@boost@@QEAA@XZ
	??0sentry@?$basic_formatting_ostream@DU?$char_traits@D@std@@V?$allocator@D@2@@v2s_mt_nt6@log@boost@@QEAA@AEAV1234@@Z
	??0sentry@?$basic_ostream@DU?$char_traits@D@std@@@std@@QEAA@AEAV12@@Z
	??0sha1@detail@uuids@boost@@QEAA@XZ
	??0shared_count@detail@boost@@QEAA@AEBV012@@Z
	??0shared_count@detail@boost@@QEAA@XZ
	??0slave@cse@@QEAA@XZ
	??0slave_instance@fmi@cse@@QEAA@XZ
	??0slave_instance@v1@fmi@cse@@AEAA@V?$shared_ptr@Vfmu@v1@fmi@cse@@@std@@@Z
	??0slave_instance@v2@fmi@cse@@AEAA@V?$shared_ptr@Vfmu@v2@fmi@cse@@@std@@@Z
	??0socket_event@cse@@QEAA@XZ
	??0sp_counted_base@detail@boost@@QEAA@XZ
	??0stl_type_index@typeindex@boost@@QEAA@AEBVtype_info@@@Z
	??0stl_type_index@typeindex@boost@@QEAA@XZ
	??0system_error@std@@QEAA@AEBV01@@Z
	??0system_error@std@@QEAA@HAEBVerror_category@1@AEBV?$basic_string@DU?$char_traits@D@std@@V?$allocator@D@2@@1@@Z
	??0system_error@std@@QEAA@HAEBVerror_category@1@PEBD@Z
	??0system_error@std@@QEAA@Verror_code@1@@Z
	??0system_error@std@@QEAA@Verror_code@1@AEBV?$basic_string@DU?$char_traits@D@std@@V?$allocator@D@2@@1@@Z
	??0temp_dir@utility@cse@@QEAA@$$QEAV012@@Z
	??0temp_dir@utility@cse@@QEAA@AEBVpath@filesystem@std@@@Z
	??0timer_event@cse@@QEAA@XZ
	??0variable_description@cse@@QEAA@$$QEAU01@@Z
	??0variable_description@cse@@QEAA@AEBU01@@Z
	??0xml_parser_error@xml_parser@property_tree@boost@@QEAA@AEBV0123@@Z
	??0xml_parser_error@xml_parser@property_tree@boost@@QEAA@AEBV?$basic_string@DU?$char_traits@D@std@@V?$allocator@D@2@@std@@0K@Z
	??1?$_Compressed_pair@V?$allocator@D@std@@V?$_String_val@U?$_Simple_types@D@std@@@2@$00@std@@QEAA@XZ
	??1?$_Compressed_pair@V?$allocator@_W@std@@V?$_String_val@U?$_Simple_types@_W@std@@@2@$00@std@@QEAA@XZ
	??1?$_Ref_count@Vfmu@v1@fmi@cse@@@std@@UEAA@XZ
	??1?$_Ref_count@Vfmu@v2@fmi@cse@@@std@@UEAA@XZ
	??1?$_Ref_count@Vimporter@fmi@cse@@@std@@UEAA@XZ
	??1?$_Ref_count@Vslave_instance@v1@fmi@cse@@@std@@UEAA@XZ
	??1?$_Ref_count@Vslave_instance@v2@fmi@cse@@@std@@UEAA@XZ
	??1?$_Ref_count_obj@U_Dir_enum_impl@filesystem@std@@@std@@UEAA@XZ
	??1?$_String_alloc@U?$_String_base_types@DV?$allocator@D@std@@@std@@@std@@QEAA@XZ
	??1?$_String_alloc@U?$_String_base_types@_WV?$allocator@_W@std@@@std@@@std@@QEAA@XZ
	??1?$_String_const_iterator@V?$_String_val@U?$_Simple_types@D@std@@@std@@@std@@QEAA@XZ
	??1?$_String_const_iterator@V?$_String_val@U?$_Simple_types@_W@std@@@std@@@std@@QEAA@XZ
	??1?$_String_iterator@V?$_String_val@U?$_Simple_types@D@std@@@std@@@std@@QEAA@XZ
	??1?$_String_iterator@V?$_String_val@U?$_Simple_types@_W@std@@@std@@@std@@QEAA@XZ
	??1?$_String_val@U?$_Simple_types@D@std@@@std@@QEAA@XZ
	??1?$_String_val@U?$_Simple_types@_W@std@@@std@@QEAA@XZ
	??1?$_Tree@V?$_Tmap_traits@V?$basic_string@DU?$char_traits@D@std@@V?$allocator@D@2@@std@@V?$weak_ptr@Vfmu@fmi@cse@@@2@U?$less@V?$basic_string@DU?$char_traits@D@std@@V?$allocator@D@2@@std@@@2@V?$allocator@U?$pair@$$CBV?$basic_string@DU?$char_traits@D@std@@V?$allocator@D@2@@std@@V?$weak_ptr@Vfmu@fmi@cse@@@2@@std@@@2@$0A@@std@@@std@@QEAA@XZ
	??1?$_Tree@V?$_Tmap_traits@Vpath@filesystem@std@@V?$weak_ptr@Vfmu@fmi@cse@@@3@U?$less@Vpath@filesystem@std@@@3@V?$allocator@U?$pair@$$CBVpath@filesystem@std@@V?$weak_ptr@Vfmu@fmi@cse@@@3@@std@@@3@$0A@@std@@@std@@QEAA@XZ
	??1?$_Tree_comp_alloc@V?$_Tmap_traits@V?$basic_string@DU?$char_traits@D@std@@V?$allocator@D@2@@std@@V?$weak_ptr@Vfmu@fmi@cse@@@2@U?$less@V?$basic_string@DU?$char_traits@D@std@@V?$allocator@D@2@@std@@@2@V?$allocator@U?$pair@$$CBV?$basic_string@DU?$char_traits@D@std@@V?$allocator@D@2@@std@@V?$weak_ptr@Vfmu@fmi@cse@@@2@@std@@@2@$0A@@std@@@std@@QEAA@XZ
	??1?$_Tree_comp_alloc@V?$_Tmap_traits@Vpath@filesystem@std@@V?$weak_ptr@Vfmu@fmi@cse@@@3@U?$less@Vpath@filesystem@std@@@3@V?$allocator@U?$pair@$$CBVpath@filesystem@std@@V?$weak_ptr@Vfmu@fmi@cse@@@3@@std@@@3@$0A@@std@@@std@@QEAA@XZ
	??1?$_Tree_const_iterator@V?$_Tree_val@U?$_Tree_simple_types@U?$pair@$$CBV?$basic_string@DU?$char_traits@D@std@@V?$allocator@D@2@@std@@V?$weak_ptr@Vfmu@fmi@cse@@@2@@std@@@std@@@std@@@std@@QEAA@XZ
	??1?$_Tree_const_iterator@V?$_Tree_val@U?$_Tree_simple_types@U?$pair@$$CBVpath@filesystem@std@@V?$weak_ptr@Vfmu@fmi@cse@@@3@@std@@@std@@@std@@@std@@QEAA@XZ
	??1?$_Tree_iterator@V?$_Tree_val@U?$_Tree_simple_types@U?$pair@$$CBV?$basic_string@DU?$char_traits@D@std@@V?$allocator@D@2@@std@@V?$weak_ptr@Vfmu@fmi@cse@@@2@@std@@@std@@@std@@@std@@QEAA@XZ
	??1?$_Tree_iterator@V?$_Tree_val@U?$_Tree_simple_types@U?$pair@$$CBVpath@filesystem@std@@V?$weak_ptr@Vfmu@fmi@cse@@@3@@std@@@std@@@std@@@std@@QEAA@XZ
	??1?$_Tree_unchecked_const_iterator@V?$_Tree_val@U?$_Tree_simple_types@U?$pair@$$CBV?$basic_string@DU?$char_traits@D@std@@V?$allocator@D@2@@std@@V?$weak_ptr@Vfmu@fmi@cse@@@2@@std@@@std@@@std@@U_Iterator_base12@2@@std@@QEAA@XZ
	??1?$_Tree_unchecked_const_iterator@V?$_Tree_val@U?$_Tree_simple_types@U?$pair@$$CBVpath@filesystem@std@@V?$weak_ptr@Vfmu@fmi@cse@@@3@@std@@@std@@@std@@U_Iterator_base12@2@@std@@QEAA@XZ
	??1?$_Uninitialized_backout_al@PEAUvariable_description@cse@@V?$allocator@Uvariable_description@cse@@@std@@@std@@QEAA@XZ
	??1?$_Uninitialized_backout_al@PEAV?$weak_ptr@Vslave_instance@v1@fmi@cse@@@std@@V?$allocator@V?$weak_ptr@Vslave_instance@v1@fmi@cse@@@std@@@2@@std@@QEAA@XZ
	??1?$_Uninitialized_backout_al@PEAV?$weak_ptr@Vslave_instance@v2@fmi@cse@@@std@@V?$allocator@V?$weak_ptr@Vslave_instance@v2@fmi@cse@@@std@@@2@@std@@QEAA@XZ
	??1?$_Vector_alloc@U?$_Vec_base_types@DV?$allocator@D@std@@@std@@@std@@QEAA@XZ
	??1?$_Vector_alloc@U?$_Vec_base_types@HV?$allocator@H@std@@@std@@@std@@QEAA@XZ
	??1?$_Vector_alloc@U?$_Vec_base_types@PEBDV?$allocator@PEBD@std@@@std@@@std@@QEAA@XZ
	??1?$_Vector_alloc@U?$_Vec_base_types@Uvariable_description@cse@@V?$allocator@Uvariable_description@cse@@@std@@@std@@@std@@QEAA@XZ
	??1?$_Vector_alloc@U?$_Vec_base_types@V?$weak_ptr@Vslave_instance@v1@fmi@cse@@@std@@V?$allocator@V?$weak_ptr@Vslave_instance@v1@fmi@cse@@@std@@@2@@std@@@std@@QEAA@XZ
	??1?$_Vector_alloc@U?$_Vec_base_types@V?$weak_ptr@Vslave_instance@v2@fmi@cse@@@std@@V?$allocator@V?$weak_ptr@Vslave_instance@v2@fmi@cse@@@std@@@2@@std@@@std@@QEAA@XZ
	??1?$_Vector_const_iterator@V?$_Vector_val@U?$_Simple_types@V?$weak_ptr@Vslave_instance@v1@fmi@cse@@@std@@@std@@@std@@@std@@QEAA@XZ
	??1?$_Vector_const_iterator@V?$_Vector_val@U?$_Simple_types@V?$weak_ptr@Vslave_instance@v2@fmi@cse@@@std@@@std@@@std@@@std@@QEAA@XZ
	??1?$_Vector_iterator@V?$_Vector_val@U?$_Simple_types@V?$weak_ptr@Vslave_instance@v1@fmi@cse@@@std@@@std@@@std@@@std@@QEAA@XZ
	??1?$_Vector_iterator@V?$_Vector_val@U?$_Simple_types@V?$weak_ptr@Vslave_instance@v2@fmi@cse@@@std@@@std@@@std@@@std@@QEAA@XZ
	??1?$attribute_value_impl@W4level@log@cse@@@attributes@v2s_mt_nt6@log@boost@@UEAA@XZ
	??1?$auto_space@U?$copy_map_entry@U?$sequenced_index_node@U?$ordered_index_node@Unull_augment_policy@detail@multi_index@boost@@U?$index_node_base@U?$pair@$$CBV?$basic_string@DU?$char_traits@D@std@@V?$allocator@D@2@@std@@V?$basic_ptree@V?$basic_string@DU?$char_traits@D@std@@V?$allocator@D@2@@std@@V12@U?$less@V?$basic_string@DU?$char_traits@D@std@@V?$allocator@D@2@@std@@@2@@property_tree@boost@@@std@@V?$allocator@U?$pair@$$CBV?$basic_string@DU?$char_traits@D@std@@V?$allocator@D@2@@std@@V?$basic_ptree@V?$basic_string@DU?$char_traits@D@std@@V?$allocator@D@2@@std@@V12@U?$less@V?$basic_string@DU?$char_traits@D@std@@V?$allocator@D@2@@std@@@2@@property_tree@boost@@@std@@@2@@234@@detail@multi_index@boost@@@detail@multi_index@boost@@@detail@multi_index@boost@@V?$allocator@U?$pair@$$CBV?$basic_string@DU?$char_traits@D@std@@V?$allocator@D@2@@std@@V?$basic_ptree@V?$basic_string@DU?$char_traits@D@std@@V?$allocator@D@2@@std@@V12@U?$less@V?$basic_string@DU?$char_traits@D@std@@V?$allocator@D@2@@std@@@2@@property_tree@boost@@@std@@@std@@@detail@multi_index@boost@@QEAA@XZ
	??1?$basic_composite_logger@DV?$severity_logger_mt@W4level@log@cse@@@sources@v2s_mt_nt6@log@boost@@U?$multi_thread_model@Vlight_rw_mutex@aux@v2s_mt_nt6@log@boost@@@2345@U?$features@U?$severity@W4level@log@cse@@@sources@v2s_mt_nt6@log@boost@@@2345@@sources@v2s_mt_nt6@log@boost@@QEAA@XZ
	??1?$basic_filebuf@DU?$char_traits@D@std@@@std@@UEAA@XZ
	??1?$basic_ifstream@DU?$char_traits@D@std@@@std@@UEAA@XZ
	??1?$basic_logger@DV?$severity_logger_mt@W4level@log@cse@@@sources@v2s_mt_nt6@log@boost@@U?$multi_thread_model@Vlight_rw_mutex@aux@v2s_mt_nt6@log@boost@@@2345@@sources@v2s_mt_nt6@log@boost@@QEAA@XZ
	??1?$basic_ofstream@DU?$char_traits@D@std@@@std@@UEAA@XZ
	??1?$basic_ostringstream@DU?$char_traits@D@std@@V?$allocator@D@2@@std@@UEAA@XZ
	??1?$basic_ptree@V?$basic_string@DU?$char_traits@D@std@@V?$allocator@D@2@@std@@V12@U?$less@V?$basic_string@DU?$char_traits@D@std@@V?$allocator@D@2@@std@@@2@@property_tree@boost@@QEAA@XZ
	??1?$basic_random_generator@V?$mersenne_twister_engine@I$0CA@$0CHA@$0BIN@$0BP@$0JJAILANP@$0L@$0PPPPPPPP@$06$0JNCMFGIA@$0P@$0OPMGAAAA@$0BC@$0GMAHIJGF@@random@boost@@@uuids@boost@@QEAA@XZ
	??1?$basic_severity_logger@V?$basic_logger@DV?$severity_logger_mt@W4level@log@cse@@@sources@v2s_mt_nt6@log@boost@@U?$multi_thread_model@Vlight_rw_mutex@aux@v2s_mt_nt6@log@boost@@@2345@@sources@v2s_mt_nt6@log@boost@@W4level@4cse@@@sources@v2s_mt_nt6@log@boost@@QEAA@XZ
	??1?$basic_string@DU?$char_traits@D@std@@V?$allocator@D@2@@std@@QEAA@XZ
	??1?$basic_string@_WU?$char_traits@_W@std@@V?$allocator@_W@2@@std@@QEAA@XZ
	??1?$basic_stringbuf@DU?$char_traits@D@std@@V?$allocator@D@2@@std@@UEAA@XZ
	??1?$basic_stringstream@DU?$char_traits@D@std@@V?$allocator@D@2@@std@@UEAA@XZ
	??1?$clone_impl@U?$error_info_injector@Vinvalid_argument@std@@@exception_detail@boost@@@exception_detail@boost@@UEAA@XZ
	??1?$clone_impl@U?$error_info_injector@Vptree_bad_path@property_tree@boost@@@exception_detail@boost@@@exception_detail@boost@@UEAA@XZ
	??1?$clone_impl@U?$error_info_injector@Vruntime_error@std@@@exception_detail@boost@@@exception_detail@boost@@UEAA@XZ
	??1?$clone_impl@U?$error_info_injector@Vxml_parser_error@xml_parser@property_tree@boost@@@exception_detail@boost@@@exception_detail@boost@@UEAA@XZ
	??1?$copy_map@U?$sequenced_index_node@U?$ordered_index_node@Unull_augment_policy@detail@multi_index@boost@@U?$index_node_base@U?$pair@$$CBV?$basic_string@DU?$char_traits@D@std@@V?$allocator@D@2@@std@@V?$basic_ptree@V?$basic_string@DU?$char_traits@D@std@@V?$allocator@D@2@@std@@V12@U?$less@V?$basic_string@DU?$char_traits@D@std@@V?$allocator@D@2@@std@@@2@@property_tree@boost@@@std@@V?$allocator@U?$pair@$$CBV?$basic_string@DU?$char_traits@D@std@@V?$allocator@D@2@@std@@V?$basic_ptree@V?$basic_string@DU?$char_traits@D@std@@V?$allocator@D@2@@std@@V12@U?$less@V?$basic_string@DU?$char_traits@D@std@@V?$allocator@D@2@@std@@@2@@property_tree@boost@@@std@@@2@@234@@detail@multi_index@boost@@@detail@multi_index@boost@@V?$allocator@U?$pair@$$CBV?$basic_string@DU?$char_traits@D@std@@V?$allocator@D@2@@std@@V?$basic_ptree@V?$basic_string@DU?$char_traits@D@std@@V?$allocator@D@2@@std@@V12@U?$less@V?$basic_string@DU?$char_traits@D@std@@V?$allocator@D@2@@std@@@2@@property_tree@boost@@@std@@@std@@@detail@multi_index@boost@@QEAA@XZ
	??1?$enable_shared_from_this@Vfmu@v1@fmi@cse@@@std@@IEAA@XZ
	??1?$enable_shared_from_this@Vfmu@v2@fmi@cse@@@std@@IEAA@XZ
	??1?$enable_shared_from_this@Vimporter@fmi@cse@@@std@@IEAA@XZ
	??1?$error_info_injector@Vinvalid_argument@std@@@exception_detail@boost@@UEAA@XZ
	??1?$error_info_injector@Vptree_bad_path@property_tree@boost@@@exception_detail@boost@@UEAA@XZ
	??1?$error_info_injector@Vruntime_error@std@@@exception_detail@boost@@UEAA@XZ
	??1?$error_info_injector@Vxml_parser_error@xml_parser@property_tree@boost@@@exception_detail@boost@@UEAA@XZ
	??1?$header_holder@PEAU?$sequenced_index_node@U?$ordered_index_node@Unull_augment_policy@detail@multi_index@boost@@U?$index_node_base@U?$pair@$$CBV?$basic_string@DU?$char_traits@D@std@@V?$allocator@D@2@@std@@V?$basic_ptree@V?$basic_string@DU?$char_traits@D@std@@V?$allocator@D@2@@std@@V12@U?$less@V?$basic_string@DU?$char_traits@D@std@@V?$allocator@D@2@@std@@@2@@property_tree@boost@@@std@@V?$allocator@U?$pair@$$CBV?$basic_string@DU?$char_traits@D@std@@V?$allocator@D@2@@std@@V?$basic_ptree@V?$basic_string@DU?$char_traits@D@std@@V?$allocator@D@2@@std@@V12@U?$less@V?$basic_string@DU?$char_traits@D@std@@V?$allocator@D@2@@std@@@2@@property_tree@boost@@@std@@@2@@234@@detail@multi_index@boost@@@detail@multi_index@boost@@V?$multi_index_container@U?$pair@$$CBV?$basic_string@DU?$char_traits@D@std@@V?$allocator@D@2@@std@@V?$basic_ptree@V?$basic_string@DU?$char_traits@D@std@@V?$allocator@D@2@@std@@V12@U?$less@V?$basic_string@DU?$char_traits@D@std@@V?$allocator@D@2@@std@@@2@@property_tree@boost@@@std@@U?$indexed_by@U?$sequenced@U?$tag@Una@mpl@boost@@U123@U123@U123@U123@U123@U123@U123@U123@U123@U123@U123@U123@U123@U123@U123@U123@U123@U123@U123@@multi_index@boost@@@multi_index@boost@@U?$ordered_non_unique@U?$tag@Uby_name@subs@?$basic_ptree@V?$basic_string@DU?$char_traits@D@std@@V?$allocator@D@2@@std@@V12@U?$less@V?$basic_string@DU?$char_traits@D@std@@V?$allocator@D@2@@std@@@2@@property_tree@boost@@Una@mpl@5@U675@U675@U675@U675@U675@U675@U675@U675@U675@U675@U675@U675@U675@U675@U675@U675@U675@U675@@multi_index@boost@@U?$member@U?$pair@$$CBV?$basic_string@DU?$char_traits@D@std@@V?$allocator@D@2@@std@@V?$basic_ptree@V?$basic_string@DU?$char_traits@D@std@@V?$allocator@D@2@@std@@V12@U?$less@V?$basic_string@DU?$char_traits@D@std@@V?$allocator@D@2@@std@@@2@@property_tree@boost@@@std@@$$CBV?$basic_string@DU?$char_traits@D@std@@V?$allocator@D@2@@2@$0A@@23@U?$less@V?$basic_string@DU?$char_traits@D@std@@V?$allocator@D@2@@std@@@std@@@23@Una@mpl@3@U563@U563@U563@U563@U563@U563@U563@U563@U563@U563@U563@U563@U563@U563@U563@U563@U563@@multi_index@boost@@V?$allocator@U?$pair@$$CBV?$basic_string@DU?$char_traits@D@std@@V?$allocator@D@2@@std@@V?$basic_ptree@V?$basic_string@DU?$char_traits@D@std@@V?$allocator@D@2@@std@@V12@U?$less@V?$basic_string@DU?$char_traits@D@std@@V?$allocator@D@2@@std@@@2@@property_tree@boost@@@std@@@2@@34@@detail@multi_index@boost@@QEAA@XZ
	??1?$holder@V?$string_path@V?$basic_string@DU?$char_traits@D@std@@V?$allocator@D@2@@std@@U?$id_translator@V?$basic_string@DU?$char_traits@D@std@@V?$allocator@D@2@@std@@@property_tree@boost@@@property_tree@boost@@@any@boost@@UEAA@XZ
	??1?$intrusive_ptr@Uimpl@attribute@v2s_mt_nt6@log@boost@@@boost@@QEAA@XZ
	??1?$intrusive_ptr@Uimpl@attribute_value@v2s_mt_nt6@log@boost@@@boost@@QEAA@XZ
	??1?$lock_guard@Vmutex@std@@@std@@QEAA@XZ
	??1?$logger_holder@V?$severity_logger_mt@W4level@log@cse@@@sources@v2s_mt_nt6@log@boost@@@aux@sources@v2s_mt_nt6@log@boost@@QEAA@XZ
	??1?$map@V?$basic_string@DU?$char_traits@D@std@@V?$allocator@D@2@@std@@V?$weak_ptr@Vfmu@fmi@cse@@@2@U?$less@V?$basic_string@DU?$char_traits@D@std@@V?$allocator@D@2@@std@@@2@V?$allocator@U?$pair@$$CBV?$basic_string@DU?$char_traits@D@std@@V?$allocator@D@2@@std@@V?$weak_ptr@Vfmu@fmi@cse@@@2@@std@@@2@@std@@QEAA@XZ
	??1?$map@Vpath@filesystem@std@@V?$weak_ptr@Vfmu@fmi@cse@@@3@U?$less@Vpath@filesystem@std@@@3@V?$allocator@U?$pair@$$CBVpath@filesystem@std@@V?$weak_ptr@Vfmu@fmi@cse@@@3@@std@@@3@@std@@QEAA@XZ
	??1?$memory_pool@D@rapidxml@detail@property_tree@boost@@QEAA@XZ
	??1?$multi_index_container@U?$pair@$$CBV?$basic_string@DU?$char_traits@D@std@@V?$allocator@D@2@@std@@V?$basic_ptree@V?$basic_string@DU?$char_traits@D@std@@V?$allocator@D@2@@std@@V12@U?$less@V?$basic_string@DU?$char_traits@D@std@@V?$allocator@D@2@@std@@@2@@property_tree@boost@@@std@@U?$indexed_by@U?$sequenced@U?$tag@Una@mpl@boost@@U123@U123@U123@U123@U123@U123@U123@U123@U123@U123@U123@U123@U123@U123@U123@U123@U123@U123@U123@@multi_index@boost@@@multi_index@boost@@U?$ordered_non_unique@U?$tag@Uby_name@subs@?$basic_ptree@V?$basic_string@DU?$char_traits@D@std@@V?$allocator@D@2@@std@@V12@U?$less@V?$basic_string@DU?$char_traits@D@std@@V?$allocator@D@2@@std@@@2@@property_tree@boost@@Una@mpl@5@U675@U675@U675@U675@U675@U675@U675@U675@U675@U675@U675@U675@U675@U675@U675@U675@U675@U675@@multi_index@boost@@U?$member@U?$pair@$$CBV?$basic_string@DU?$char_traits@D@std@@V?$allocator@D@2@@std@@V?$basic_ptree@V?$basic_string@DU?$char_traits@D@std@@V?$allocator@D@2@@std@@V12@U?$less@V?$basic_string@DU?$char_traits@D@std@@V?$allocator@D@2@@std@@@2@@property_tree@boost@@@std@@$$CBV?$basic_string@DU?$char_traits@D@std@@V?$allocator@D@2@@2@$0A@@23@U?$less@V?$basic_string@DU?$char_traits@D@std@@V?$allocator@D@2@@std@@@std@@@23@Una@mpl@3@U563@U563@U563@U563@U563@U563@U563@U563@U563@U563@U563@U563@U563@U563@U563@U563@U563@@multi_index@boost@@V?$allocator@U?$pair@$$CBV?$basic_string@DU?$char_traits@D@std@@V?$allocator@D@2@@std@@V?$basic_ptree@V?$basic_string@DU?$char_traits@D@std@@V?$allocator@D@2@@std@@V12@U?$less@V?$basic_string@DU?$char_traits@D@std@@V?$allocator@D@2@@std@@@2@@property_tree@boost@@@std@@@2@@multi_index@boost@@QEAA@XZ
	??1?$optional@V?$basic_string@DU?$char_traits@D@std@@V?$allocator@D@2@@std@@@boost@@QEAA@XZ
	??1?$optional_base@V?$basic_string@DU?$char_traits@D@std@@V?$allocator@D@2@@std@@@optional_detail@boost@@IEAA@XZ
	??1?$ordered_index@U?$member@U?$pair@$$CBV?$basic_string@DU?$char_traits@D@std@@V?$allocator@D@2@@std@@V?$basic_ptree@V?$basic_string@DU?$char_traits@D@std@@V?$allocator@D@2@@std@@V12@U?$less@V?$basic_string@DU?$char_traits@D@std@@V?$allocator@D@2@@std@@@2@@property_tree@boost@@@std@@$$CBV?$basic_string@DU?$char_traits@D@std@@V?$allocator@D@2@@2@$0A@@multi_index@boost@@U?$less@V?$basic_string@DU?$char_traits@D@std@@V?$allocator@D@2@@std@@@std@@U?$nth_layer@$01U?$pair@$$CBV?$basic_string@DU?$char_traits@D@std@@V?$allocator@D@2@@std@@V?$basic_ptree@V?$basic_string@DU?$char_traits@D@std@@V?$allocator@D@2@@std@@V12@U?$less@V?$basic_string@DU?$char_traits@D@std@@V?$allocator@D@2@@std@@@2@@property_tree@boost@@@std@@U?$indexed_by@U?$sequenced@U?$tag@Una@mpl@boost@@U123@U123@U123@U123@U123@U123@U123@U123@U123@U123@U123@U123@U123@U123@U123@U123@U123@U123@U123@@multi_index@boost@@@multi_index@boost@@U?$ordered_non_unique@U?$tag@Uby_name@subs@?$basic_ptree@V?$basic_string@DU?$char_traits@D@std@@V?$allocator@D@2@@std@@V12@U?$less@V?$basic_string@DU?$char_traits@D@std@@V?$allocator@D@2@@std@@@2@@property_tree@boost@@Una@mpl@5@U675@U675@U675@U675@U675@U675@U675@U675@U675@U675@U675@U675@U675@U675@U675@U675@U675@U675@@multi_index@boost@@U?$member@U?$pair@$$CBV?$basic_string@DU?$char_traits@D@std@@V?$allocator@D@2@@std@@V?$basic_ptree@V?$basic_string@DU?$char_traits@D@std@@V?$allocator@D@2@@std@@V12@U?$less@V?$basic_string@DU?$char_traits@D@std@@V?$allocator@D@2@@std@@@2@@property_tree@boost@@@std@@$$CBV?$basic_string@DU?$char_traits@D@std@@V?$allocator@D@2@@2@$0A@@23@U?$less@V?$basic_string@DU?$char_traits@D@std@@V?$allocator@D@2@@std@@@std@@@23@Una@mpl@3@U563@U563@U563@U563@U563@U563@U563@U563@U563@U563@U563@U563@U563@U563@U563@U563@U563@@multi_index@boost@@V?$allocator@U?$pair@$$CBV?$basic_string@DU?$char_traits@D@std@@V?$allocator@D@2@@std@@V?$basic_ptree@V?$basic_string@DU?$char_traits@D@std@@V?$allocator@D@2@@std@@V12@U?$less@V?$basic_string@DU?$char_traits@D@std@@V?$allocator@D@2@@std@@@2@@property_tree@boost@@@std@@@2@@detail@23@U?$vector1@Uby_name@subs@?$basic_ptree@V?$basic_string@DU?$char_traits@D@std@@V?$allocator@D@2@@std@@V12@U?$less@V?$basic_string@DU?$char_traits@D@std@@V?$allocator@D@2@@std@@@2@@property_tree@boost@@@mpl@3@Uordered_non_unique_tag@723@Unull_augment_policy@723@@detail@multi_index@boost@@QEAA@XZ
	??1?$ordered_index_impl@U?$member@U?$pair@$$CBV?$basic_string@DU?$char_traits@D@std@@V?$allocator@D@2@@std@@V?$basic_ptree@V?$basic_string@DU?$char_traits@D@std@@V?$allocator@D@2@@std@@V12@U?$less@V?$basic_string@DU?$char_traits@D@std@@V?$allocator@D@2@@std@@@2@@property_tree@boost@@@std@@$$CBV?$basic_string@DU?$char_traits@D@std@@V?$allocator@D@2@@2@$0A@@multi_index@boost@@U?$less@V?$basic_string@DU?$char_traits@D@std@@V?$allocator@D@2@@std@@@std@@U?$nth_layer@$01U?$pair@$$CBV?$basic_string@DU?$char_traits@D@std@@V?$allocator@D@2@@std@@V?$basic_ptree@V?$basic_string@DU?$char_traits@D@std@@V?$allocator@D@2@@std@@V12@U?$less@V?$basic_string@DU?$char_traits@D@std@@V?$allocator@D@2@@std@@@2@@property_tree@boost@@@std@@U?$indexed_by@U?$sequenced@U?$tag@Una@mpl@boost@@U123@U123@U123@U123@U123@U123@U123@U123@U123@U123@U123@U123@U123@U123@U123@U123@U123@U123@U123@@multi_index@boost@@@multi_index@boost@@U?$ordered_non_unique@U?$tag@Uby_name@subs@?$basic_ptree@V?$basic_string@DU?$char_traits@D@std@@V?$allocator@D@2@@std@@V12@U?$less@V?$basic_string@DU?$char_traits@D@std@@V?$allocator@D@2@@std@@@2@@property_tree@boost@@Una@mpl@5@U675@U675@U675@U675@U675@U675@U675@U675@U675@U675@U675@U675@U675@U675@U675@U675@U675@U675@@multi_index@boost@@U?$member@U?$pair@$$CBV?$basic_string@DU?$char_traits@D@std@@V?$allocator@D@2@@std@@V?$basic_ptree@V?$basic_string@DU?$char_traits@D@std@@V?$allocator@D@2@@std@@V12@U?$less@V?$basic_string@DU?$char_traits@D@std@@V?$allocator@D@2@@std@@@2@@property_tree@boost@@@std@@$$CBV?$basic_string@DU?$char_traits@D@std@@V?$allocator@D@2@@2@$0A@@23@U?$less@V?$basic_string@DU?$char_traits@D@std@@V?$allocator@D@2@@std@@@std@@@23@Una@mpl@3@U563@U563@U563@U563@U563@U563@U563@U563@U563@U563@U563@U563@U563@U563@U563@U563@U563@@multi_index@boost@@V?$allocator@U?$pair@$$CBV?$basic_string@DU?$char_traits@D@std@@V?$allocator@D@2@@std@@V?$basic_ptree@V?$basic_string@DU?$char_traits@D@std@@V?$allocator@D@2@@std@@V12@U?$less@V?$basic_string@DU?$char_traits@D@std@@V?$allocator@D@2@@std@@@2@@property_tree@boost@@@std@@@2@@detail@23@U?$vector1@Uby_name@subs@?$basic_ptree@V?$basic_string@DU?$char_traits@D@std@@V?$allocator@D@2@@std@@V12@U?$less@V?$basic_string@DU?$char_traits@D@std@@V?$allocator@D@2@@std@@@2@@property_tree@boost@@@mpl@3@Uordered_non_unique_tag@723@Unull_augment_policy@723@@detail@multi_index@boost@@IEAA@XZ
	??1?$pair@$$CBV?$basic_string@DU?$char_traits@D@std@@V?$allocator@D@2@@std@@V?$basic_ptree@V?$basic_string@DU?$char_traits@D@std@@V?$allocator@D@2@@std@@V12@U?$less@V?$basic_string@DU?$char_traits@D@std@@V?$allocator@D@2@@std@@@2@@property_tree@boost@@@std@@QEAA@XZ
	??1?$pair@$$CBV?$basic_string@DU?$char_traits@D@std@@V?$allocator@D@2@@std@@V?$weak_ptr@Vfmu@fmi@cse@@@2@@std@@QEAA@XZ
	??1?$pair@$$CBVpath@filesystem@std@@V?$weak_ptr@Vfmu@fmi@cse@@@3@@std@@QEAA@XZ
	??1?$pair@PEADV?$basic_ptree@V?$basic_string@DU?$char_traits@D@std@@V?$allocator@D@2@@std@@V12@U?$less@V?$basic_string@DU?$char_traits@D@std@@V?$allocator@D@2@@std@@@2@@property_tree@boost@@@std@@QEAA@XZ
	??1?$pair@V?$_Tree_const_iterator@V?$_Tree_val@U?$_Tree_simple_types@U?$pair@$$CBV?$basic_string@DU?$char_traits@D@std@@V?$allocator@D@2@@std@@V?$weak_ptr@Vfmu@fmi@cse@@@2@@std@@@std@@@std@@@std@@V12@@std@@QEAA@XZ
	??1?$pair@V?$_Tree_iterator@V?$_Tree_val@U?$_Tree_simple_types@U?$pair@$$CBV?$basic_string@DU?$char_traits@D@std@@V?$allocator@D@2@@std@@V?$weak_ptr@Vfmu@fmi@cse@@@2@@std@@@std@@@std@@@std@@_N@std@@QEAA@XZ
	??1?$pair@V?$_Tree_iterator@V?$_Tree_val@U?$_Tree_simple_types@U?$pair@$$CBVpath@filesystem@std@@V?$weak_ptr@Vfmu@fmi@cse@@@3@@std@@@std@@@std@@@std@@_N@std@@QEAA@XZ
	??1?$pair@V?$basic_string@DU?$char_traits@D@std@@V?$allocator@D@2@@std@@V?$basic_ptree@V?$basic_string@DU?$char_traits@D@std@@V?$allocator@D@2@@std@@V12@U?$less@V?$basic_string@DU?$char_traits@D@std@@V?$allocator@D@2@@std@@@2@@property_tree@boost@@@std@@QEAA@XZ
	??1?$record_pump@V?$severity_logger_mt@W4level@log@cse@@@sources@v2s_mt_nt6@log@boost@@@aux@v2s_mt_nt6@log@boost@@QEAA@XZ
	??1?$refcount_ptr@Uerror_info_container@exception_detail@boost@@@exception_detail@boost@@QEAA@XZ
	??1?$sequenced_index@U?$nth_layer@$00U?$pair@$$CBV?$basic_string@DU?$char_traits@D@std@@V?$allocator@D@2@@std@@V?$basic_ptree@V?$basic_string@DU?$char_traits@D@std@@V?$allocator@D@2@@std@@V12@U?$less@V?$basic_string@DU?$char_traits@D@std@@V?$allocator@D@2@@std@@@2@@property_tree@boost@@@std@@U?$indexed_by@U?$sequenced@U?$tag@Una@mpl@boost@@U123@U123@U123@U123@U123@U123@U123@U123@U123@U123@U123@U123@U123@U123@U123@U123@U123@U123@U123@@multi_index@boost@@@multi_index@boost@@U?$ordered_non_unique@U?$tag@Uby_name@subs@?$basic_ptree@V?$basic_string@DU?$char_traits@D@std@@V?$allocator@D@2@@std@@V12@U?$less@V?$basic_string@DU?$char_traits@D@std@@V?$allocator@D@2@@std@@@2@@property_tree@boost@@Una@mpl@5@U675@U675@U675@U675@U675@U675@U675@U675@U675@U675@U675@U675@U675@U675@U675@U675@U675@U675@@multi_index@boost@@U?$member@U?$pair@$$CBV?$basic_string@DU?$char_traits@D@std@@V?$allocator@D@2@@std@@V?$basic_ptree@V?$basic_string@DU?$char_traits@D@std@@V?$allocator@D@2@@std@@V12@U?$less@V?$basic_string@DU?$char_traits@D@std@@V?$allocator@D@2@@std@@@2@@property_tree@boost@@@std@@$$CBV?$basic_string@DU?$char_traits@D@std@@V?$allocator@D@2@@2@$0A@@23@U?$less@V?$basic_string@DU?$char_traits@D@std@@V?$allocator@D@2@@std@@@std@@@23@Una@mpl@3@U563@U563@U563@U563@U563@U563@U563@U563@U563@U563@U563@U563@U563@U563@U563@U563@U563@@multi_index@boost@@V?$allocator@U?$pair@$$CBV?$basic_string@DU?$char_traits@D@std@@V?$allocator@D@2@@std@@V?$basic_ptree@V?$basic_string@DU?$char_traits@D@std@@V?$allocator@D@2@@std@@V12@U?$less@V?$basic_string@DU?$char_traits@D@std@@V?$allocator@D@2@@std@@@2@@property_tree@boost@@@std@@@2@@detail@multi_index@boost@@U?$vector0@Una@mpl@boost@@@mpl@4@@detail@multi_index@boost@@IEAA@XZ
	??1?$severity_level@W4level@log@cse@@@aux@sources@v2s_mt_nt6@log@boost@@QEAA@XZ
	??1?$severity_logger_mt@W4level@log@cse@@@sources@v2s_mt_nt6@log@boost@@QEAA@XZ
	??1?$shared_lock_guard@U?$multi_thread_model@Vlight_rw_mutex@aux@v2s_mt_nt6@log@boost@@@sources@v2s_mt_nt6@log@boost@@@aux@v2s_mt_nt6@log@boost@@QEAA@XZ
	??1?$shared_ptr@$$CBUmodel_description@cse@@@std@@QEAA@XZ
	??1?$shared_ptr@$$CBVfmu@v1@fmi@cse@@@std@@QEAA@XZ
	??1?$shared_ptr@$$CBVfmu@v2@fmi@cse@@@std@@QEAA@XZ
	??1?$shared_ptr@U?$logger_holder@V?$severity_logger_mt@W4level@log@cse@@@sources@v2s_mt_nt6@log@boost@@@aux@sources@v2s_mt_nt6@log@boost@@@boost@@QEAA@XZ
	??1?$shared_ptr@U_Dir_enum_impl@filesystem@std@@@std@@QEAA@XZ
	??1?$shared_ptr@Ulogger_holder_base@aux@sources@v2s_mt_nt6@log@boost@@@boost@@QEAA@XZ
	??1?$shared_ptr@V?$mersenne_twister_engine@I$0CA@$0CHA@$0BIN@$0BP@$0JJAILANP@$0L@$0PPPPPPPP@$06$0JNCMFGIA@$0P@$0OPMGAAAA@$0BC@$0GMAHIJGF@@random@boost@@@boost@@QEAA@XZ
	??1?$shared_ptr@Vcore@v2s_mt_nt6@log@boost@@@boost@@QEAA@XZ
	??1?$shared_ptr@Vfmu@fmi@cse@@@std@@QEAA@XZ
	??1?$shared_ptr@Vfmu@v1@fmi@cse@@@std@@QEAA@XZ
	??1?$shared_ptr@Vfmu@v2@fmi@cse@@@std@@QEAA@XZ
	??1?$shared_ptr@Vimporter@fmi@cse@@@std@@QEAA@XZ
	??1?$shared_ptr@Vslave_instance@v1@fmi@cse@@@std@@QEAA@XZ
	??1?$shared_ptr@Vslave_instance@v2@fmi@cse@@@std@@QEAA@XZ
	??1?$sp_counted_impl_p@V?$mersenne_twister_engine@I$0CA@$0CHA@$0BIN@$0BP@$0JJAILANP@$0L@$0PPPPPPPP@$06$0JNCMFGIA@$0P@$0OPMGAAAA@$0BC@$0GMAHIJGF@@random@boost@@@detail@boost@@UEAA@XZ
	??1?$sp_counted_impl_pd@PEAU?$logger_holder@V?$severity_logger_mt@W4level@log@cse@@@sources@v2s_mt_nt6@log@boost@@@aux@sources@v2s_mt_nt6@log@boost@@V?$sp_ms_deleter@U?$logger_holder@V?$severity_logger_mt@W4level@log@cse@@@sources@v2s_mt_nt6@log@boost@@@aux@sources@v2s_mt_nt6@log@boost@@@detail@6@@detail@boost@@UEAA@XZ
	??1?$sp_ms_deleter@U?$logger_holder@V?$severity_logger_mt@W4level@log@cse@@@sources@v2s_mt_nt6@log@boost@@@aux@sources@v2s_mt_nt6@log@boost@@@detail@boost@@QEAA@XZ
	??1?$string_path@V?$basic_string@DU?$char_traits@D@std@@V?$allocator@D@2@@std@@U?$id_translator@V?$basic_string@DU?$char_traits@D@std@@V?$allocator@D@2@@std@@@property_tree@boost@@@property_tree@boost@@QEAA@XZ
	??1?$unique_ptr@Uevent@@P6AXPEAU1@@Z@std@@QEAA@XZ
	??1?$unique_ptr@Uevent_base@@P6AXPEAU1@@Z@std@@QEAA@XZ
	??1?$unique_ptr@Ufmi_xml_context_t@@P6AXPEAU1@@Z@std@@QEAA@XZ
	??1?$unique_ptr@Ujm_callbacks@@U?$default_delete@Ujm_callbacks@@@std@@@std@@QEAA@XZ
	??1?$unique_ptr@V_Facet_base@std@@U?$default_delete@V_Facet_base@std@@@2@@std@@QEAA@XZ
	??1?$unique_ptr@Vadditional_path@detail@fmi@cse@@U?$default_delete@Vadditional_path@detail@fmi@cse@@@std@@@std@@QEAA@XZ
	??1?$unique_ptr@Vtemp_dir@utility@cse@@U?$default_delete@Vtemp_dir@utility@cse@@@std@@@std@@QEAA@XZ
	??1?$vector@DV?$allocator@D@std@@@std@@QEAA@XZ
	??1?$vector@HV?$allocator@H@std@@@std@@QEAA@XZ
	??1?$vector@PEBDV?$allocator@PEBD@std@@@std@@QEAA@XZ
	??1?$vector@Uvariable_description@cse@@V?$allocator@Uvariable_description@cse@@@std@@@std@@QEAA@XZ
	??1?$vector@V?$weak_ptr@Vslave_instance@v1@fmi@cse@@@std@@V?$allocator@V?$weak_ptr@Vslave_instance@v1@fmi@cse@@@std@@@2@@std@@QEAA@XZ
	??1?$vector@V?$weak_ptr@Vslave_instance@v2@fmi@cse@@@std@@V?$allocator@V?$weak_ptr@Vslave_instance@v2@fmi@cse@@@std@@@2@@std@@QEAA@XZ
	??1?$weak_ptr@Vfmu@fmi@cse@@@std@@QEAA@XZ
	??1?$weak_ptr@Vfmu@v1@fmi@cse@@@std@@QEAA@XZ
	??1?$weak_ptr@Vfmu@v2@fmi@cse@@@std@@QEAA@XZ
	??1?$weak_ptr@Vimporter@fmi@cse@@@std@@QEAA@XZ
	??1?$weak_ptr@Vslave_instance@v1@fmi@cse@@@std@@QEAA@XZ
	??1?$weak_ptr@Vslave_instance@v2@fmi@cse@@@std@@QEAA@XZ
	??1?$xml_document@D@rapidxml@detail@property_tree@boost@@QEAA@XZ
	??1_Bxty@?$_String_val@U?$_Simple_types@D@std@@@std@@QEAA@XZ
	??1_Bxty@?$_String_val@U?$_Simple_types@_W@std@@@std@@QEAA@XZ
	??1_Creator@_Dir_enum_impl@filesystem@std@@QEAA@XZ
	??1_Dir_enum_impl@filesystem@std@@QEAA@XZ
	??1_Find_file_handle@filesystem@std@@QEAA@XZ
	??1_Generic_error_category@std@@UEAA@XZ
	??1_Iterator_base12@std@@QEAA@XZ
	??1_Mutex_base@std@@QEAA@XZ
	??1_Ref_count_base@std@@UEAA@XZ
	??1_Sentry_base@?$basic_ostream@DU?$char_traits@D@std@@@std@@QEAA@XZ
	??1_System_error@std@@UEAA@XZ
	??1_System_error_category@std@@UEAA@XZ
	??1additional_path@detail@fmi@cse@@QEAA@XZ
	??1any@boost@@QEAA@XZ
	??1archive@zip@utility@cse@@QEAA@XZ
	??1attribute@v2s_mt_nt6@log@boost@@QEAA@XZ
	??1auto_release@?$record_pump@V?$severity_logger_mt@W4level@log@cse@@@sources@v2s_mt_nt6@log@boost@@@aux@v2s_mt_nt6@log@boost@@QEAA@XZ
	??1bad_alloc@std@@UEAA@XZ
	??1bad_cast@std@@UEAA@XZ
	??1bad_numeric_cast@numeric@boost@@UEAA@XZ
	??1bad_weak_ptr@std@@UEAA@XZ
	??1clone_base@exception_detail@boost@@UEAA@XZ
	??1directory_entry@filesystem@std@@QEAA@XZ
	??1directory_iterator@filesystem@std@@QEAA@XZ
	??1error@cse@@UEAA@XZ
	??1error@zip@utility@cse@@UEAA@XZ
	??1error_category@std@@UEAA@XZ
	??1event_loop@cse@@UEAA@XZ
	??1exception@boost@@MEAA@XZ
	??1exception@std@@UEAA@XZ
	??1file_parser_error@property_tree@boost@@UEAA@XZ
	??1filesystem_error@filesystem@std@@UEAA@XZ
	??1fmu@fmi@cse@@UEAA@XZ
	??1fmu@v1@fmi@cse@@UEAA@XZ
	??1fmu@v2@fmi@cse@@UEAA@XZ
	??1impl@?$severity_level@W4level@log@cse@@@aux@sources@v2s_mt_nt6@log@boost@@UEAA@XZ
	??1impl@attribute@v2s_mt_nt6@log@boost@@UEAA@XZ
	??1impl@attribute_value@v2s_mt_nt6@log@boost@@UEAA@XZ
	??1importer@fmi@cse@@QEAA@XZ
	??1invalid_argument@std@@UEAA@XZ
	??1is_classifiedF@detail@algorithm@boost@@QEAA@XZ
	??1locale@std@@QEAA@XZ
	??1logic_error@std@@UEAA@XZ
	??1model_description@cse@@QEAA@XZ
	??1mutex@std@@QEAA@XZ
	??1negative_overflow@numeric@boost@@UEAA@XZ
	??1nonfatal_bad_value@cse@@UEAA@XZ
	??1once_block_sentry@aux@v2s_mt_nt6@log@boost@@QEAA@XZ
	??1parse_error@rapidxml@detail@property_tree@boost@@UEAA@XZ
	??1path@filesystem@std@@QEAA@XZ
	??1placeholder@any@boost@@UEAA@XZ
	??1positive_overflow@numeric@boost@@UEAA@XZ
	??1ptree_bad_path@property_tree@boost@@UEAA@XZ
	??1ptree_error@property_tree@boost@@UEAA@XZ
	??1record@v2s_mt_nt6@log@boost@@QEAA@XZ
	??1runtime_error@std@@UEAA@XZ
	??1seed_rng@detail@uuids@boost@@QEAA@XZ
	??1sentry@?$basic_formatting_ostream@DU?$char_traits@D@std@@V?$allocator@D@2@@v2s_mt_nt6@log@boost@@QEAA@XZ
	??1sentry@?$basic_ostream@DU?$char_traits@D@std@@@std@@QEAA@XZ
	??1shared_count@detail@boost@@QEAA@XZ
	??1slave@cse@@UEAA@XZ
	??1slave_instance@fmi@cse@@UEAA@XZ
	??1slave_instance@v1@fmi@cse@@UEAA@XZ
	??1slave_instance@v2@fmi@cse@@UEAA@XZ
	??1sp_counted_base@detail@boost@@UEAA@XZ
	??1system_error@std@@UEAA@XZ
	??1temp_dir@utility@cse@@QEAA@XZ
	??1variable_description@cse@@QEAA@XZ
	??1xml_parser_error@xml_parser@property_tree@boost@@UEAA@XZ
	??2@YAPEAX_KPEAX@Z
	??4?$_String_const_iterator@V?$_String_val@U?$_Simple_types@D@std@@@std@@@std@@QEAAAEAV01@AEBV01@@Z
	??4?$_String_iterator@V?$_String_val@U?$_Simple_types@D@std@@@std@@@std@@QEAAAEAV01@AEBV01@@Z
	??4?$_Tree_const_iterator@V?$_Tree_val@U?$_Tree_simple_types@U?$pair@$$CBV?$basic_string@DU?$char_traits@D@std@@V?$allocator@D@2@@std@@V?$weak_ptr@Vfmu@fmi@cse@@@2@@std@@@std@@@std@@@std@@QEAAAEAV01@AEBV01@@Z
	??4?$_Tree_const_iterator@V?$_Tree_val@U?$_Tree_simple_types@U?$pair@$$CBVpath@filesystem@std@@V?$weak_ptr@Vfmu@fmi@cse@@@3@@std@@@std@@@std@@@std@@QEAAAEAV01@AEBV01@@Z
	??4?$_Tree_unchecked_const_iterator@V?$_Tree_val@U?$_Tree_simple_types@U?$pair@$$CBV?$basic_string@DU?$char_traits@D@std@@V?$allocator@D@2@@std@@V?$weak_ptr@Vfmu@fmi@cse@@@2@@std@@@std@@@std@@U_Iterator_base12@2@@std@@QEAAAEAV01@AEBV01@@Z
	??4?$_Tree_unchecked_const_iterator@V?$_Tree_val@U?$_Tree_simple_types@U?$pair@$$CBVpath@filesystem@std@@V?$weak_ptr@Vfmu@fmi@cse@@@3@@std@@@std@@@std@@U_Iterator_base12@2@@std@@QEAAAEAV01@AEBV01@@Z
	??4?$basic_string@DU?$char_traits@D@std@@V?$allocator@D@2@@std@@QEAAAEAV01@$$QEAV01@@Z
	??4?$basic_string@DU?$char_traits@D@std@@V?$allocator@D@2@@std@@QEAAAEAV01@AEBV01@@Z
	??4?$basic_string@DU?$char_traits@D@std@@V?$allocator@D@2@@std@@QEAAAEAV01@QEBD@Z
	??4?$basic_string@_WU?$char_traits@_W@std@@V?$allocator@_W@2@@std@@QEAAAEAV01@$$QEAV01@@Z
	??4?$basic_string@_WU?$char_traits@_W@std@@V?$allocator@_W@2@@std@@QEAAAEAV01@AEBV01@@Z
	??4?$basic_string@_WU?$char_traits@_W@std@@V?$allocator@_W@2@@std@@QEAAAEAV01@QEB_W@Z
	??4?$intrusive_ptr@Uimpl@attribute@v2s_mt_nt6@log@boost@@@boost@@QEAAAEAV01@AEBV01@@Z
	??4?$refcount_ptr@Uerror_info_container@exception_detail@boost@@@exception_detail@boost@@QEAAAEAV012@AEBV012@@Z
	??4?$shared_ptr@U?$logger_holder@V?$severity_logger_mt@W4level@log@cse@@@sources@v2s_mt_nt6@log@boost@@@aux@sources@v2s_mt_nt6@log@boost@@@boost@@QEAAAEAV01@$$QEAV01@@Z
	??4?$shared_ptr@U_Dir_enum_impl@filesystem@std@@@std@@QEAAAEAV01@$$QEAV01@@Z
	??4?$unique_ptr@Uevent@@P6AXPEAU1@@Z@std@@QEAAAEAV01@$$QEAV01@@Z
	??4?$unique_ptr@Vadditional_path@detail@fmi@cse@@U?$default_delete@Vadditional_path@detail@fmi@cse@@@std@@@std@@QEAAAEAV01@$$QEAV01@@Z
	??4?$unique_ptr@Vtemp_dir@utility@cse@@U?$default_delete@Vtemp_dir@utility@cse@@@std@@@std@@QEAAAEAV01@$$QEAV01@@Z
	??4?$weak_ptr@Vslave_instance@v1@fmi@cse@@@std@@QEAAAEAV01@$$QEAV01@@Z
	??4?$weak_ptr@Vslave_instance@v2@fmi@cse@@@std@@QEAAAEAV01@$$QEAV01@@Z
	??4_Iterator_base12@std@@QEAAAEAU01@AEBU01@@Z
	??4archive@zip@utility@cse@@QEAAAEAV0123@$$QEAV0123@@Z
	??4attribute@v2s_mt_nt6@log@boost@@QEAAAEAV0123@AEBV0123@@Z
	??4attribute_set_reference_proxy@aux@v2s_mt_nt6@log@boost@@QEBAAEAVattribute@234@AEBV5234@@Z
	??4color_ref@?$ordered_index_node_compressed_base@Unull_augment_policy@detail@multi_index@boost@@V?$allocator@D@std@@@detail@multi_index@boost@@QEAAAEAU01234@AEBU01234@@Z
	??4color_ref@?$ordered_index_node_compressed_base@Unull_augment_policy@detail@multi_index@boost@@V?$allocator@D@std@@@detail@multi_index@boost@@QEAAAEAU01234@W4ordered_index_color@234@@Z
	??4parent_ref@?$ordered_index_node_compressed_base@Unull_augment_policy@detail@multi_index@boost@@V?$allocator@D@std@@@detail@multi_index@boost@@QEAAAEAU01234@AEBU01234@@Z
	??4parent_ref@?$ordered_index_node_compressed_base@Unull_augment_policy@detail@multi_index@boost@@V?$allocator@D@std@@@detail@multi_index@boost@@QEAAAEAU01234@PEAU?$ordered_index_node_impl@Unull_augment_policy@detail@multi_index@boost@@V?$allocator@D@std@@@234@@Z
	??4path@filesystem@std@@QEAAAEAV012@$$QEAV012@@Z
	??4path@filesystem@std@@QEAAAEAV012@AEBV012@@Z
	??4temp_dir@utility@cse@@QEAAAEAV012@$$QEAV012@@Z
	??6?$basic_formatting_ostream@DU?$char_traits@D@std@@V?$allocator@D@2@@v2s_mt_nt6@log@boost@@QEAAAEAV0123@PEBD@Z
	??6?$basic_record_ostream@D@v2s_mt_nt6@log@boost@@QEAAAEAV0123@PEBD@Z
	??7?$callback@W4level@log@cse@@@type_dispatcher@v2s_mt_nt6@log@boost@@QEBA_NXZ
	??7?$optional@AEBV?$basic_ptree@V?$basic_string@DU?$char_traits@D@std@@V?$allocator@D@2@@std@@V12@U?$less@V?$basic_string@DU?$char_traits@D@std@@V?$allocator@D@2@@std@@@2@@property_tree@boost@@@boost@@QEBA_NXZ
	??7?$optional@V?$basic_string@DU?$char_traits@D@std@@V?$allocator@D@2@@std@@@boost@@QEBA_NXZ
	??7record@v2s_mt_nt6@log@boost@@QEBA_NXZ
	??7sentry@?$basic_formatting_ostream@DU?$char_traits@D@std@@V?$allocator@D@2@@v2s_mt_nt6@log@boost@@QEBA_NXZ
	??8?$_String_const_iterator@V?$_String_val@U?$_Simple_types@D@std@@@std@@@std@@QEBA_NAEBV01@@Z
	??8?$_Tree_const_iterator@V?$_Tree_val@U?$_Tree_simple_types@U?$pair@$$CBV?$basic_string@DU?$char_traits@D@std@@V?$allocator@D@2@@std@@V?$weak_ptr@Vfmu@fmi@cse@@@2@@std@@@std@@@std@@@std@@QEBA_NAEBV01@@Z
	??8?$_Tree_const_iterator@V?$_Tree_val@U?$_Tree_simple_types@U?$pair@$$CBVpath@filesystem@std@@V?$weak_ptr@Vfmu@fmi@cse@@@3@@std@@@std@@@std@@@std@@QEBA_NAEBV01@@Z
	??8error_category@std@@QEBA_NAEBV01@@Z
	??8std@@YA_NAEBVerror_condition@0@0@Z
	??8type_info@@QEBA_NAEBV0@@Z
	??9?$_String_const_iterator@V?$_String_val@U?$_Simple_types@D@std@@@std@@@std@@QEBA_NAEBV01@@Z
	??9?$_Tree_const_iterator@V?$_Tree_val@U?$_Tree_simple_types@U?$pair@$$CBV?$basic_string@DU?$char_traits@D@std@@V?$allocator@D@2@@std@@V?$weak_ptr@Vfmu@fmi@cse@@@2@@std@@@std@@@std@@@std@@QEBA_NAEBV01@@Z
	??9?$_Tree_const_iterator@V?$_Tree_val@U?$_Tree_simple_types@U?$pair@$$CBVpath@filesystem@std@@V?$weak_ptr@Vfmu@fmi@cse@@@3@@std@@@std@@@std@@@std@@QEBA_NAEBV01@@Z
	??9directory_iterator@filesystem@std@@QEBA_NAEBV012@@Z
	??9error_category@std@@QEBA_NAEBV01@@Z
	??9operators_impl@boost@@YA_NAEBV?$bidir_node_iterator@U?$sequenced_index_node@U?$ordered_index_node@Unull_augment_policy@detail@multi_index@boost@@U?$index_node_base@U?$pair@$$CBV?$basic_string@DU?$char_traits@D@std@@V?$allocator@D@2@@std@@V?$basic_ptree@V?$basic_string@DU?$char_traits@D@std@@V?$allocator@D@2@@std@@V12@U?$less@V?$basic_string@DU?$char_traits@D@std@@V?$allocator@D@2@@std@@@2@@property_tree@boost@@@std@@V?$allocator@U?$pair@$$CBV?$basic_string@DU?$char_traits@D@std@@V?$allocator@D@2@@std@@V?$basic_ptree@V?$basic_string@DU?$char_traits@D@std@@V?$allocator@D@2@@std@@V12@U?$less@V?$basic_string@DU?$char_traits@D@std@@V?$allocator@D@2@@std@@@2@@property_tree@boost@@@std@@@2@@234@@detail@multi_index@boost@@@detail@multi_index@boost@@@detail@multi_index@1@0@Z
	??@646c22ecf29a08700df09b448ad22887@
	??A?$basic_string@DU?$char_traits@D@std@@V?$allocator@D@2@@std@@QEAAAEAD_K@Z
	??A?$map@V?$basic_string@DU?$char_traits@D@std@@V?$allocator@D@2@@std@@V?$weak_ptr@Vfmu@fmi@cse@@@2@U?$less@V?$basic_string@DU?$char_traits@D@std@@V?$allocator@D@2@@std@@@2@V?$allocator@U?$pair@$$CBV?$basic_string@DU?$char_traits@D@std@@V?$allocator@D@2@@std@@V?$weak_ptr@Vfmu@fmi@cse@@@2@@std@@@2@@std@@QEAAAEAV?$weak_ptr@Vfmu@fmi@cse@@@1@AEBV?$basic_string@DU?$char_traits@D@std@@V?$allocator@D@2@@1@@Z
	??A?$map@Vpath@filesystem@std@@V?$weak_ptr@Vfmu@fmi@cse@@@3@U?$less@Vpath@filesystem@std@@@3@V?$allocator@U?$pair@$$CBVpath@filesystem@std@@V?$weak_ptr@Vfmu@fmi@cse@@@3@@std@@@3@@std@@QEAAAEAV?$weak_ptr@Vfmu@fmi@cse@@@1@AEBVpath@filesystem@1@@Z
	??A?$span@$$CBV?$basic_string@DU?$char_traits@D@std@@V?$allocator@D@2@@std@@$0?0@gsl@@QEBAAEBV?$basic_string@DU?$char_traits@D@std@@V?$allocator@D@2@@std@@_J@Z
	??A?$span@$$CB_N$0?0@gsl@@QEBAAEB_N_J@Z
	??A?$span@V?$basic_string@DU?$char_traits@D@std@@V?$allocator@D@2@@std@@$0?0@gsl@@QEBAAEAV?$basic_string@DU?$char_traits@D@std@@V?$allocator@D@2@@std@@_J@Z
	??A?$span@_N$0?0@gsl@@QEBAAEA_N_J@Z
	??A?$vector@DV?$allocator@D@std@@@std@@QEAAAEAD_K@Z
	??A?$vector@HV?$allocator@H@std@@@std@@QEAAAEAH_K@Z
	??A?$vector@PEBDV?$allocator@PEBD@std@@@std@@QEAAAEAPEBD_K@Z
	??Aattribute_set@v2s_mt_nt6@log@boost@@QEAA?AVattribute_set_reference_proxy@aux@123@Vattribute_name@123@@Z
	??B?$basic_string@_WU?$char_traits@_W@std@@V?$allocator@_W@2@@std@@QEBA?AV?$basic_string_view@_WU?$char_traits@_W@std@@@1@XZ
	??B?$callback@W4level@log@cse@@@type_dispatcher@v2s_mt_nt6@log@boost@@QEBA_NXZ
	??B?$fpos@U_Mbstatet@@@std@@QEBA_JXZ
	??B?$integral_constant@_N$00@boost@@QEBAAEBU?$bool_@$00@mpl@1@XZ
	??B?$integral_constant@_N$0A@@boost@@QEBAAEBU?$bool_@$0A@@mpl@1@XZ
	??B?$optional@AEBV?$basic_ptree@V?$basic_string@DU?$char_traits@D@std@@V?$allocator@D@2@@std@@V12@U?$less@V?$basic_string@DU?$char_traits@D@std@@V?$allocator@D@2@@std@@@2@@property_tree@boost@@@boost@@QEBA_NXZ
	??B?$optional@V?$basic_string@DU?$char_traits@D@std@@V?$allocator@D@2@@std@@@boost@@QEBA_NXZ
	??B?$shared_ptr@U_Dir_enum_impl@filesystem@std@@@std@@QEBA_NXZ
	??B?$unique_ptr@Uevent@@P6AXPEAU1@@Z@std@@QEBA_NXZ
	??B?$unique_ptr@Uevent_base@@P6AXPEAU1@@Z@std@@QEBA_NXZ
	??B?$unique_ptr@Ufmi_xml_context_t@@P6AXPEAU1@@Z@std@@QEBA_NXZ
	??B?$unique_ptr@Vadditional_path@detail@fmi@cse@@U?$default_delete@Vadditional_path@detail@fmi@cse@@@std@@@std@@QEBA_NXZ
	??Bcolor_ref@?$ordered_index_node_compressed_base@Unull_augment_policy@detail@multi_index@boost@@V?$allocator@D@std@@@detail@multi_index@boost@@QEBA?AW4ordered_index_color@234@XZ
	??Bdirectory_entry@filesystem@std@@QEBAAEBVpath@12@XZ
	??Berror_code@std@@QEBA_NXZ
	??Bparent_ref@?$ordered_index_node_compressed_base@Unull_augment_policy@detail@multi_index@boost@@V?$allocator@D@std@@@detail@multi_index@boost@@QEBAPEAU?$ordered_index_node_impl@Unull_augment_policy@detail@multi_index@boost@@V?$allocator@D@std@@@234@XZ
	??Bsentry@?$basic_ostream@DU?$char_traits@D@std@@@std@@QEBA_NXZ
	??C?$_Tree_iterator@V?$_Tree_val@U?$_Tree_simple_types@U?$pair@$$CBV?$basic_string@DU?$char_traits@D@std@@V?$allocator@D@2@@std@@V?$weak_ptr@Vfmu@fmi@cse@@@2@@std@@@std@@@std@@@std@@QEBAPEAU?$pair@$$CBV?$basic_string@DU?$char_traits@D@std@@V?$allocator@D@2@@std@@V?$weak_ptr@Vfmu@fmi@cse@@@2@@1@XZ
	??C?$_Tree_iterator@V?$_Tree_val@U?$_Tree_simple_types@U?$pair@$$CBVpath@filesystem@std@@V?$weak_ptr@Vfmu@fmi@cse@@@3@@std@@@std@@@std@@@std@@QEBAPEAU?$pair@$$CBVpath@filesystem@std@@V?$weak_ptr@Vfmu@fmi@cse@@@3@@1@XZ
	??C?$iter@$0A@@attribute_set@v2s_mt_nt6@log@boost@@QEBAPEAU?$pair@$$CBVattribute_name@v2s_mt_nt6@log@boost@@Vattribute@234@@std@@XZ
	??C?$iterator_facade_base@Vconst_assoc_iterator@?$basic_ptree@V?$basic_string@DU?$char_traits@D@std@@V?$allocator@D@2@@std@@V12@U?$less@V?$basic_string@DU?$char_traits@D@std@@V?$allocator@D@2@@std@@@2@@property_tree@boost@@U?$pair@$$CBV?$basic_string@DU?$char_traits@D@std@@V?$allocator@D@2@@std@@V?$basic_ptree@V?$basic_string@DU?$char_traits@D@std@@V?$allocator@D@2@@std@@V12@U?$less@V?$basic_string@DU?$char_traits@D@std@@V?$allocator@D@2@@std@@@2@@property_tree@boost@@@std@@Ubidirectional_traversal_tag@iterators@4@AEBU56@_J$0A@$0A@@detail@iterators@boost@@QEBAPEBU?$pair@$$CBV?$basic_string@DU?$char_traits@D@std@@V?$allocator@D@2@@std@@V?$basic_ptree@V?$basic_string@DU?$char_traits@D@std@@V?$allocator@D@2@@std@@V12@U?$less@V?$basic_string@DU?$char_traits@D@std@@V?$allocator@D@2@@std@@@2@@property_tree@boost@@@std@@XZ
	??C?$iterator_facade_base@Viterator@?$basic_ptree@V?$basic_string@DU?$char_traits@D@std@@V?$allocator@D@2@@std@@V12@U?$less@V?$basic_string@DU?$char_traits@D@std@@V?$allocator@D@2@@std@@@2@@property_tree@boost@@U?$pair@$$CBV?$basic_string@DU?$char_traits@D@std@@V?$allocator@D@2@@std@@V?$basic_ptree@V?$basic_string@DU?$char_traits@D@std@@V?$allocator@D@2@@std@@V12@U?$less@V?$basic_string@DU?$char_traits@D@std@@V?$allocator@D@2@@std@@@2@@property_tree@boost@@@std@@Ubidirectional_traversal_tag@iterators@4@AEAU56@_J$0A@$0A@@detail@iterators@boost@@QEBAPEAU?$pair@$$CBV?$basic_string@DU?$char_traits@D@std@@V?$allocator@D@2@@std@@V?$basic_ptree@V?$basic_string@DU?$char_traits@D@std@@V?$allocator@D@2@@std@@V12@U?$less@V?$basic_string@DU?$char_traits@D@std@@V?$allocator@D@2@@std@@@2@@property_tree@boost@@@std@@XZ
	??C?$shared_ptr@U?$logger_holder@V?$severity_logger_mt@W4level@log@cse@@@sources@v2s_mt_nt6@log@boost@@@aux@sources@v2s_mt_nt6@log@boost@@@boost@@QEBAPEAU?$logger_holder@V?$severity_logger_mt@W4level@log@cse@@@sources@v2s_mt_nt6@log@boost@@@aux@sources@v2s_mt_nt6@log@1@XZ
	??C?$shared_ptr@Ulogger_holder_base@aux@sources@v2s_mt_nt6@log@boost@@@boost@@QEBAPEAUlogger_holder_base@aux@sources@v2s_mt_nt6@log@1@XZ
	??C?$shared_ptr@Vcore@v2s_mt_nt6@log@boost@@@boost@@QEBAPEAVcore@v2s_mt_nt6@log@1@XZ
	??C?$unique_ptr@Ujm_callbacks@@U?$default_delete@Ujm_callbacks@@@std@@@std@@QEBAPEAUjm_callbacks@@XZ
	??Cdirectory_iterator@filesystem@std@@QEBAPEBVdirectory_entry@12@XZ
	??Cparent_ref@?$ordered_index_node_compressed_base@Unull_augment_policy@detail@multi_index@boost@@V?$allocator@D@std@@@detail@multi_index@boost@@QEBAPEAU?$ordered_index_node_impl@Unull_augment_policy@detail@multi_index@boost@@V?$allocator@D@std@@@234@XZ
	??D?$_String_const_iterator@V?$_String_val@U?$_Simple_types@D@std@@@std@@@std@@QEBAAEBDXZ
	??D?$_String_iterator@V?$_String_val@U?$_Simple_types@D@std@@@std@@@std@@QEBAAEADXZ
	??D?$_Tree_const_iterator@V?$_Tree_val@U?$_Tree_simple_types@U?$pair@$$CBV?$basic_string@DU?$char_traits@D@std@@V?$allocator@D@2@@std@@V?$weak_ptr@Vfmu@fmi@cse@@@2@@std@@@std@@@std@@@std@@QEBAAEBU?$pair@$$CBV?$basic_string@DU?$char_traits@D@std@@V?$allocator@D@2@@std@@V?$weak_ptr@Vfmu@fmi@cse@@@2@@1@XZ
	??D?$_Tree_const_iterator@V?$_Tree_val@U?$_Tree_simple_types@U?$pair@$$CBVpath@filesystem@std@@V?$weak_ptr@Vfmu@fmi@cse@@@3@@std@@@std@@@std@@@std@@QEBAAEBU?$pair@$$CBVpath@filesystem@std@@V?$weak_ptr@Vfmu@fmi@cse@@@3@@1@XZ
	??D?$_Tree_iterator@V?$_Tree_val@U?$_Tree_simple_types@U?$pair@$$CBV?$basic_string@DU?$char_traits@D@std@@V?$allocator@D@2@@std@@V?$weak_ptr@Vfmu@fmi@cse@@@2@@std@@@std@@@std@@@std@@QEBAAEAU?$pair@$$CBV?$basic_string@DU?$char_traits@D@std@@V?$allocator@D@2@@std@@V?$weak_ptr@Vfmu@fmi@cse@@@2@@1@XZ
	??D?$_Tree_iterator@V?$_Tree_val@U?$_Tree_simple_types@U?$pair@$$CBVpath@filesystem@std@@V?$weak_ptr@Vfmu@fmi@cse@@@3@@std@@@std@@@std@@@std@@QEBAAEAU?$pair@$$CBVpath@filesystem@std@@V?$weak_ptr@Vfmu@fmi@cse@@@3@@1@XZ
	??D?$bidir_node_iterator@U?$ordered_index_node@Unull_augment_policy@detail@multi_index@boost@@U?$index_node_base@U?$pair@$$CBV?$basic_string@DU?$char_traits@D@std@@V?$allocator@D@2@@std@@V?$basic_ptree@V?$basic_string@DU?$char_traits@D@std@@V?$allocator@D@2@@std@@V12@U?$less@V?$basic_string@DU?$char_traits@D@std@@V?$allocator@D@2@@std@@@2@@property_tree@boost@@@std@@V?$allocator@U?$pair@$$CBV?$basic_string@DU?$char_traits@D@std@@V?$allocator@D@2@@std@@V?$basic_ptree@V?$basic_string@DU?$char_traits@D@std@@V?$allocator@D@2@@std@@V12@U?$less@V?$basic_string@DU?$char_traits@D@std@@V?$allocator@D@2@@std@@@2@@property_tree@boost@@@std@@@2@@234@@detail@multi_index@boost@@@detail@multi_index@boost@@QEBAAEBU?$pair@$$CBV?$basic_string@DU?$char_traits@D@std@@V?$allocator@D@2@@std@@V?$basic_ptree@V?$basic_string@DU?$char_traits@D@std@@V?$allocator@D@2@@std@@V12@U?$less@V?$basic_string@DU?$char_traits@D@std@@V?$allocator@D@2@@std@@@2@@property_tree@boost@@@std@@XZ
	??D?$bidir_node_iterator@U?$sequenced_index_node@U?$ordered_index_node@Unull_augment_policy@detail@multi_index@boost@@U?$index_node_base@U?$pair@$$CBV?$basic_string@DU?$char_traits@D@std@@V?$allocator@D@2@@std@@V?$basic_ptree@V?$basic_string@DU?$char_traits@D@std@@V?$allocator@D@2@@std@@V12@U?$less@V?$basic_string@DU?$char_traits@D@std@@V?$allocator@D@2@@std@@@2@@property_tree@boost@@@std@@V?$allocator@U?$pair@$$CBV?$basic_string@DU?$char_traits@D@std@@V?$allocator@D@2@@std@@V?$basic_ptree@V?$basic_string@DU?$char_traits@D@std@@V?$allocator@D@2@@std@@V12@U?$less@V?$basic_string@DU?$char_traits@D@std@@V?$allocator@D@2@@std@@@2@@property_tree@boost@@@std@@@2@@234@@detail@multi_index@boost@@@detail@multi_index@boost@@@detail@multi_index@boost@@QEBAAEBU?$pair@$$CBV?$basic_string@DU?$char_traits@D@std@@V?$allocator@D@2@@std@@V?$basic_ptree@V?$basic_string@DU?$char_traits@D@std@@V?$allocator@D@2@@std@@V12@U?$less@V?$basic_string@DU?$char_traits@D@std@@V?$allocator@D@2@@std@@@2@@property_tree@boost@@@std@@XZ
	??D?$istreambuf_iterator@DU?$char_traits@D@std@@@std@@QEBADXZ
	??D?$iterator_facade_base@V?$generator_iterator@Vseed_rng@detail@uuids@boost@@@detail@uuids@boost@@IUsingle_pass_traversal_tag@iterators@4@AEBI_J$0A@$0A@@detail@iterators@boost@@QEBAAEBIXZ
	??D?$iterator_facade_base@Vconst_assoc_iterator@?$basic_ptree@V?$basic_string@DU?$char_traits@D@std@@V?$allocator@D@2@@std@@V12@U?$less@V?$basic_string@DU?$char_traits@D@std@@V?$allocator@D@2@@std@@@2@@property_tree@boost@@U?$pair@$$CBV?$basic_string@DU?$char_traits@D@std@@V?$allocator@D@2@@std@@V?$basic_ptree@V?$basic_string@DU?$char_traits@D@std@@V?$allocator@D@2@@std@@V12@U?$less@V?$basic_string@DU?$char_traits@D@std@@V?$allocator@D@2@@std@@@2@@property_tree@boost@@@std@@Ubidirectional_traversal_tag@iterators@4@AEBU56@_J$0A@$0A@@detail@iterators@boost@@QEBAAEBU?$pair@$$CBV?$basic_string@DU?$char_traits@D@std@@V?$allocator@D@2@@std@@V?$basic_ptree@V?$basic_string@DU?$char_traits@D@std@@V?$allocator@D@2@@std@@V12@U?$less@V?$basic_string@DU?$char_traits@D@std@@V?$allocator@D@2@@std@@@2@@property_tree@boost@@@std@@XZ
	??D?$iterator_facade_base@Viterator@?$basic_ptree@V?$basic_string@DU?$char_traits@D@std@@V?$allocator@D@2@@std@@V12@U?$less@V?$basic_string@DU?$char_traits@D@std@@V?$allocator@D@2@@std@@@2@@property_tree@boost@@U?$pair@$$CBV?$basic_string@DU?$char_traits@D@std@@V?$allocator@D@2@@std@@V?$basic_ptree@V?$basic_string@DU?$char_traits@D@std@@V?$allocator@D@2@@std@@V12@U?$less@V?$basic_string@DU?$char_traits@D@std@@V?$allocator@D@2@@std@@@2@@property_tree@boost@@@std@@Ubidirectional_traversal_tag@iterators@4@AEAU56@_J$0A@$0A@@detail@iterators@boost@@QEBAAEAU?$pair@$$CBV?$basic_string@DU?$char_traits@D@std@@V?$allocator@D@2@@std@@V?$basic_ptree@V?$basic_string@DU?$char_traits@D@std@@V?$allocator@D@2@@std@@V12@U?$less@V?$basic_string@DU?$char_traits@D@std@@V?$allocator@D@2@@std@@@2@@property_tree@boost@@@std@@XZ
	??D?$optional@V?$basic_string@DU?$char_traits@D@std@@V?$allocator@D@2@@std@@@boost@@QEGAAAEAV?$basic_string@DU?$char_traits@D@std@@V?$allocator@D@2@@std@@XZ
	??D?$postfix_increment_proxy@V?$generator_iterator@Vseed_rng@detail@uuids@boost@@@detail@uuids@boost@@@detail@iterators@boost@@QEBAAEAIXZ
	??D?$shared_ptr@Ulogger_holder_base@aux@sources@v2s_mt_nt6@log@boost@@@boost@@QEBAAEAUlogger_holder_base@aux@sources@v2s_mt_nt6@log@1@XZ
	??D?$shared_ptr@V?$mersenne_twister_engine@I$0CA@$0CHA@$0BIN@$0BP@$0JJAILANP@$0L@$0PPPPPPPP@$06$0JNCMFGIA@$0P@$0OPMGAAAA@$0BC@$0GMAHIJGF@@random@boost@@@boost@@QEBAAEAV?$mersenne_twister_engine@I$0CA@$0CHA@$0BIN@$0BP@$0JJAILANP@$0L@$0PPPPPPPP@$06$0JNCMFGIA@$0P@$0OPMGAAAA@$0BC@$0GMAHIJGF@@random@1@XZ
	??Ddirectory_iterator@filesystem@std@@QEBAAEBVdirectory_entry@12@XZ
	??E?$_String_const_iterator@V?$_String_val@U?$_Simple_types@D@std@@@std@@@std@@QEAAAEAV01@XZ
	??E?$_String_iterator@V?$_String_val@U?$_Simple_types@D@std@@@std@@@std@@QEAAAEAV01@XZ
	??E?$_Tree_const_iterator@V?$_Tree_val@U?$_Tree_simple_types@U?$pair@$$CBV?$basic_string@DU?$char_traits@D@std@@V?$allocator@D@2@@std@@V?$weak_ptr@Vfmu@fmi@cse@@@2@@std@@@std@@@std@@@std@@QEAA?AV01@H@Z
	??E?$_Tree_const_iterator@V?$_Tree_val@U?$_Tree_simple_types@U?$pair@$$CBV?$basic_string@DU?$char_traits@D@std@@V?$allocator@D@2@@std@@V?$weak_ptr@Vfmu@fmi@cse@@@2@@std@@@std@@@std@@@std@@QEAAAEAV01@XZ
	??E?$_Tree_const_iterator@V?$_Tree_val@U?$_Tree_simple_types@U?$pair@$$CBVpath@filesystem@std@@V?$weak_ptr@Vfmu@fmi@cse@@@3@@std@@@std@@@std@@@std@@QEAA?AV01@H@Z
	??E?$_Tree_const_iterator@V?$_Tree_val@U?$_Tree_simple_types@U?$pair@$$CBVpath@filesystem@std@@V?$weak_ptr@Vfmu@fmi@cse@@@3@@std@@@std@@@std@@@std@@QEAAAEAV01@XZ
	??E?$_Tree_iterator@V?$_Tree_val@U?$_Tree_simple_types@U?$pair@$$CBV?$basic_string@DU?$char_traits@D@std@@V?$allocator@D@2@@std@@V?$weak_ptr@Vfmu@fmi@cse@@@2@@std@@@std@@@std@@@std@@QEAA?AV01@H@Z
	??E?$_Tree_iterator@V?$_Tree_val@U?$_Tree_simple_types@U?$pair@$$CBV?$basic_string@DU?$char_traits@D@std@@V?$allocator@D@2@@std@@V?$weak_ptr@Vfmu@fmi@cse@@@2@@std@@@std@@@std@@@std@@QEAAAEAV01@XZ
	??E?$_Tree_iterator@V?$_Tree_val@U?$_Tree_simple_types@U?$pair@$$CBVpath@filesystem@std@@V?$weak_ptr@Vfmu@fmi@cse@@@3@@std@@@std@@@std@@@std@@QEAA?AV01@H@Z
	??E?$_Tree_iterator@V?$_Tree_val@U?$_Tree_simple_types@U?$pair@$$CBVpath@filesystem@std@@V?$weak_ptr@Vfmu@fmi@cse@@@3@@std@@@std@@@std@@@std@@QEAAAEAV01@XZ
	??E?$_Tree_unchecked_const_iterator@V?$_Tree_val@U?$_Tree_simple_types@U?$pair@$$CBV?$basic_string@DU?$char_traits@D@std@@V?$allocator@D@2@@std@@V?$weak_ptr@Vfmu@fmi@cse@@@2@@std@@@std@@@std@@U_Iterator_base12@2@@std@@QEAAAEAV01@XZ
	??E?$_Tree_unchecked_const_iterator@V?$_Tree_val@U?$_Tree_simple_types@U?$pair@$$CBVpath@filesystem@std@@V?$weak_ptr@Vfmu@fmi@cse@@@3@@std@@@std@@@std@@U_Iterator_base12@2@@std@@QEAAAEAV01@XZ
	??E?$bidir_node_iterator@U?$sequenced_index_node@U?$ordered_index_node@Unull_augment_policy@detail@multi_index@boost@@U?$index_node_base@U?$pair@$$CBV?$basic_string@DU?$char_traits@D@std@@V?$allocator@D@2@@std@@V?$basic_ptree@V?$basic_string@DU?$char_traits@D@std@@V?$allocator@D@2@@std@@V12@U?$less@V?$basic_string@DU?$char_traits@D@std@@V?$allocator@D@2@@std@@@2@@property_tree@boost@@@std@@V?$allocator@U?$pair@$$CBV?$basic_string@DU?$char_traits@D@std@@V?$allocator@D@2@@std@@V?$basic_ptree@V?$basic_string@DU?$char_traits@D@std@@V?$allocator@D@2@@std@@V12@U?$less@V?$basic_string@DU?$char_traits@D@std@@V?$allocator@D@2@@std@@@2@@property_tree@boost@@@std@@@2@@234@@detail@multi_index@boost@@@detail@multi_index@boost@@@detail@multi_index@boost@@QEAAAEAV0123@XZ
	??E?$istreambuf_iterator@DU?$char_traits@D@std@@@std@@QEAAAEAV01@XZ
	??E?$iterator_facade_base@V?$generator_iterator@Vseed_rng@detail@uuids@boost@@@detail@uuids@boost@@IUsingle_pass_traversal_tag@iterators@4@AEBI_J$0A@$0A@@detail@iterators@boost@@QEAAAEAV?$generator_iterator@Vseed_rng@detail@uuids@boost@@@1uuids@3@XZ
	??Eatomic_count@detail@boost@@QEAAJXZ
	??Edirectory_iterator@filesystem@std@@QEAAAEAV012@XZ
	??F?$_String_const_iterator@V?$_String_val@U?$_Simple_types@D@std@@@std@@@std@@QEAAAEAV01@XZ
	??F?$_String_iterator@V?$_String_val@U?$_Simple_types@D@std@@@std@@@std@@QEAAAEAV01@XZ
	??F?$_Tree_const_iterator@V?$_Tree_val@U?$_Tree_simple_types@U?$pair@$$CBV?$basic_string@DU?$char_traits@D@std@@V?$allocator@D@2@@std@@V?$weak_ptr@Vfmu@fmi@cse@@@2@@std@@@std@@@std@@@std@@QEAAAEAV01@XZ
	??F?$_Tree_const_iterator@V?$_Tree_val@U?$_Tree_simple_types@U?$pair@$$CBVpath@filesystem@std@@V?$weak_ptr@Vfmu@fmi@cse@@@3@@std@@@std@@@std@@@std@@QEAAAEAV01@XZ
	??F?$_Tree_iterator@V?$_Tree_val@U?$_Tree_simple_types@U?$pair@$$CBV?$basic_string@DU?$char_traits@D@std@@V?$allocator@D@2@@std@@V?$weak_ptr@Vfmu@fmi@cse@@@2@@std@@@std@@@std@@@std@@QEAAAEAV01@XZ
	??F?$_Tree_iterator@V?$_Tree_val@U?$_Tree_simple_types@U?$pair@$$CBVpath@filesystem@std@@V?$weak_ptr@Vfmu@fmi@cse@@@3@@std@@@std@@@std@@@std@@QEAAAEAV01@XZ
	??F?$_Tree_unchecked_const_iterator@V?$_Tree_val@U?$_Tree_simple_types@U?$pair@$$CBV?$basic_string@DU?$char_traits@D@std@@V?$allocator@D@2@@std@@V?$weak_ptr@Vfmu@fmi@cse@@@2@@std@@@std@@@std@@U_Iterator_base12@2@@std@@QEAAAEAV01@XZ
	??F?$_Tree_unchecked_const_iterator@V?$_Tree_val@U?$_Tree_simple_types@U?$pair@$$CBVpath@filesystem@std@@V?$weak_ptr@Vfmu@fmi@cse@@@3@@std@@@std@@@std@@U_Iterator_base12@2@@std@@QEAAAEAV01@XZ
	??Fatomic_count@detail@boost@@QEAAJXZ
	??G?$_String_const_iterator@V?$_String_val@U?$_Simple_types@D@std@@@std@@@std@@QEBA?AV01@_J@Z
	??G?$_String_const_iterator@V?$_String_val@U?$_Simple_types@D@std@@@std@@@std@@QEBA_JAEBV01@@Z
	??G?$_String_const_iterator@V?$_String_val@U?$_Simple_types@_W@std@@@std@@@std@@QEBA_JAEBV01@@Z
	??H?$_String_iterator@V?$_String_val@U?$_Simple_types@D@std@@@std@@@std@@QEBA?AV01@_J@Z
	??I@YA?AW4__std_fs_file_attr@@W40@0@Z
	??I@YA?AW4__std_fs_stats_flags@@W40@0@Z
	??Icse@@YA?AW4socket_event_type@0@W410@0@Z
	??Ifilesystem@std@@YA?AW4directory_options@01@W4201@0@Z
	??Kfilesystem@std@@YA?AVpath@01@AEBV201@0@Z
	??M?$copy_map_entry@U?$sequenced_index_node@U?$ordered_index_node@Unull_augment_policy@detail@multi_index@boost@@U?$index_node_base@U?$pair@$$CBV?$basic_string@DU?$char_traits@D@std@@V?$allocator@D@2@@std@@V?$basic_ptree@V?$basic_string@DU?$char_traits@D@std@@V?$allocator@D@2@@std@@V12@U?$less@V?$basic_string@DU?$char_traits@D@std@@V?$allocator@D@2@@std@@@2@@property_tree@boost@@@std@@V?$allocator@U?$pair@$$CBV?$basic_string@DU?$char_traits@D@std@@V?$allocator@D@2@@std@@V?$basic_ptree@V?$basic_string@DU?$char_traits@D@std@@V?$allocator@D@2@@std@@V12@U?$less@V?$basic_string@DU?$char_traits@D@std@@V?$allocator@D@2@@std@@@2@@property_tree@boost@@@std@@@2@@234@@detail@multi_index@boost@@@detail@multi_index@boost@@@detail@multi_index@boost@@QEBA_NAEBU0123@@Z
	??Mfilesystem@std@@YA_NAEBVpath@01@0@Z
	??R<lambda_07b002202a580d07f308bf60d51244b2>@@QEBAXQEA_WQEB_W_K2212@Z
	??R<lambda_138c3d7c38c85abb84c7fc7bfe5747b7>@@QEBAXQEAD_KD@Z
	??R<lambda_19662282d61fd793232134d409f2e084>@@QEBAXQEA_WQEB_W_K@Z
	??R<lambda_1dfe18491bcca09701d8ccb01d0b0af4>@@QEBAXQEA_WQEB_W_K12@Z
	??R<lambda_25953b27f3c43b57ba59f021c7f225c5>@@QEBAXQEA_WQEB_W_K_W@Z
	??R<lambda_319d5e083f45f90dcdce5dce53cbb275>@@QEBAXQEADQEBD_KD@Z
	??R<lambda_3fa8b2c8193a0f3144fc4b1b8f243931>@@QEBAXQEA_W_KQEB_W@Z
	??R<lambda_65e615be2a453ca0576c979606f46740>@@QEBAXQEADQEBD_K12@Z
	??R<lambda_66f57f934f28d61049862f64df852ff0>@@QEBAXQEAD_KQEBD@Z
	??R<lambda_9013ee9e23efe4882b67eff5b0ecf103>@@QEBAXQEADQEBD_K@Z
	??R<lambda_967c2ed818824c5314a20ec3af46b793>@@QEBAXQEA_WQEB_W_K212@Z
	??R<lambda_a3050a43f3157934f354774ab3dd2e02>@@QEBAXQEA_WQEB_W_K2_W@Z
	??R<lambda_e1befb086ad3257e3f042a63030725f7>@@QEBAXQEADQEBD_K2D@Z
	??R<lambda_f3a66ab6a0570788f31503db83886f49>@@QEBAXQEADQEBD_K212@Z
	??R?$_Uhash_compare@V?$basic_string@DU?$char_traits@D@std@@V?$allocator@D@2@@std@@U?$hash@V?$basic_string@DU?$char_traits@D@std@@V?$allocator@D@2@@std@@@2@U?$equal_to@V?$basic_string@DU?$char_traits@D@std@@V?$allocator@D@2@@std@@@2@@std@@QEBA_KAEBV?$basic_string@DU?$char_traits@D@std@@V?$allocator@D@2@@1@@Z
	??R?$_Uhash_compare@V?$basic_string@DU?$char_traits@D@std@@V?$allocator@D@2@@std@@U?$hash@V?$basic_string@DU?$char_traits@D@std@@V?$allocator@D@2@@std@@@2@U?$equal_to@V?$basic_string@DU?$char_traits@D@std@@V?$allocator@D@2@@std@@@2@@std@@QEBA_NAEBV?$basic_string@DU?$char_traits@D@std@@V?$allocator@D@2@@1@0@Z
	??R?$add@IK$0A@@detail@random@boost@@QEAAKIK@Z
	??R?$add@KK$0A@@detail@random@boost@@QEAAKKK@Z
	??R?$basic_random_generator@V?$mersenne_twister_engine@I$0CA@$0CHA@$0BIN@$0BP@$0JJAILANP@$0L@$0PPPPPPPP@$06$0JNCMFGIA@$0P@$0OPMGAAAA@$0BC@$0GMAHIJGF@@random@boost@@@uuids@boost@@QEAA?AUuuid@12@XZ
	??R?$callback@W4level@log@cse@@@type_dispatcher@v2s_mt_nt6@log@boost@@QEBAXAEBW4level@3cse@@@Z
	??R?$const_member_base@U?$pair@$$CBV?$basic_string@DU?$char_traits@D@std@@V?$allocator@D@2@@std@@V?$basic_ptree@V?$basic_string@DU?$char_traits@D@std@@V?$allocator@D@2@@std@@V12@U?$less@V?$basic_string@DU?$char_traits@D@std@@V?$allocator@D@2@@std@@@2@@property_tree@boost@@@std@@$$CBV?$basic_string@DU?$char_traits@D@std@@V?$allocator@D@2@@2@$0A@@detail@multi_index@boost@@QEBAAEBV?$basic_string@DU?$char_traits@D@std@@V?$allocator@D@2@@std@@AEBU?$pair@$$CBV?$basic_string@DU?$char_traits@D@std@@V?$allocator@D@2@@std@@V?$basic_ptree@V?$basic_string@DU?$char_traits@D@std@@V?$allocator@D@2@@std@@V12@U?$less@V?$basic_string@DU?$char_traits@D@std@@V?$allocator@D@2@@std@@@2@@property_tree@boost@@@5@@Z
	??R?$default_delete@Ujm_callbacks@@@std@@QEBAXPEAUjm_callbacks@@@Z
	??R?$default_delete@V_Facet_base@std@@@std@@QEBAXPEAV_Facet_base@1@@Z
	??R?$default_delete@Vadditional_path@detail@fmi@cse@@@std@@QEBAXPEAVadditional_path@detail@fmi@cse@@@Z
	??R?$default_delete@Vtemp_dir@utility@cse@@@std@@QEBAXPEAVtemp_dir@utility@cse@@@Z
	??R?$equal_to@V?$basic_string@DU?$char_traits@D@std@@V?$allocator@D@2@@std@@@std@@QEBA_NAEBV?$basic_string@DU?$char_traits@D@std@@V?$allocator@D@2@@1@0@Z
	??R?$hash@V?$basic_string@DU?$char_traits@D@std@@V?$allocator@D@2@@std@@@std@@QEBA_KAEBV?$basic_string@DU?$char_traits@D@std@@V?$allocator@D@2@@1@@Z
	??R?$less@PEAU?$sequenced_index_node@U?$ordered_index_node@Unull_augment_policy@detail@multi_index@boost@@U?$index_node_base@U?$pair@$$CBV?$basic_string@DU?$char_traits@D@std@@V?$allocator@D@2@@std@@V?$basic_ptree@V?$basic_string@DU?$char_traits@D@std@@V?$allocator@D@2@@std@@V12@U?$less@V?$basic_string@DU?$char_traits@D@std@@V?$allocator@D@2@@std@@@2@@property_tree@boost@@@std@@V?$allocator@U?$pair@$$CBV?$basic_string@DU?$char_traits@D@std@@V?$allocator@D@2@@std@@V?$basic_ptree@V?$basic_string@DU?$char_traits@D@std@@V?$allocator@D@2@@std@@V12@U?$less@V?$basic_string@DU?$char_traits@D@std@@V?$allocator@D@2@@std@@@2@@property_tree@boost@@@std@@@2@@234@@detail@multi_index@boost@@@detail@multi_index@boost@@@std@@QEBA_NAEBQEAU?$sequenced_index_node@U?$ordered_index_node@Unull_augment_policy@detail@multi_index@boost@@U?$index_node_base@U?$pair@$$CBV?$basic_string@DU?$char_traits@D@std@@V?$allocator@D@2@@std@@V?$basic_ptree@V?$basic_string@DU?$char_traits@D@std@@V?$allocator@D@2@@std@@V12@U?$less@V?$basic_string@DU?$char_traits@D@std@@V?$allocator@D@2@@std@@@2@@property_tree@boost@@@std@@V?$allocator@U?$pair@$$CBV?$basic_string@DU?$char_traits@D@std@@V?$allocator@D@2@@std@@V?$basic_ptree@V?$basic_string@DU?$char_traits@D@std@@V?$allocator@D@2@@std@@V12@U?$less@V?$basic_string@DU?$char_traits@D@std@@V?$allocator@D@2@@std@@@2@@property_tree@boost@@@std@@@2@@234@@detail@multi_index@boost@@@detail@multi_index@boost@@0@Z
	??R?$less@V?$basic_string@DU?$char_traits@D@std@@V?$allocator@D@2@@std@@@std@@QEBA_NAEBV?$basic_string@DU?$char_traits@D@std@@V?$allocator@D@2@@1@0@Z
	??R?$less@Vpath@filesystem@std@@@std@@QEBA_NAEBVpath@filesystem@1@0@Z
	??R?$mersenne_twister_engine@I$0CA@$0CHA@$0BIN@$0BP@$0JJAILANP@$0L@$0PPPPPPPP@$06$0JNCMFGIA@$0P@$0OPMGAAAA@$0BC@$0GMAHIJGF@@random@boost@@QEAAIXZ
	??R?$sp_ms_deleter@U?$logger_holder@V?$severity_logger_mt@W4level@log@cse@@@sources@v2s_mt_nt6@log@boost@@@aux@sources@v2s_mt_nt6@log@boost@@@detail@boost@@QEAAXPEAU?$logger_holder@V?$severity_logger_mt@W4level@log@cse@@@sources@v2s_mt_nt6@log@boost@@@aux@sources@v2s_mt_nt6@log@2@@Z
	??R?$subtract@I$0A@@detail@random@boost@@QEAAIII@Z
	??R?$subtract@K$0A@@detail@random@boost@@QEAAKKK@Z
	??R?$variate_generator@PEAV?$mersenne_twister_engine@I$0CA@$0CHA@$0BIN@$0BP@$0JJAILANP@$0L@$0PPPPPPPP@$06$0JNCMFGIA@$0P@$0OPMGAAAA@$0BC@$0GMAHIJGF@@random@boost@@V?$uniform_int@K@3@@random@boost@@QEAAKXZ
	??R_Is_slash_oper@std@@QEBA_N_W@Z
	??Rdef_overflow_handler@numeric@boost@@QEAAXW4range_check_result@12@@Z
	??Rseed_rng@detail@uuids@boost@@QEAAIXZ
	??U@YA?AW4__std_fs_stats_flags@@W40@0@Z
	??Ucse@@YA?AW4socket_event_type@0@W410@0@Z
	??Y?$_String_const_iterator@V?$_String_val@U?$_Simple_types@D@std@@@std@@@std@@QEAAAEAV01@_J@Z
	??Y?$_String_iterator@V?$_String_val@U?$_Simple_types@D@std@@@std@@@std@@QEAAAEAV01@_J@Z
	??Y?$basic_string@DU?$char_traits@D@std@@V?$allocator@D@2@@std@@QEAAAEAV01@AEBV01@@Z
	??Y?$basic_string@DU?$char_traits@D@std@@V?$allocator@D@2@@std@@QEAAAEAV01@D@Z
	??Y?$basic_string@DU?$char_traits@D@std@@V?$allocator@D@2@@std@@QEAAAEAV01@QEBD@Z
	??Y?$basic_string@_WU?$char_traits@_W@std@@V?$allocator@_W@2@@std@@QEAAAEAV01@AEBV01@@Z
	??Z?$_String_const_iterator@V?$_String_val@U?$_Simple_types@D@std@@@std@@@std@@QEAAAEAV01@_J@Z
	??_0path@filesystem@std@@QEAAAEAV012@AEBV012@@Z
	??_5@YAAEAW4__std_fs_stats_flags@@AEAW40@W40@@Z
	??_D?$basic_ifstream@DU?$char_traits@D@std@@@std@@QEAAXXZ
	??_D?$basic_ofstream@DU?$char_traits@D@std@@@std@@QEAAXXZ
	??_D?$basic_ostringstream@DU?$char_traits@D@std@@V?$allocator@D@2@@std@@QEAAXXZ
	??_D?$basic_stringstream@DU?$char_traits@D@std@@V?$allocator@D@2@@std@@QEAAXXZ
	??_D?$clone_impl@U?$error_info_injector@Vinvalid_argument@std@@@exception_detail@boost@@@exception_detail@boost@@QEAAXXZ
	??_D?$clone_impl@U?$error_info_injector@Vptree_bad_path@property_tree@boost@@@exception_detail@boost@@@exception_detail@boost@@QEAAXXZ
	??_D?$clone_impl@U?$error_info_injector@Vruntime_error@std@@@exception_detail@boost@@@exception_detail@boost@@QEAAXXZ
	??_D?$clone_impl@U?$error_info_injector@Vxml_parser_error@xml_parser@property_tree@boost@@@exception_detail@boost@@@exception_detail@boost@@QEAAXXZ
	??__Finstance@?1??get_instance@?$lazy_singleton@U?$logger_singleton@Ulogger@log@cse@@@aux@sources@v2s_mt_nt6@log@boost@@V?$shared_ptr@U?$logger_holder@V?$severity_logger_mt@W4level@log@cse@@@sources@v2s_mt_nt6@log@boost@@@aux@sources@v2s_mt_nt6@log@boost@@@6@@aux@v2s_mt_nt6@log@boost@@KAAEAV?$shared_ptr@U?$logger_holder@V?$severity_logger_mt@W4level@log@cse@@@sources@v2s_mt_nt6@log@boost@@@aux@sources@v2s_mt_nt6@log@boost@@@5@XZ@YAXXZ
	??__Ksv@string_view_literals@literals@std@@YA?AV?$basic_string_view@DU?$char_traits@D@std@@@3@PEBD_K@Z
	??__Ksv@string_view_literals@literals@std@@YA?AV?$basic_string_view@_WU?$char_traits@_W@std@@@3@PEB_W_K@Z
	?AcquireSRWLockShared@winapi@boost@@YAXPEAU_RTL_SRWLOCK@12@@Z
	?CryptReleaseContext@winapi@boost@@YAH_KK@Z
	?InitializeSRWLock@winapi@boost@@YAXPEAU_RTL_SRWLOCK@12@@Z
	?QueryPerformanceCounter@winapi@boost@@YAHPEAT_LARGE_INTEGER@12@@Z
	?ReleaseSRWLockShared@winapi@boost@@YAXPEAU_RTL_SRWLOCK@12@@Z
	?_Add_bytes@_Fnv1a_hasher@std@@QEAA_KPEBEQEBE@Z
	?_Adjust_manually_vector_aligned@std@@YAXAEAPEAXAEA_K@Z
	?_Adopt@_Iterator_base0@std@@QEAAXPEBX@Z
	?_Adopt@_Iterator_base12@std@@QEAAXPEBU_Container_base12@2@@Z
	?_Advance_and_reset_if_no_more_files@_Dir_enum_impl@filesystem@std@@SA?AW4__std_win_error@@AEAV?$shared_ptr@U_Dir_enum_impl@filesystem@std@@@3@@Z
	?_Alloc_proxy@?$_String_alloc@U?$_String_base_types@DV?$allocator@D@std@@@std@@@std@@QEAAXXZ
	?_Alloc_proxy@?$_String_alloc@U?$_String_base_types@_WV?$allocator@_W@std@@@std@@@std@@QEAAXXZ
	?_Alloc_proxy@?$_Tree_comp_alloc@V?$_Tmap_traits@V?$basic_string@DU?$char_traits@D@std@@V?$allocator@D@2@@std@@V?$weak_ptr@Vfmu@fmi@cse@@@2@U?$less@V?$basic_string@DU?$char_traits@D@std@@V?$allocator@D@2@@std@@@2@V?$allocator@U?$pair@$$CBV?$basic_string@DU?$char_traits@D@std@@V?$allocator@D@2@@std@@V?$weak_ptr@Vfmu@fmi@cse@@@2@@std@@@2@$0A@@std@@@std@@QEAAXXZ
	?_Alloc_proxy@?$_Tree_comp_alloc@V?$_Tmap_traits@Vpath@filesystem@std@@V?$weak_ptr@Vfmu@fmi@cse@@@3@U?$less@Vpath@filesystem@std@@@3@V?$allocator@U?$pair@$$CBVpath@filesystem@std@@V?$weak_ptr@Vfmu@fmi@cse@@@3@@std@@@3@$0A@@std@@@std@@QEAAXXZ
	?_Alloc_proxy@?$_Vector_alloc@U?$_Vec_base_types@DV?$allocator@D@std@@@std@@@std@@QEAAXXZ
	?_Alloc_proxy@?$_Vector_alloc@U?$_Vec_base_types@HV?$allocator@H@std@@@std@@@std@@QEAAXXZ
	?_Alloc_proxy@?$_Vector_alloc@U?$_Vec_base_types@PEBDV?$allocator@PEBD@std@@@std@@@std@@QEAAXXZ
	?_Alloc_proxy@?$_Vector_alloc@U?$_Vec_base_types@Uvariable_description@cse@@V?$allocator@Uvariable_description@cse@@@std@@@std@@@std@@QEAAXXZ
	?_Alloc_proxy@?$_Vector_alloc@U?$_Vec_base_types@V?$weak_ptr@Vslave_instance@v1@fmi@cse@@@std@@V?$allocator@V?$weak_ptr@Vslave_instance@v1@fmi@cse@@@std@@@2@@std@@@std@@QEAAXXZ
	?_Alloc_proxy@?$_Vector_alloc@U?$_Vec_base_types@V?$weak_ptr@Vslave_instance@v2@fmi@cse@@@std@@V?$allocator@V?$weak_ptr@Vslave_instance@v2@fmi@cse@@@std@@@2@@std@@@std@@QEAAXXZ
	?_Allocate@_Default_allocate_traits@std@@SAPEAX_K@Z
	?_Assign_rv_contents@?$basic_string@DU?$char_traits@D@std@@V?$allocator@D@2@@std@@QEAAX$$QEAV12@U?$integral_constant@_N$00@2@@Z
	?_Assign_rv_contents@?$basic_string@_WU?$char_traits@_W@std@@V?$allocator@_W@2@@std@@QEAAX$$QEAV12@U?$integral_constant@_N$00@2@@Z
	?_Assign_rv_contents_with_alloc_always_equal@?$basic_string@DU?$char_traits@D@std@@V?$allocator@D@2@@std@@QEAAX$$QEAV12@U?$integral_constant@_N$00@2@@Z
	?_Assign_rv_contents_with_alloc_always_equal@?$basic_string@_WU?$char_traits@_W@std@@V?$allocator@_W@2@@std@@QEAAX$$QEAV12@U?$integral_constant@_N$00@2@@Z
	?_At_end@directory_iterator@filesystem@std@@QEBA_NXZ
	?_Atomic_fetch_add_4@std@@YAKPECKKW4memory_order@1@@Z
	?_Atomic_fetch_sub_4@std@@YAKPECKKW4memory_order@1@@Z
	?_Available@directory_entry@filesystem@std@@QEBA_NW4__std_fs_stats_flags@@@Z
	?_Become_small@?$basic_string@DU?$char_traits@D@std@@V?$allocator@D@2@@std@@QEAAXXZ
	?_Become_small@?$basic_string@_WU?$char_traits@_W@std@@V?$allocator@_W@2@@std@@QEAAXXZ
	?_Bitmask_includes@@YA_NW4__std_fs_file_attr@@0@Z
	?_Bitmask_includes@@YA_NW4__std_fs_stats_flags@@0@Z
	?_Bitmask_includes@filesystem@std@@YA_NW4directory_options@12@0@Z
	?_Bitmask_includes_all@@YA_NW4__std_fs_stats_flags@@0@Z
	?_Buy@?$vector@DV?$allocator@D@std@@@std@@AEAA_N_K@Z
	?_Buy@?$vector@HV?$allocator@H@std@@@std@@AEAA_N_K@Z
	?_Buy@?$vector@PEBDV?$allocator@PEBD@std@@@std@@AEAA_N_K@Z
	?_Buy@?$vector@Uvariable_description@cse@@V?$allocator@Uvariable_description@cse@@@std@@@std@@AEAA_N_K@Z
	?_Buyheadnode@?$_Tree_comp_alloc@V?$_Tmap_traits@V?$basic_string@DU?$char_traits@D@std@@V?$allocator@D@2@@std@@V?$weak_ptr@Vfmu@fmi@cse@@@2@U?$less@V?$basic_string@DU?$char_traits@D@std@@V?$allocator@D@2@@std@@@2@V?$allocator@U?$pair@$$CBV?$basic_string@DU?$char_traits@D@std@@V?$allocator@D@2@@std@@V?$weak_ptr@Vfmu@fmi@cse@@@2@@std@@@2@$0A@@std@@@std@@QEAAPEAU?$_Tree_node@U?$pair@$$CBV?$basic_string@DU?$char_traits@D@std@@V?$allocator@D@2@@std@@V?$weak_ptr@Vfmu@fmi@cse@@@2@@std@@PEAX@2@XZ
	?_Buyheadnode@?$_Tree_comp_alloc@V?$_Tmap_traits@Vpath@filesystem@std@@V?$weak_ptr@Vfmu@fmi@cse@@@3@U?$less@Vpath@filesystem@std@@@3@V?$allocator@U?$pair@$$CBVpath@filesystem@std@@V?$weak_ptr@Vfmu@fmi@cse@@@3@@std@@@3@$0A@@std@@@std@@QEAAPEAU?$_Tree_node@U?$pair@$$CBVpath@filesystem@std@@V?$weak_ptr@Vfmu@fmi@cse@@@3@@std@@PEAX@2@XZ
	?_Buynode0@?$_Tree_comp_alloc@V?$_Tmap_traits@V?$basic_string@DU?$char_traits@D@std@@V?$allocator@D@2@@std@@V?$weak_ptr@Vfmu@fmi@cse@@@2@U?$less@V?$basic_string@DU?$char_traits@D@std@@V?$allocator@D@2@@std@@@2@V?$allocator@U?$pair@$$CBV?$basic_string@DU?$char_traits@D@std@@V?$allocator@D@2@@std@@V?$weak_ptr@Vfmu@fmi@cse@@@2@@std@@@2@$0A@@std@@@std@@QEAAPEAU?$_Tree_node@U?$pair@$$CBV?$basic_string@DU?$char_traits@D@std@@V?$allocator@D@2@@std@@V?$weak_ptr@Vfmu@fmi@cse@@@2@@std@@PEAX@2@XZ
	?_Buynode0@?$_Tree_comp_alloc@V?$_Tmap_traits@Vpath@filesystem@std@@V?$weak_ptr@Vfmu@fmi@cse@@@3@U?$less@Vpath@filesystem@std@@@3@V?$allocator@U?$pair@$$CBVpath@filesystem@std@@V?$weak_ptr@Vfmu@fmi@cse@@@3@@std@@@3@$0A@@std@@@std@@QEAAPEAU?$_Tree_node@U?$pair@$$CBVpath@filesystem@std@@V?$weak_ptr@Vfmu@fmi@cse@@@3@@std@@PEAX@2@XZ
	?_Calculate_growth@?$basic_string@DU?$char_traits@D@std@@V?$allocator@D@2@@std@@QEBA_K_K@Z
	?_Calculate_growth@?$basic_string@_WU?$char_traits@_W@std@@V?$allocator@_W@2@@std@@QEBA_K_K@Z
	?_Calculate_growth@?$vector@DV?$allocator@D@std@@@std@@AEBA_K_K@Z
	?_Calculate_growth@?$vector@Uvariable_description@cse@@V?$allocator@Uvariable_description@cse@@@std@@@std@@AEBA_K_K@Z
	?_Calculate_growth@?$vector@V?$weak_ptr@Vslave_instance@v1@fmi@cse@@@std@@V?$allocator@V?$weak_ptr@Vslave_instance@v1@fmi@cse@@@std@@@2@@std@@AEBA_K_K@Z
	?_Calculate_growth@?$vector@V?$weak_ptr@Vslave_instance@v2@fmi@cse@@@std@@V?$allocator@V?$weak_ptr@Vslave_instance@v2@fmi@cse@@@std@@@2@@std@@AEBA_K_K@Z
	?_Change_array@?$vector@DV?$allocator@D@std@@@std@@AEAAXQEAD_K1@Z
	?_Change_array@?$vector@Uvariable_description@cse@@V?$allocator@Uvariable_description@cse@@@std@@@std@@AEAAXQEAUvariable_description@cse@@_K1@Z
	?_Change_array@?$vector@V?$weak_ptr@Vslave_instance@v1@fmi@cse@@@std@@V?$allocator@V?$weak_ptr@Vslave_instance@v1@fmi@cse@@@std@@@2@@std@@AEAAXQEAV?$weak_ptr@Vslave_instance@v1@fmi@cse@@@2@_K1@Z
	?_Change_array@?$vector@V?$weak_ptr@Vslave_instance@v2@fmi@cse@@@std@@V?$allocator@V?$weak_ptr@Vslave_instance@v2@fmi@cse@@@std@@@2@@std@@AEAAXQEAV?$weak_ptr@Vslave_instance@v2@fmi@cse@@@2@_K1@Z
	?_Check_C_return@std@@YAHH@Z
	?_Check_convert_result@filesystem@std@@YAHU__std_fs_convert_result@@@Z
	?_Check_offset@?$_String_val@U?$_Simple_types@D@std@@@std@@QEBAX_K@Z
	?_Check_offset@?$_String_val@U?$_Simple_types@_W@std@@@std@@QEBAX_K@Z
	?_Clamp_suffix_size@?$_String_val@U?$_Simple_types@D@std@@@std@@QEBA_K_K0@Z
	?_Clamp_suffix_size@?$_String_val@U?$_Simple_types@_W@std@@@std@@QEBA_K_K0@Z
	?_Clrcont@_Iterator_base12@std@@QEAAXXZ
	?_Compare@?$_Tree@V?$_Tmap_traits@V?$basic_string@DU?$char_traits@D@std@@V?$allocator@D@2@@std@@V?$weak_ptr@Vfmu@fmi@cse@@@2@U?$less@V?$basic_string@DU?$char_traits@D@std@@V?$allocator@D@2@@std@@@2@V?$allocator@U?$pair@$$CBV?$basic_string@DU?$char_traits@D@std@@V?$allocator@D@2@@std@@V?$weak_ptr@Vfmu@fmi@cse@@@2@@std@@@2@$0A@@std@@@std@@IEBA_NAEBV?$basic_string@DU?$char_traits@D@std@@V?$allocator@D@2@@2@0@Z
	?_Compare@?$_Tree@V?$_Tmap_traits@Vpath@filesystem@std@@V?$weak_ptr@Vfmu@fmi@cse@@@3@U?$less@Vpath@filesystem@std@@@3@V?$allocator@U?$pair@$$CBVpath@filesystem@std@@V?$weak_ptr@Vfmu@fmi@cse@@@3@@std@@@3@$0A@@std@@@std@@IEBA_NAEBVpath@filesystem@2@0@Z
	?_Compat@?$_String_const_iterator@V?$_String_val@U?$_Simple_types@D@std@@@std@@@std@@QEBAXAEBV12@@Z
	?_Compat@?$_String_const_iterator@V?$_String_val@U?$_Simple_types@_W@std@@@std@@@std@@QEBAXAEBV12@@Z
	?_Construct@?$_Tree_comp_alloc@V?$_Tmap_traits@V?$basic_string@DU?$char_traits@D@std@@V?$allocator@D@2@@std@@V?$weak_ptr@Vfmu@fmi@cse@@@2@U?$less@V?$basic_string@DU?$char_traits@D@std@@V?$allocator@D@2@@std@@@2@V?$allocator@U?$pair@$$CBV?$basic_string@DU?$char_traits@D@std@@V?$allocator@D@2@@std@@V?$weak_ptr@Vfmu@fmi@cse@@@2@@std@@@2@$0A@@std@@@std@@QEAAXXZ
	?_Construct@?$_Tree_comp_alloc@V?$_Tmap_traits@Vpath@filesystem@std@@V?$weak_ptr@Vfmu@fmi@cse@@@3@U?$less@Vpath@filesystem@std@@@3@V?$allocator@U?$pair@$$CBVpath@filesystem@std@@V?$weak_ptr@Vfmu@fmi@cse@@@3@@std@@@3@$0A@@std@@@std@@QEAAXXZ
	?_Construct@?$basic_string@DU?$char_traits@D@std@@V?$allocator@D@2@@std@@QEAAXQEAD0Urandom_access_iterator_tag@2@@Z
	?_Construct_lv_contents@?$basic_string@DU?$char_traits@D@std@@V?$allocator@D@2@@std@@QEAAXAEBV12@@Z
	?_Construct_lv_contents@?$basic_string@_WU?$char_traits@_W@std@@V?$allocator@_W@2@@std@@QEAAXAEBV12@@Z
	?_Convert_narrow_to_wide@filesystem@std@@YA?AV?$basic_string@_WU?$char_traits@_W@std@@V?$allocator@_W@2@@2@W4__std_code_page@@V?$basic_string_view@DU?$char_traits@D@std@@@2@@Z
	?_Copy_alloc@?$_String_alloc@U?$_String_base_types@DV?$allocator@D@std@@@std@@@std@@QEAAXAEBV?$allocator@D@2@@Z
	?_Copy_alloc@?$_String_alloc@U?$_String_base_types@_WV?$allocator@_W@std@@@std@@@std@@QEAAXAEBV?$allocator@_W@2@@Z
	?_Decref@?$_Ptr_base@$$CBUmodel_description@cse@@@std@@IEAAXXZ
	?_Decref@?$_Ptr_base@$$CBVfmu@v1@fmi@cse@@@std@@IEAAXXZ
	?_Decref@?$_Ptr_base@$$CBVfmu@v2@fmi@cse@@@std@@IEAAXXZ
	?_Decref@?$_Ptr_base@U_Dir_enum_impl@filesystem@std@@@std@@IEAAXXZ
	?_Decref@?$_Ptr_base@Vfmu@fmi@cse@@@std@@IEAAXXZ
	?_Decref@?$_Ptr_base@Vfmu@v1@fmi@cse@@@std@@IEAAXXZ
	?_Decref@?$_Ptr_base@Vfmu@v2@fmi@cse@@@std@@IEAAXXZ
	?_Decref@?$_Ptr_base@Vimporter@fmi@cse@@@std@@IEAAXXZ
	?_Decref@?$_Ptr_base@Vslave_instance@v1@fmi@cse@@@std@@IEAAXXZ
	?_Decref@?$_Ptr_base@Vslave_instance@v2@fmi@cse@@@std@@IEAAXXZ
	?_Decref@_Ref_count_base@std@@QEAAXXZ
	?_Decwref@?$_Ptr_base@Vfmu@fmi@cse@@@std@@IEAAXXZ
	?_Decwref@?$_Ptr_base@Vfmu@v1@fmi@cse@@@std@@IEAAXXZ
	?_Decwref@?$_Ptr_base@Vfmu@v2@fmi@cse@@@std@@IEAAXXZ
	?_Decwref@?$_Ptr_base@Vimporter@fmi@cse@@@std@@IEAAXXZ
	?_Decwref@?$_Ptr_base@Vslave_instance@v1@fmi@cse@@@std@@IEAAXXZ
	?_Decwref@?$_Ptr_base@Vslave_instance@v2@fmi@cse@@@std@@IEAAXXZ
	?_Decwref@_Ref_count_base@std@@QEAAXXZ
	?_Delete_this@?$_Ref_count@Vfmu@v1@fmi@cse@@@std@@EEAAXXZ
	?_Delete_this@?$_Ref_count@Vfmu@v2@fmi@cse@@@std@@EEAAXXZ
	?_Delete_this@?$_Ref_count@Vimporter@fmi@cse@@@std@@EEAAXXZ
	?_Delete_this@?$_Ref_count@Vslave_instance@v1@fmi@cse@@@std@@EEAAXXZ
	?_Delete_this@?$_Ref_count@Vslave_instance@v2@fmi@cse@@@std@@EEAAXXZ
	?_Delete_this@?$_Ref_count_obj@U_Dir_enum_impl@filesystem@std@@@std@@EEAAXXZ
	?_Destroy@?$_Ref_count@Vfmu@v1@fmi@cse@@@std@@EEAAXXZ
	?_Destroy@?$_Ref_count@Vfmu@v2@fmi@cse@@@std@@EEAAXXZ
	?_Destroy@?$_Ref_count@Vimporter@fmi@cse@@@std@@EEAAXXZ
	?_Destroy@?$_Ref_count@Vslave_instance@v1@fmi@cse@@@std@@EEAAXXZ
	?_Destroy@?$_Ref_count@Vslave_instance@v2@fmi@cse@@@std@@EEAAXXZ
	?_Destroy@?$_Ref_count_obj@U_Dir_enum_impl@filesystem@std@@@std@@EEAAXXZ
	?_Destroy@?$vector@DV?$allocator@D@std@@@std@@AEAAXPEAD0@Z
	?_Destroy@?$vector@HV?$allocator@H@std@@@std@@AEAAXPEAH0@Z
	?_Destroy@?$vector@PEBDV?$allocator@PEBD@std@@@std@@AEAAXPEAPEBD0@Z
	?_Destroy@?$vector@Uvariable_description@cse@@V?$allocator@Uvariable_description@cse@@@std@@@std@@AEAAXPEAUvariable_description@cse@@0@Z
	?_Destroy@?$vector@V?$weak_ptr@Vslave_instance@v1@fmi@cse@@@std@@V?$allocator@V?$weak_ptr@Vslave_instance@v1@fmi@cse@@@std@@@2@@std@@AEAAXPEAV?$weak_ptr@Vslave_instance@v1@fmi@cse@@@2@0@Z
	?_Destroy@?$vector@V?$weak_ptr@Vslave_instance@v2@fmi@cse@@@std@@V?$allocator@V?$weak_ptr@Vslave_instance@v2@fmi@cse@@@std@@@2@@std@@AEAAXPEAV?$weak_ptr@Vslave_instance@v2@fmi@cse@@@2@0@Z
	?_Destroy_if_node@?$_Tree@V?$_Tmap_traits@V?$basic_string@DU?$char_traits@D@std@@V?$allocator@D@2@@std@@V?$weak_ptr@Vfmu@fmi@cse@@@2@U?$less@V?$basic_string@DU?$char_traits@D@std@@V?$allocator@D@2@@std@@@2@V?$allocator@U?$pair@$$CBV?$basic_string@DU?$char_traits@D@std@@V?$allocator@D@2@@std@@V?$weak_ptr@Vfmu@fmi@cse@@@2@@std@@@2@$0A@@std@@@std@@IEAAXPEAU?$_Tree_node@U?$pair@$$CBV?$basic_string@DU?$char_traits@D@std@@V?$allocator@D@2@@std@@V?$weak_ptr@Vfmu@fmi@cse@@@2@@std@@PEAX@2@@Z
	?_Destroy_if_node@?$_Tree@V?$_Tmap_traits@Vpath@filesystem@std@@V?$weak_ptr@Vfmu@fmi@cse@@@3@U?$less@Vpath@filesystem@std@@@3@V?$allocator@U?$pair@$$CBVpath@filesystem@std@@V?$weak_ptr@Vfmu@fmi@cse@@@3@@std@@@3@$0A@@std@@@std@@IEAAXPEAU?$_Tree_node@U?$pair@$$CBVpath@filesystem@std@@V?$weak_ptr@Vfmu@fmi@cse@@@3@@std@@PEAX@2@@Z
	?_Endwrite@?$basic_filebuf@DU?$char_traits@D@std@@@std@@IEAA_NXZ
	?_Eos@?$basic_string@DU?$char_traits@D@std@@V?$allocator@D@2@@std@@QEAAX_K@Z
	?_Eos@?$basic_string@_WU?$char_traits@_W@std@@V?$allocator@_W@2@@std@@QEAAX_K@Z
	?_Equal@?$basic_string@DU?$char_traits@D@std@@V?$allocator@D@2@@std@@QEBA_NAEBV12@@Z
	?_Equal@?$basic_string@DU?$char_traits@D@std@@V?$allocator@D@2@@std@@QEBA_NQEBD@Z
	?_Erase@?$_Tree@V?$_Tmap_traits@V?$basic_string@DU?$char_traits@D@std@@V?$allocator@D@2@@std@@V?$weak_ptr@Vfmu@fmi@cse@@@2@U?$less@V?$basic_string@DU?$char_traits@D@std@@V?$allocator@D@2@@std@@@2@V?$allocator@U?$pair@$$CBV?$basic_string@DU?$char_traits@D@std@@V?$allocator@D@2@@std@@V?$weak_ptr@Vfmu@fmi@cse@@@2@@std@@@2@$0A@@std@@@std@@IEAAXPEAU?$_Tree_node@U?$pair@$$CBV?$basic_string@DU?$char_traits@D@std@@V?$allocator@D@2@@std@@V?$weak_ptr@Vfmu@fmi@cse@@@2@@std@@PEAX@2@@Z
	?_Erase@?$_Tree@V?$_Tmap_traits@Vpath@filesystem@std@@V?$weak_ptr@Vfmu@fmi@cse@@@3@U?$less@Vpath@filesystem@std@@@3@V?$allocator@U?$pair@$$CBVpath@filesystem@std@@V?$weak_ptr@Vfmu@fmi@cse@@@3@@std@@@3@$0A@@std@@@std@@IEAAXPEAU?$_Tree_node@U?$pair@$$CBVpath@filesystem@std@@V?$weak_ptr@Vfmu@fmi@cse@@@3@@std@@PEAX@2@@Z
	?_Extract@?$_Tree_val@U?$_Tree_simple_types@U?$pair@$$CBV?$basic_string@DU?$char_traits@D@std@@V?$allocator@D@2@@std@@V?$weak_ptr@Vfmu@fmi@cse@@@2@@std@@@std@@@std@@QEAAPEAU?$_Tree_node@U?$pair@$$CBV?$basic_string@DU?$char_traits@D@std@@V?$allocator@D@2@@std@@V?$weak_ptr@Vfmu@fmi@cse@@@2@@std@@PEAX@2@V?$_Tree_const_iterator@V?$_Tree_val@U?$_Tree_simple_types@U?$pair@$$CBV?$basic_string@DU?$char_traits@D@std@@V?$allocator@D@2@@std@@V?$weak_ptr@Vfmu@fmi@cse@@@2@@std@@@std@@@std@@@2@@Z
	?_Extract@?$_Tree_val@U?$_Tree_simple_types@U?$pair@$$CBVpath@filesystem@std@@V?$weak_ptr@Vfmu@fmi@cse@@@3@@std@@@std@@@std@@QEAAPEAU?$_Tree_node@U?$pair@$$CBVpath@filesystem@std@@V?$weak_ptr@Vfmu@fmi@cse@@@3@@std@@PEAX@2@V?$_Tree_const_iterator@V?$_Tree_val@U?$_Tree_simple_types@U?$pair@$$CBVpath@filesystem@std@@V?$weak_ptr@Vfmu@fmi@cse@@@3@@std@@@std@@@std@@@2@@Z
	?_Fetch_add_acquire_4@std@@YAKPECKK@Z
	?_Fetch_add_relaxed_4@std@@YAKPECKK@Z
	?_Fetch_add_release_4@std@@YAKPECKK@Z
	?_Fetch_add_seq_cst_4@std@@YAKPECKK@Z
	?_Find_filename@filesystem@std@@YAPEB_WQEB_WPEB_W@Z
	?_Find_relative_path@filesystem@std@@YAPEB_WQEB_W0@Z
	?_Find_root_name_end@filesystem@std@@YAPEB_WQEB_W0@Z
	?_Free_proxy@?$_String_alloc@U?$_String_base_types@DV?$allocator@D@std@@@std@@@std@@QEAAXXZ
	?_Free_proxy@?$_String_alloc@U?$_String_base_types@_WV?$allocator@_W@std@@@std@@@std@@QEAAXXZ
	?_Free_proxy@?$_Tree_comp_alloc@V?$_Tmap_traits@V?$basic_string@DU?$char_traits@D@std@@V?$allocator@D@2@@std@@V?$weak_ptr@Vfmu@fmi@cse@@@2@U?$less@V?$basic_string@DU?$char_traits@D@std@@V?$allocator@D@2@@std@@@2@V?$allocator@U?$pair@$$CBV?$basic_string@DU?$char_traits@D@std@@V?$allocator@D@2@@std@@V?$weak_ptr@Vfmu@fmi@cse@@@2@@std@@@2@$0A@@std@@@std@@QEAAXXZ
	?_Free_proxy@?$_Tree_comp_alloc@V?$_Tmap_traits@Vpath@filesystem@std@@V?$weak_ptr@Vfmu@fmi@cse@@@3@U?$less@Vpath@filesystem@std@@@3@V?$allocator@U?$pair@$$CBVpath@filesystem@std@@V?$weak_ptr@Vfmu@fmi@cse@@@3@@std@@@3@$0A@@std@@@std@@QEAAXXZ
	?_Free_proxy@?$_Vector_alloc@U?$_Vec_base_types@DV?$allocator@D@std@@@std@@@std@@QEAAXXZ
	?_Free_proxy@?$_Vector_alloc@U?$_Vec_base_types@HV?$allocator@H@std@@@std@@@std@@QEAAXXZ
	?_Free_proxy@?$_Vector_alloc@U?$_Vec_base_types@PEBDV?$allocator@PEBD@std@@@std@@@std@@QEAAXXZ
	?_Free_proxy@?$_Vector_alloc@U?$_Vec_base_types@Uvariable_description@cse@@V?$allocator@Uvariable_description@cse@@@std@@@std@@@std@@QEAAXXZ
	?_Free_proxy@?$_Vector_alloc@U?$_Vec_base_types@V?$weak_ptr@Vslave_instance@v1@fmi@cse@@@std@@V?$allocator@V?$weak_ptr@Vslave_instance@v1@fmi@cse@@@std@@@2@@std@@@std@@QEAAXXZ
	?_Free_proxy@?$_Vector_alloc@U?$_Vec_base_types@V?$weak_ptr@Vslave_instance@v2@fmi@cse@@@std@@V?$allocator@V?$weak_ptr@Vslave_instance@v2@fmi@cse@@@std@@@2@@std@@@std@@QEAAXXZ
	?_Freeheadnode@?$_Tree_comp_alloc@V?$_Tmap_traits@V?$basic_string@DU?$char_traits@D@std@@V?$allocator@D@2@@std@@V?$weak_ptr@Vfmu@fmi@cse@@@2@U?$less@V?$basic_string@DU?$char_traits@D@std@@V?$allocator@D@2@@std@@@2@V?$allocator@U?$pair@$$CBV?$basic_string@DU?$char_traits@D@std@@V?$allocator@D@2@@std@@V?$weak_ptr@Vfmu@fmi@cse@@@2@@std@@@2@$0A@@std@@@std@@QEAAXPEAU?$_Tree_node@U?$pair@$$CBV?$basic_string@DU?$char_traits@D@std@@V?$allocator@D@2@@std@@V?$weak_ptr@Vfmu@fmi@cse@@@2@@std@@PEAX@2@@Z
	?_Freeheadnode@?$_Tree_comp_alloc@V?$_Tmap_traits@Vpath@filesystem@std@@V?$weak_ptr@Vfmu@fmi@cse@@@3@U?$less@Vpath@filesystem@std@@@3@V?$allocator@U?$pair@$$CBVpath@filesystem@std@@V?$weak_ptr@Vfmu@fmi@cse@@@3@@std@@@3@$0A@@std@@@std@@QEAAXPEAU?$_Tree_node@U?$pair@$$CBVpath@filesystem@std@@V?$weak_ptr@Vfmu@fmi@cse@@@3@@std@@PEAX@2@@Z
	?_Freenode0@?$_Tree_comp_alloc@V?$_Tmap_traits@V?$basic_string@DU?$char_traits@D@std@@V?$allocator@D@2@@std@@V?$weak_ptr@Vfmu@fmi@cse@@@2@U?$less@V?$basic_string@DU?$char_traits@D@std@@V?$allocator@D@2@@std@@@2@V?$allocator@U?$pair@$$CBV?$basic_string@DU?$char_traits@D@std@@V?$allocator@D@2@@std@@V?$weak_ptr@Vfmu@fmi@cse@@@2@@std@@@2@$0A@@std@@@std@@QEAAXPEAU?$_Tree_node@U?$pair@$$CBV?$basic_string@DU?$char_traits@D@std@@V?$allocator@D@2@@std@@V?$weak_ptr@Vfmu@fmi@cse@@@2@@std@@PEAX@2@@Z
	?_Freenode0@?$_Tree_comp_alloc@V?$_Tmap_traits@Vpath@filesystem@std@@V?$weak_ptr@Vfmu@fmi@cse@@@3@U?$less@Vpath@filesystem@std@@@3@V?$allocator@U?$pair@$$CBVpath@filesystem@std@@V?$weak_ptr@Vfmu@fmi@cse@@@3@@std@@@3@$0A@@std@@@std@@QEAAXPEAU?$_Tree_node@U?$pair@$$CBVpath@filesystem@std@@V?$weak_ptr@Vfmu@fmi@cse@@@3@@std@@PEAX@2@@Z
	?_Get_any_status@directory_entry@filesystem@std@@AEBA?AU_File_status_and_error@23@W4__std_fs_stats_flags@@@Z
	?_Get_any_status@filesystem@std@@YA?AU_File_status_and_error@12@AEBVpath@12@W4__std_fs_stats_flags@@@Z
	?_Get_atomic_count@std@@YAKAEBK@Z
	?_Get_data@?$_String_alloc@U?$_String_base_types@DV?$allocator@D@std@@@std@@@std@@QEAAAEAV?$_String_val@U?$_Simple_types@D@std@@@2@XZ
	?_Get_data@?$_String_alloc@U?$_String_base_types@DV?$allocator@D@std@@@std@@@std@@QEBAAEBV?$_String_val@U?$_Simple_types@D@std@@@2@XZ
	?_Get_data@?$_String_alloc@U?$_String_base_types@_WV?$allocator@_W@std@@@std@@@std@@QEAAAEAV?$_String_val@U?$_Simple_types@_W@std@@@2@XZ
	?_Get_data@?$_String_alloc@U?$_String_base_types@_WV?$allocator@_W@std@@@std@@@std@@QEBAAEBV?$_String_val@U?$_Simple_types@_W@std@@@2@XZ
	?_Get_data@?$_Tree_comp_alloc@V?$_Tmap_traits@V?$basic_string@DU?$char_traits@D@std@@V?$allocator@D@2@@std@@V?$weak_ptr@Vfmu@fmi@cse@@@2@U?$less@V?$basic_string@DU?$char_traits@D@std@@V?$allocator@D@2@@std@@@2@V?$allocator@U?$pair@$$CBV?$basic_string@DU?$char_traits@D@std@@V?$allocator@D@2@@std@@V?$weak_ptr@Vfmu@fmi@cse@@@2@@std@@@2@$0A@@std@@@std@@QEAAAEAV?$_Tree_val@U?$_Tree_simple_types@U?$pair@$$CBV?$basic_string@DU?$char_traits@D@std@@V?$allocator@D@2@@std@@V?$weak_ptr@Vfmu@fmi@cse@@@2@@std@@@std@@@2@XZ
	?_Get_data@?$_Tree_comp_alloc@V?$_Tmap_traits@V?$basic_string@DU?$char_traits@D@std@@V?$allocator@D@2@@std@@V?$weak_ptr@Vfmu@fmi@cse@@@2@U?$less@V?$basic_string@DU?$char_traits@D@std@@V?$allocator@D@2@@std@@@2@V?$allocator@U?$pair@$$CBV?$basic_string@DU?$char_traits@D@std@@V?$allocator@D@2@@std@@V?$weak_ptr@Vfmu@fmi@cse@@@2@@std@@@2@$0A@@std@@@std@@QEBAAEBV?$_Tree_val@U?$_Tree_simple_types@U?$pair@$$CBV?$basic_string@DU?$char_traits@D@std@@V?$allocator@D@2@@std@@V?$weak_ptr@Vfmu@fmi@cse@@@2@@std@@@std@@@2@XZ
	?_Get_data@?$_Tree_comp_alloc@V?$_Tmap_traits@Vpath@filesystem@std@@V?$weak_ptr@Vfmu@fmi@cse@@@3@U?$less@Vpath@filesystem@std@@@3@V?$allocator@U?$pair@$$CBVpath@filesystem@std@@V?$weak_ptr@Vfmu@fmi@cse@@@3@@std@@@3@$0A@@std@@@std@@QEAAAEAV?$_Tree_val@U?$_Tree_simple_types@U?$pair@$$CBVpath@filesystem@std@@V?$weak_ptr@Vfmu@fmi@cse@@@3@@std@@@std@@@2@XZ
	?_Get_data@?$_Tree_comp_alloc@V?$_Tmap_traits@Vpath@filesystem@std@@V?$weak_ptr@Vfmu@fmi@cse@@@3@U?$less@Vpath@filesystem@std@@@3@V?$allocator@U?$pair@$$CBVpath@filesystem@std@@V?$weak_ptr@Vfmu@fmi@cse@@@3@@std@@@3@$0A@@std@@@std@@QEBAAEBV?$_Tree_val@U?$_Tree_simple_types@U?$pair@$$CBVpath@filesystem@std@@V?$weak_ptr@Vfmu@fmi@cse@@@3@@std@@@std@@@2@XZ
	?_Get_data@?$_Vector_alloc@U?$_Vec_base_types@DV?$allocator@D@std@@@std@@@std@@QEAAAEAV?$_Vector_val@U?$_Simple_types@D@std@@@2@XZ
	?_Get_data@?$_Vector_alloc@U?$_Vec_base_types@DV?$allocator@D@std@@@std@@@std@@QEBAAEBV?$_Vector_val@U?$_Simple_types@D@std@@@2@XZ
	?_Get_data@?$_Vector_alloc@U?$_Vec_base_types@HV?$allocator@H@std@@@std@@@std@@QEAAAEAV?$_Vector_val@U?$_Simple_types@H@std@@@2@XZ
	?_Get_data@?$_Vector_alloc@U?$_Vec_base_types@HV?$allocator@H@std@@@std@@@std@@QEBAAEBV?$_Vector_val@U?$_Simple_types@H@std@@@2@XZ
	?_Get_data@?$_Vector_alloc@U?$_Vec_base_types@PEBDV?$allocator@PEBD@std@@@std@@@std@@QEAAAEAV?$_Vector_val@U?$_Simple_types@PEBD@std@@@2@XZ
	?_Get_data@?$_Vector_alloc@U?$_Vec_base_types@PEBDV?$allocator@PEBD@std@@@std@@@std@@QEBAAEBV?$_Vector_val@U?$_Simple_types@PEBD@std@@@2@XZ
	?_Get_data@?$_Vector_alloc@U?$_Vec_base_types@Uvariable_description@cse@@V?$allocator@Uvariable_description@cse@@@std@@@std@@@std@@QEAAAEAV?$_Vector_val@U?$_Simple_types@Uvariable_description@cse@@@std@@@2@XZ
	?_Get_data@?$_Vector_alloc@U?$_Vec_base_types@Uvariable_description@cse@@V?$allocator@Uvariable_description@cse@@@std@@@std@@@std@@QEBAAEBV?$_Vector_val@U?$_Simple_types@Uvariable_description@cse@@@std@@@2@XZ
	?_Get_data@?$_Vector_alloc@U?$_Vec_base_types@V?$weak_ptr@Vslave_instance@v1@fmi@cse@@@std@@V?$allocator@V?$weak_ptr@Vslave_instance@v1@fmi@cse@@@std@@@2@@std@@@std@@QEAAAEAV?$_Vector_val@U?$_Simple_types@V?$weak_ptr@Vslave_instance@v1@fmi@cse@@@std@@@std@@@2@XZ
	?_Get_data@?$_Vector_alloc@U?$_Vec_base_types@V?$weak_ptr@Vslave_instance@v1@fmi@cse@@@std@@V?$allocator@V?$weak_ptr@Vslave_instance@v1@fmi@cse@@@std@@@2@@std@@@std@@QEBAAEBV?$_Vector_val@U?$_Simple_types@V?$weak_ptr@Vslave_instance@v1@fmi@cse@@@std@@@std@@@2@XZ
	?_Get_data@?$_Vector_alloc@U?$_Vec_base_types@V?$weak_ptr@Vslave_instance@v2@fmi@cse@@@std@@V?$allocator@V?$weak_ptr@Vslave_instance@v2@fmi@cse@@@std@@@2@@std@@@std@@QEAAAEAV?$_Vector_val@U?$_Simple_types@V?$weak_ptr@Vslave_instance@v2@fmi@cse@@@std@@@std@@@2@XZ
	?_Get_data@?$_Vector_alloc@U?$_Vec_base_types@V?$weak_ptr@Vslave_instance@v2@fmi@cse@@@std@@V?$allocator@V?$weak_ptr@Vslave_instance@v2@fmi@cse@@@std@@@2@@std@@@std@@QEBAAEBV?$_Vector_val@U?$_Simple_types@V?$weak_ptr@Vslave_instance@v2@fmi@cse@@@std@@@std@@@2@XZ
	?_Get_deleter@_Ref_count_base@std@@UEBAPEAXAEBVtype_info@@@Z
	?_Get_first@?$_Compressed_pair@P6AXPEAUevent@@@ZPEAU1@$0A@@std@@QEAAAEAP6AXPEAUevent@@@ZXZ
	?_Get_first@?$_Compressed_pair@P6AXPEAUevent_base@@@ZPEAU1@$0A@@std@@QEAAAEAP6AXPEAUevent_base@@@ZXZ
	?_Get_first@?$_Compressed_pair@P6AXPEAUfmi_xml_context_t@@@ZPEAU1@$0A@@std@@QEAAAEAP6AXPEAUfmi_xml_context_t@@@ZXZ
	?_Get_first@?$_Compressed_pair@U?$default_delete@Ujm_callbacks@@@std@@PEAUjm_callbacks@@$00@std@@QEAAAEAU?$default_delete@Ujm_callbacks@@@2@XZ
	?_Get_first@?$_Compressed_pair@U?$default_delete@V_Facet_base@std@@@std@@PEAV_Facet_base@2@$00@std@@QEAAAEAU?$default_delete@V_Facet_base@std@@@2@XZ
	?_Get_first@?$_Compressed_pair@U?$default_delete@Vadditional_path@detail@fmi@cse@@@std@@PEAVadditional_path@detail@fmi@cse@@$00@std@@QEAAAEAU?$default_delete@Vadditional_path@detail@fmi@cse@@@2@XZ
	?_Get_first@?$_Compressed_pair@U?$default_delete@Vtemp_dir@utility@cse@@@std@@PEAVtemp_dir@utility@cse@@$00@std@@QEAAAEAU?$default_delete@Vtemp_dir@utility@cse@@@2@XZ
	?_Get_first@?$_Compressed_pair@U?$equal_to@V?$basic_string@DU?$char_traits@D@std@@V?$allocator@D@2@@std@@@std@@M$00@std@@QEBAAEBU?$equal_to@V?$basic_string@DU?$char_traits@D@std@@V?$allocator@D@2@@std@@@2@XZ
	?_Get_first@?$_Compressed_pair@U?$hash@V?$basic_string@DU?$char_traits@D@std@@V?$allocator@D@2@@std@@@std@@V?$_Compressed_pair@U?$equal_to@V?$basic_string@DU?$char_traits@D@std@@V?$allocator@D@2@@std@@@std@@M$00@2@$00@std@@QEBAAEBU?$hash@V?$basic_string@DU?$char_traits@D@std@@V?$allocator@D@2@@std@@@2@XZ
	?_Get_first@?$_Compressed_pair@U?$less@V?$basic_string@DU?$char_traits@D@std@@V?$allocator@D@2@@std@@@std@@V?$_Compressed_pair@V?$allocator@U?$_Tree_node@U?$pair@$$CBV?$basic_string@DU?$char_traits@D@std@@V?$allocator@D@2@@std@@V?$weak_ptr@Vfmu@fmi@cse@@@2@@std@@PEAX@std@@@std@@V?$_Tree_val@U?$_Tree_simple_types@U?$pair@$$CBV?$basic_string@DU?$char_traits@D@std@@V?$allocator@D@2@@std@@V?$weak_ptr@Vfmu@fmi@cse@@@2@@std@@@std@@@2@$00@2@$00@std@@QEAAAEAU?$less@V?$basic_string@DU?$char_traits@D@std@@V?$allocator@D@2@@std@@@2@XZ
	?_Get_first@?$_Compressed_pair@U?$less@V?$basic_string@DU?$char_traits@D@std@@V?$allocator@D@2@@std@@@std@@V?$_Compressed_pair@V?$allocator@U?$_Tree_node@U?$pair@$$CBV?$basic_string@DU?$char_traits@D@std@@V?$allocator@D@2@@std@@V?$weak_ptr@Vfmu@fmi@cse@@@2@@std@@PEAX@std@@@std@@V?$_Tree_val@U?$_Tree_simple_types@U?$pair@$$CBV?$basic_string@DU?$char_traits@D@std@@V?$allocator@D@2@@std@@V?$weak_ptr@Vfmu@fmi@cse@@@2@@std@@@std@@@2@$00@2@$00@std@@QEBAAEBU?$less@V?$basic_string@DU?$char_traits@D@std@@V?$allocator@D@2@@std@@@2@XZ
	?_Get_first@?$_Compressed_pair@U?$less@Vpath@filesystem@std@@@std@@V?$_Compressed_pair@V?$allocator@U?$_Tree_node@U?$pair@$$CBVpath@filesystem@std@@V?$weak_ptr@Vfmu@fmi@cse@@@3@@std@@PEAX@std@@@std@@V?$_Tree_val@U?$_Tree_simple_types@U?$pair@$$CBVpath@filesystem@std@@V?$weak_ptr@Vfmu@fmi@cse@@@3@@std@@@std@@@2@$00@2@$00@std@@QEAAAEAU?$less@Vpath@filesystem@std@@@2@XZ
	?_Get_first@?$_Compressed_pair@U?$less@Vpath@filesystem@std@@@std@@V?$_Compressed_pair@V?$allocator@U?$_Tree_node@U?$pair@$$CBVpath@filesystem@std@@V?$weak_ptr@Vfmu@fmi@cse@@@3@@std@@PEAX@std@@@std@@V?$_Tree_val@U?$_Tree_simple_types@U?$pair@$$CBVpath@filesystem@std@@V?$weak_ptr@Vfmu@fmi@cse@@@3@@std@@@std@@@2@$00@2@$00@std@@QEBAAEBU?$less@Vpath@filesystem@std@@@2@XZ
	?_Get_first@?$_Compressed_pair@V?$allocator@D@std@@V?$_String_val@U?$_Simple_types@D@std@@@2@$00@std@@QEAAAEAV?$allocator@D@2@XZ
	?_Get_first@?$_Compressed_pair@V?$allocator@D@std@@V?$_String_val@U?$_Simple_types@D@std@@@2@$00@std@@QEBAAEBV?$allocator@D@2@XZ
	?_Get_first@?$_Compressed_pair@V?$allocator@D@std@@V?$_Vector_val@U?$_Simple_types@D@std@@@2@$00@std@@QEAAAEAV?$allocator@D@2@XZ
	?_Get_first@?$_Compressed_pair@V?$allocator@D@std@@V?$_Vector_val@U?$_Simple_types@D@std@@@2@$00@std@@QEBAAEBV?$allocator@D@2@XZ
	?_Get_first@?$_Compressed_pair@V?$allocator@H@std@@V?$_Vector_val@U?$_Simple_types@H@std@@@2@$00@std@@QEAAAEAV?$allocator@H@2@XZ
	?_Get_first@?$_Compressed_pair@V?$allocator@H@std@@V?$_Vector_val@U?$_Simple_types@H@std@@@2@$00@std@@QEBAAEBV?$allocator@H@2@XZ
	?_Get_first@?$_Compressed_pair@V?$allocator@PEBD@std@@V?$_Vector_val@U?$_Simple_types@PEBD@std@@@2@$00@std@@QEAAAEAV?$allocator@PEBD@2@XZ
	?_Get_first@?$_Compressed_pair@V?$allocator@PEBD@std@@V?$_Vector_val@U?$_Simple_types@PEBD@std@@@2@$00@std@@QEBAAEBV?$allocator@PEBD@2@XZ
	?_Get_first@?$_Compressed_pair@V?$allocator@U?$_Tree_node@U?$pair@$$CBV?$basic_string@DU?$char_traits@D@std@@V?$allocator@D@2@@std@@V?$weak_ptr@Vfmu@fmi@cse@@@2@@std@@PEAX@std@@@std@@V?$_Tree_val@U?$_Tree_simple_types@U?$pair@$$CBV?$basic_string@DU?$char_traits@D@std@@V?$allocator@D@2@@std@@V?$weak_ptr@Vfmu@fmi@cse@@@2@@std@@@std@@@2@$00@std@@QEAAAEAV?$allocator@U?$_Tree_node@U?$pair@$$CBV?$basic_string@DU?$char_traits@D@std@@V?$allocator@D@2@@std@@V?$weak_ptr@Vfmu@fmi@cse@@@2@@std@@PEAX@std@@@2@XZ
	?_Get_first@?$_Compressed_pair@V?$allocator@U?$_Tree_node@U?$pair@$$CBV?$basic_string@DU?$char_traits@D@std@@V?$allocator@D@2@@std@@V?$weak_ptr@Vfmu@fmi@cse@@@2@@std@@PEAX@std@@@std@@V?$_Tree_val@U?$_Tree_simple_types@U?$pair@$$CBV?$basic_string@DU?$char_traits@D@std@@V?$allocator@D@2@@std@@V?$weak_ptr@Vfmu@fmi@cse@@@2@@std@@@std@@@2@$00@std@@QEBAAEBV?$allocator@U?$_Tree_node@U?$pair@$$CBV?$basic_string@DU?$char_traits@D@std@@V?$allocator@D@2@@std@@V?$weak_ptr@Vfmu@fmi@cse@@@2@@std@@PEAX@std@@@2@XZ
	?_Get_first@?$_Compressed_pair@V?$allocator@U?$_Tree_node@U?$pair@$$CBVpath@filesystem@std@@V?$weak_ptr@Vfmu@fmi@cse@@@3@@std@@PEAX@std@@@std@@V?$_Tree_val@U?$_Tree_simple_types@U?$pair@$$CBVpath@filesystem@std@@V?$weak_ptr@Vfmu@fmi@cse@@@3@@std@@@std@@@2@$00@std@@QEAAAEAV?$allocator@U?$_Tree_node@U?$pair@$$CBVpath@filesystem@std@@V?$weak_ptr@Vfmu@fmi@cse@@@3@@std@@PEAX@std@@@2@XZ
	?_Get_first@?$_Compressed_pair@V?$allocator@U?$_Tree_node@U?$pair@$$CBVpath@filesystem@std@@V?$weak_ptr@Vfmu@fmi@cse@@@3@@std@@PEAX@std@@@std@@V?$_Tree_val@U?$_Tree_simple_types@U?$pair@$$CBVpath@filesystem@std@@V?$weak_ptr@Vfmu@fmi@cse@@@3@@std@@@std@@@2@$00@std@@QEBAAEBV?$allocator@U?$_Tree_node@U?$pair@$$CBVpath@filesystem@std@@V?$weak_ptr@Vfmu@fmi@cse@@@3@@std@@PEAX@std@@@2@XZ
	?_Get_first@?$_Compressed_pair@V?$allocator@Uvariable_description@cse@@@std@@V?$_Vector_val@U?$_Simple_types@Uvariable_description@cse@@@std@@@2@$00@std@@QEAAAEAV?$allocator@Uvariable_description@cse@@@2@XZ
	?_Get_first@?$_Compressed_pair@V?$allocator@Uvariable_description@cse@@@std@@V?$_Vector_val@U?$_Simple_types@Uvariable_description@cse@@@std@@@2@$00@std@@QEBAAEBV?$allocator@Uvariable_description@cse@@@2@XZ
	?_Get_first@?$_Compressed_pair@V?$allocator@V?$weak_ptr@Vslave_instance@v1@fmi@cse@@@std@@@std@@V?$_Vector_val@U?$_Simple_types@V?$weak_ptr@Vslave_instance@v1@fmi@cse@@@std@@@std@@@2@$00@std@@QEAAAEAV?$allocator@V?$weak_ptr@Vslave_instance@v1@fmi@cse@@@std@@@2@XZ
	?_Get_first@?$_Compressed_pair@V?$allocator@V?$weak_ptr@Vslave_instance@v1@fmi@cse@@@std@@@std@@V?$_Vector_val@U?$_Simple_types@V?$weak_ptr@Vslave_instance@v1@fmi@cse@@@std@@@std@@@2@$00@std@@QEBAAEBV?$allocator@V?$weak_ptr@Vslave_instance@v1@fmi@cse@@@std@@@2@XZ
	?_Get_first@?$_Compressed_pair@V?$allocator@V?$weak_ptr@Vslave_instance@v2@fmi@cse@@@std@@@std@@V?$_Vector_val@U?$_Simple_types@V?$weak_ptr@Vslave_instance@v2@fmi@cse@@@std@@@std@@@2@$00@std@@QEAAAEAV?$allocator@V?$weak_ptr@Vslave_instance@v2@fmi@cse@@@std@@@2@XZ
	?_Get_first@?$_Compressed_pair@V?$allocator@V?$weak_ptr@Vslave_instance@v2@fmi@cse@@@std@@@std@@V?$_Vector_val@U?$_Simple_types@V?$weak_ptr@Vslave_instance@v2@fmi@cse@@@std@@@std@@@2@$00@std@@QEBAAEBV?$allocator@V?$weak_ptr@Vslave_instance@v2@fmi@cse@@@std@@@2@XZ
	?_Get_first@?$_Compressed_pair@V?$allocator@_W@std@@V?$_String_val@U?$_Simple_types@_W@std@@@2@$00@std@@QEAAAEAV?$allocator@_W@2@XZ
	?_Get_first@?$_Compressed_pair@V?$allocator@_W@std@@V?$_String_val@U?$_Simple_types@_W@std@@@2@$00@std@@QEBAAEBV?$allocator@_W@2@XZ
	?_Get_max_bucket_size@?$_Uhash_compare@V?$basic_string@DU?$char_traits@D@std@@V?$allocator@D@2@@std@@U?$hash@V?$basic_string@DU?$char_traits@D@std@@V?$allocator@D@2@@std@@@2@U?$equal_to@V?$basic_string@DU?$char_traits@D@std@@V?$allocator@D@2@@std@@@2@@std@@QEAAAEAMXZ
	?_Get_max_bucket_size@?$_Uhash_compare@V?$basic_string@DU?$char_traits@D@std@@V?$allocator@D@2@@std@@U?$hash@V?$basic_string@DU?$char_traits@D@std@@V?$allocator@D@2@@std@@@2@U?$equal_to@V?$basic_string@DU?$char_traits@D@std@@V?$allocator@D@2@@std@@@2@@std@@QEBAAEBMXZ
	?_Get_second@?$_Compressed_pair@P6AXPEAUevent@@@ZPEAU1@$0A@@std@@QEAAAEAPEAUevent@@XZ
	?_Get_second@?$_Compressed_pair@P6AXPEAUevent@@@ZPEAU1@$0A@@std@@QEBAAEBQEAUevent@@XZ
	?_Get_second@?$_Compressed_pair@P6AXPEAUevent_base@@@ZPEAU1@$0A@@std@@QEAAAEAPEAUevent_base@@XZ
	?_Get_second@?$_Compressed_pair@P6AXPEAUevent_base@@@ZPEAU1@$0A@@std@@QEBAAEBQEAUevent_base@@XZ
	?_Get_second@?$_Compressed_pair@P6AXPEAUfmi_xml_context_t@@@ZPEAU1@$0A@@std@@QEBAAEBQEAUfmi_xml_context_t@@XZ
	?_Get_second@?$_Compressed_pair@U?$default_delete@Ujm_callbacks@@@std@@PEAUjm_callbacks@@$00@std@@QEAAAEAPEAUjm_callbacks@@XZ
	?_Get_second@?$_Compressed_pair@U?$default_delete@Ujm_callbacks@@@std@@PEAUjm_callbacks@@$00@std@@QEBAAEBQEAUjm_callbacks@@XZ
	?_Get_second@?$_Compressed_pair@U?$default_delete@V_Facet_base@std@@@std@@PEAV_Facet_base@2@$00@std@@QEAAAEAPEAV_Facet_base@2@XZ
	?_Get_second@?$_Compressed_pair@U?$default_delete@V_Facet_base@std@@@std@@PEAV_Facet_base@2@$00@std@@QEBAAEBQEAV_Facet_base@2@XZ
	?_Get_second@?$_Compressed_pair@U?$default_delete@Vadditional_path@detail@fmi@cse@@@std@@PEAVadditional_path@detail@fmi@cse@@$00@std@@QEAAAEAPEAVadditional_path@detail@fmi@cse@@XZ
	?_Get_second@?$_Compressed_pair@U?$default_delete@Vadditional_path@detail@fmi@cse@@@std@@PEAVadditional_path@detail@fmi@cse@@$00@std@@QEBAAEBQEAVadditional_path@detail@fmi@cse@@XZ
	?_Get_second@?$_Compressed_pair@U?$default_delete@Vtemp_dir@utility@cse@@@std@@PEAVtemp_dir@utility@cse@@$00@std@@QEAAAEAPEAVtemp_dir@utility@cse@@XZ
	?_Get_second@?$_Compressed_pair@U?$default_delete@Vtemp_dir@utility@cse@@@std@@PEAVtemp_dir@utility@cse@@$00@std@@QEBAAEBQEAVtemp_dir@utility@cse@@XZ
	?_Get_second@?$_Compressed_pair@U?$equal_to@V?$basic_string@DU?$char_traits@D@std@@V?$allocator@D@2@@std@@@std@@M$00@std@@QEAAAEAMXZ
	?_Get_second@?$_Compressed_pair@U?$equal_to@V?$basic_string@DU?$char_traits@D@std@@V?$allocator@D@2@@std@@@std@@M$00@std@@QEBAAEBMXZ
	?_Get_second@?$_Compressed_pair@U?$hash@V?$basic_string@DU?$char_traits@D@std@@V?$allocator@D@2@@std@@@std@@V?$_Compressed_pair@U?$equal_to@V?$basic_string@DU?$char_traits@D@std@@V?$allocator@D@2@@std@@@std@@M$00@2@$00@std@@QEAAAEAV?$_Compressed_pair@U?$equal_to@V?$basic_string@DU?$char_traits@D@std@@V?$allocator@D@2@@std@@@std@@M$00@2@XZ
	?_Get_second@?$_Compressed_pair@U?$hash@V?$basic_string@DU?$char_traits@D@std@@V?$allocator@D@2@@std@@@std@@V?$_Compressed_pair@U?$equal_to@V?$basic_string@DU?$char_traits@D@std@@V?$allocator@D@2@@std@@@std@@M$00@2@$00@std@@QEBAAEBV?$_Compressed_pair@U?$equal_to@V?$basic_string@DU?$char_traits@D@std@@V?$allocator@D@2@@std@@@std@@M$00@2@XZ
	?_Get_second@?$_Compressed_pair@U?$less@V?$basic_string@DU?$char_traits@D@std@@V?$allocator@D@2@@std@@@std@@V?$_Compressed_pair@V?$allocator@U?$_Tree_node@U?$pair@$$CBV?$basic_string@DU?$char_traits@D@std@@V?$allocator@D@2@@std@@V?$weak_ptr@Vfmu@fmi@cse@@@2@@std@@PEAX@std@@@std@@V?$_Tree_val@U?$_Tree_simple_types@U?$pair@$$CBV?$basic_string@DU?$char_traits@D@std@@V?$allocator@D@2@@std@@V?$weak_ptr@Vfmu@fmi@cse@@@2@@std@@@std@@@2@$00@2@$00@std@@QEAAAEAV?$_Compressed_pair@V?$allocator@U?$_Tree_node@U?$pair@$$CBV?$basic_string@DU?$char_traits@D@std@@V?$allocator@D@2@@std@@V?$weak_ptr@Vfmu@fmi@cse@@@2@@std@@PEAX@std@@@std@@V?$_Tree_val@U?$_Tree_simple_types@U?$pair@$$CBV?$basic_string@DU?$char_traits@D@std@@V?$allocator@D@2@@std@@V?$weak_ptr@Vfmu@fmi@cse@@@2@@std@@@std@@@2@$00@2@XZ
	?_Get_second@?$_Compressed_pair@U?$less@V?$basic_string@DU?$char_traits@D@std@@V?$allocator@D@2@@std@@@std@@V?$_Compressed_pair@V?$allocator@U?$_Tree_node@U?$pair@$$CBV?$basic_string@DU?$char_traits@D@std@@V?$allocator@D@2@@std@@V?$weak_ptr@Vfmu@fmi@cse@@@2@@std@@PEAX@std@@@std@@V?$_Tree_val@U?$_Tree_simple_types@U?$pair@$$CBV?$basic_string@DU?$char_traits@D@std@@V?$allocator@D@2@@std@@V?$weak_ptr@Vfmu@fmi@cse@@@2@@std@@@std@@@2@$00@2@$00@std@@QEBAAEBV?$_Compressed_pair@V?$allocator@U?$_Tree_node@U?$pair@$$CBV?$basic_string@DU?$char_traits@D@std@@V?$allocator@D@2@@std@@V?$weak_ptr@Vfmu@fmi@cse@@@2@@std@@PEAX@std@@@std@@V?$_Tree_val@U?$_Tree_simple_types@U?$pair@$$CBV?$basic_string@DU?$char_traits@D@std@@V?$allocator@D@2@@std@@V?$weak_ptr@Vfmu@fmi@cse@@@2@@std@@@std@@@2@$00@2@XZ
	?_Get_second@?$_Compressed_pair@U?$less@Vpath@filesystem@std@@@std@@V?$_Compressed_pair@V?$allocator@U?$_Tree_node@U?$pair@$$CBVpath@filesystem@std@@V?$weak_ptr@Vfmu@fmi@cse@@@3@@std@@PEAX@std@@@std@@V?$_Tree_val@U?$_Tree_simple_types@U?$pair@$$CBVpath@filesystem@std@@V?$weak_ptr@Vfmu@fmi@cse@@@3@@std@@@std@@@2@$00@2@$00@std@@QEAAAEAV?$_Compressed_pair@V?$allocator@U?$_Tree_node@U?$pair@$$CBVpath@filesystem@std@@V?$weak_ptr@Vfmu@fmi@cse@@@3@@std@@PEAX@std@@@std@@V?$_Tree_val@U?$_Tree_simple_types@U?$pair@$$CBVpath@filesystem@std@@V?$weak_ptr@Vfmu@fmi@cse@@@3@@std@@@std@@@2@$00@2@XZ
	?_Get_second@?$_Compressed_pair@U?$less@Vpath@filesystem@std@@@std@@V?$_Compressed_pair@V?$allocator@U?$_Tree_node@U?$pair@$$CBVpath@filesystem@std@@V?$weak_ptr@Vfmu@fmi@cse@@@3@@std@@PEAX@std@@@std@@V?$_Tree_val@U?$_Tree_simple_types@U?$pair@$$CBVpath@filesystem@std@@V?$weak_ptr@Vfmu@fmi@cse@@@3@@std@@@std@@@2@$00@2@$00@std@@QEBAAEBV?$_Compressed_pair@V?$allocator@U?$_Tree_node@U?$pair@$$CBVpath@filesystem@std@@V?$weak_ptr@Vfmu@fmi@cse@@@3@@std@@PEAX@std@@@std@@V?$_Tree_val@U?$_Tree_simple_types@U?$pair@$$CBVpath@filesystem@std@@V?$weak_ptr@Vfmu@fmi@cse@@@3@@std@@@std@@@2@$00@2@XZ
	?_Get_second@?$_Compressed_pair@V?$allocator@D@std@@V?$_String_val@U?$_Simple_types@D@std@@@2@$00@std@@QEAAAEAV?$_String_val@U?$_Simple_types@D@std@@@2@XZ
	?_Get_second@?$_Compressed_pair@V?$allocator@D@std@@V?$_String_val@U?$_Simple_types@D@std@@@2@$00@std@@QEBAAEBV?$_String_val@U?$_Simple_types@D@std@@@2@XZ
	?_Get_second@?$_Compressed_pair@V?$allocator@D@std@@V?$_Vector_val@U?$_Simple_types@D@std@@@2@$00@std@@QEAAAEAV?$_Vector_val@U?$_Simple_types@D@std@@@2@XZ
	?_Get_second@?$_Compressed_pair@V?$allocator@D@std@@V?$_Vector_val@U?$_Simple_types@D@std@@@2@$00@std@@QEBAAEBV?$_Vector_val@U?$_Simple_types@D@std@@@2@XZ
	?_Get_second@?$_Compressed_pair@V?$allocator@H@std@@V?$_Vector_val@U?$_Simple_types@H@std@@@2@$00@std@@QEAAAEAV?$_Vector_val@U?$_Simple_types@H@std@@@2@XZ
	?_Get_second@?$_Compressed_pair@V?$allocator@H@std@@V?$_Vector_val@U?$_Simple_types@H@std@@@2@$00@std@@QEBAAEBV?$_Vector_val@U?$_Simple_types@H@std@@@2@XZ
	?_Get_second@?$_Compressed_pair@V?$allocator@PEBD@std@@V?$_Vector_val@U?$_Simple_types@PEBD@std@@@2@$00@std@@QEAAAEAV?$_Vector_val@U?$_Simple_types@PEBD@std@@@2@XZ
	?_Get_second@?$_Compressed_pair@V?$allocator@PEBD@std@@V?$_Vector_val@U?$_Simple_types@PEBD@std@@@2@$00@std@@QEBAAEBV?$_Vector_val@U?$_Simple_types@PEBD@std@@@2@XZ
	?_Get_second@?$_Compressed_pair@V?$allocator@U?$_Tree_node@U?$pair@$$CBV?$basic_string@DU?$char_traits@D@std@@V?$allocator@D@2@@std@@V?$weak_ptr@Vfmu@fmi@cse@@@2@@std@@PEAX@std@@@std@@V?$_Tree_val@U?$_Tree_simple_types@U?$pair@$$CBV?$basic_string@DU?$char_traits@D@std@@V?$allocator@D@2@@std@@V?$weak_ptr@Vfmu@fmi@cse@@@2@@std@@@std@@@2@$00@std@@QEAAAEAV?$_Tree_val@U?$_Tree_simple_types@U?$pair@$$CBV?$basic_string@DU?$char_traits@D@std@@V?$allocator@D@2@@std@@V?$weak_ptr@Vfmu@fmi@cse@@@2@@std@@@std@@@2@XZ
	?_Get_second@?$_Compressed_pair@V?$allocator@U?$_Tree_node@U?$pair@$$CBV?$basic_string@DU?$char_traits@D@std@@V?$allocator@D@2@@std@@V?$weak_ptr@Vfmu@fmi@cse@@@2@@std@@PEAX@std@@@std@@V?$_Tree_val@U?$_Tree_simple_types@U?$pair@$$CBV?$basic_string@DU?$char_traits@D@std@@V?$allocator@D@2@@std@@V?$weak_ptr@Vfmu@fmi@cse@@@2@@std@@@std@@@2@$00@std@@QEBAAEBV?$_Tree_val@U?$_Tree_simple_types@U?$pair@$$CBV?$basic_string@DU?$char_traits@D@std@@V?$allocator@D@2@@std@@V?$weak_ptr@Vfmu@fmi@cse@@@2@@std@@@std@@@2@XZ
	?_Get_second@?$_Compressed_pair@V?$allocator@U?$_Tree_node@U?$pair@$$CBVpath@filesystem@std@@V?$weak_ptr@Vfmu@fmi@cse@@@3@@std@@PEAX@std@@@std@@V?$_Tree_val@U?$_Tree_simple_types@U?$pair@$$CBVpath@filesystem@std@@V?$weak_ptr@Vfmu@fmi@cse@@@3@@std@@@std@@@2@$00@std@@QEAAAEAV?$_Tree_val@U?$_Tree_simple_types@U?$pair@$$CBVpath@filesystem@std@@V?$weak_ptr@Vfmu@fmi@cse@@@3@@std@@@std@@@2@XZ
	?_Get_second@?$_Compressed_pair@V?$allocator@U?$_Tree_node@U?$pair@$$CBVpath@filesystem@std@@V?$weak_ptr@Vfmu@fmi@cse@@@3@@std@@PEAX@std@@@std@@V?$_Tree_val@U?$_Tree_simple_types@U?$pair@$$CBVpath@filesystem@std@@V?$weak_ptr@Vfmu@fmi@cse@@@3@@std@@@std@@@2@$00@std@@QEBAAEBV?$_Tree_val@U?$_Tree_simple_types@U?$pair@$$CBVpath@filesystem@std@@V?$weak_ptr@Vfmu@fmi@cse@@@3@@std@@@std@@@2@XZ
	?_Get_second@?$_Compressed_pair@V?$allocator@Uvariable_description@cse@@@std@@V?$_Vector_val@U?$_Simple_types@Uvariable_description@cse@@@std@@@2@$00@std@@QEAAAEAV?$_Vector_val@U?$_Simple_types@Uvariable_description@cse@@@std@@@2@XZ
	?_Get_second@?$_Compressed_pair@V?$allocator@Uvariable_description@cse@@@std@@V?$_Vector_val@U?$_Simple_types@Uvariable_description@cse@@@std@@@2@$00@std@@QEBAAEBV?$_Vector_val@U?$_Simple_types@Uvariable_description@cse@@@std@@@2@XZ
	?_Get_second@?$_Compressed_pair@V?$allocator@V?$weak_ptr@Vslave_instance@v1@fmi@cse@@@std@@@std@@V?$_Vector_val@U?$_Simple_types@V?$weak_ptr@Vslave_instance@v1@fmi@cse@@@std@@@std@@@2@$00@std@@QEAAAEAV?$_Vector_val@U?$_Simple_types@V?$weak_ptr@Vslave_instance@v1@fmi@cse@@@std@@@std@@@2@XZ
	?_Get_second@?$_Compressed_pair@V?$allocator@V?$weak_ptr@Vslave_instance@v1@fmi@cse@@@std@@@std@@V?$_Vector_val@U?$_Simple_types@V?$weak_ptr@Vslave_instance@v1@fmi@cse@@@std@@@std@@@2@$00@std@@QEBAAEBV?$_Vector_val@U?$_Simple_types@V?$weak_ptr@Vslave_instance@v1@fmi@cse@@@std@@@std@@@2@XZ
	?_Get_second@?$_Compressed_pair@V?$allocator@V?$weak_ptr@Vslave_instance@v2@fmi@cse@@@std@@@std@@V?$_Vector_val@U?$_Simple_types@V?$weak_ptr@Vslave_instance@v2@fmi@cse@@@std@@@std@@@2@$00@std@@QEAAAEAV?$_Vector_val@U?$_Simple_types@V?$weak_ptr@Vslave_instance@v2@fmi@cse@@@std@@@std@@@2@XZ
	?_Get_second@?$_Compressed_pair@V?$allocator@V?$weak_ptr@Vslave_instance@v2@fmi@cse@@@std@@@std@@V?$_Vector_val@U?$_Simple_types@V?$weak_ptr@Vslave_instance@v2@fmi@cse@@@std@@@std@@@2@$00@std@@QEBAAEBV?$_Vector_val@U?$_Simple_types@V?$weak_ptr@Vslave_instance@v2@fmi@cse@@@std@@@std@@@2@XZ
	?_Get_second@?$_Compressed_pair@V?$allocator@_W@std@@V?$_String_val@U?$_Simple_types@_W@std@@@2@$00@std@@QEAAAEAV?$_String_val@U?$_Simple_types@_W@std@@@2@XZ
	?_Get_second@?$_Compressed_pair@V?$allocator@_W@std@@V?$_String_val@U?$_Simple_types@_W@std@@@2@$00@std@@QEBAAEBV?$_String_val@U?$_Simple_types@_W@std@@@2@XZ
	?_Getal@?$_String_alloc@U?$_String_base_types@DV?$allocator@D@std@@@std@@@std@@QEAAAEAV?$allocator@D@2@XZ
	?_Getal@?$_String_alloc@U?$_String_base_types@DV?$allocator@D@std@@@std@@@std@@QEBAAEBV?$allocator@D@2@XZ
	?_Getal@?$_String_alloc@U?$_String_base_types@_WV?$allocator@_W@std@@@std@@@std@@QEAAAEAV?$allocator@_W@2@XZ
	?_Getal@?$_String_alloc@U?$_String_base_types@_WV?$allocator@_W@std@@@std@@@std@@QEBAAEBV?$allocator@_W@2@XZ
	?_Getal@?$_Tree_comp_alloc@V?$_Tmap_traits@V?$basic_string@DU?$char_traits@D@std@@V?$allocator@D@2@@std@@V?$weak_ptr@Vfmu@fmi@cse@@@2@U?$less@V?$basic_string@DU?$char_traits@D@std@@V?$allocator@D@2@@std@@@2@V?$allocator@U?$pair@$$CBV?$basic_string@DU?$char_traits@D@std@@V?$allocator@D@2@@std@@V?$weak_ptr@Vfmu@fmi@cse@@@2@@std@@@2@$0A@@std@@@std@@QEAAAEAV?$allocator@U?$_Tree_node@U?$pair@$$CBV?$basic_string@DU?$char_traits@D@std@@V?$allocator@D@2@@std@@V?$weak_ptr@Vfmu@fmi@cse@@@2@@std@@PEAX@std@@@2@XZ
	?_Getal@?$_Tree_comp_alloc@V?$_Tmap_traits@V?$basic_string@DU?$char_traits@D@std@@V?$allocator@D@2@@std@@V?$weak_ptr@Vfmu@fmi@cse@@@2@U?$less@V?$basic_string@DU?$char_traits@D@std@@V?$allocator@D@2@@std@@@2@V?$allocator@U?$pair@$$CBV?$basic_string@DU?$char_traits@D@std@@V?$allocator@D@2@@std@@V?$weak_ptr@Vfmu@fmi@cse@@@2@@std@@@2@$0A@@std@@@std@@QEBAAEBV?$allocator@U?$_Tree_node@U?$pair@$$CBV?$basic_string@DU?$char_traits@D@std@@V?$allocator@D@2@@std@@V?$weak_ptr@Vfmu@fmi@cse@@@2@@std@@PEAX@std@@@2@XZ
	?_Getal@?$_Tree_comp_alloc@V?$_Tmap_traits@Vpath@filesystem@std@@V?$weak_ptr@Vfmu@fmi@cse@@@3@U?$less@Vpath@filesystem@std@@@3@V?$allocator@U?$pair@$$CBVpath@filesystem@std@@V?$weak_ptr@Vfmu@fmi@cse@@@3@@std@@@3@$0A@@std@@@std@@QEAAAEAV?$allocator@U?$_Tree_node@U?$pair@$$CBVpath@filesystem@std@@V?$weak_ptr@Vfmu@fmi@cse@@@3@@std@@PEAX@std@@@2@XZ
	?_Getal@?$_Tree_comp_alloc@V?$_Tmap_traits@Vpath@filesystem@std@@V?$weak_ptr@Vfmu@fmi@cse@@@3@U?$less@Vpath@filesystem@std@@@3@V?$allocator@U?$pair@$$CBVpath@filesystem@std@@V?$weak_ptr@Vfmu@fmi@cse@@@3@@std@@@3@$0A@@std@@@std@@QEBAAEBV?$allocator@U?$_Tree_node@U?$pair@$$CBVpath@filesystem@std@@V?$weak_ptr@Vfmu@fmi@cse@@@3@@std@@PEAX@std@@@2@XZ
	?_Getal@?$_Vector_alloc@U?$_Vec_base_types@DV?$allocator@D@std@@@std@@@std@@QEAAAEAV?$allocator@D@2@XZ
	?_Getal@?$_Vector_alloc@U?$_Vec_base_types@DV?$allocator@D@std@@@std@@@std@@QEBAAEBV?$allocator@D@2@XZ
	?_Getal@?$_Vector_alloc@U?$_Vec_base_types@HV?$allocator@H@std@@@std@@@std@@QEAAAEAV?$allocator@H@2@XZ
	?_Getal@?$_Vector_alloc@U?$_Vec_base_types@HV?$allocator@H@std@@@std@@@std@@QEBAAEBV?$allocator@H@2@XZ
	?_Getal@?$_Vector_alloc@U?$_Vec_base_types@PEBDV?$allocator@PEBD@std@@@std@@@std@@QEAAAEAV?$allocator@PEBD@2@XZ
	?_Getal@?$_Vector_alloc@U?$_Vec_base_types@PEBDV?$allocator@PEBD@std@@@std@@@std@@QEBAAEBV?$allocator@PEBD@2@XZ
	?_Getal@?$_Vector_alloc@U?$_Vec_base_types@Uvariable_description@cse@@V?$allocator@Uvariable_description@cse@@@std@@@std@@@std@@QEAAAEAV?$allocator@Uvariable_description@cse@@@2@XZ
	?_Getal@?$_Vector_alloc@U?$_Vec_base_types@Uvariable_description@cse@@V?$allocator@Uvariable_description@cse@@@std@@@std@@@std@@QEBAAEBV?$allocator@Uvariable_description@cse@@@2@XZ
	?_Getal@?$_Vector_alloc@U?$_Vec_base_types@V?$weak_ptr@Vslave_instance@v1@fmi@cse@@@std@@V?$allocator@V?$weak_ptr@Vslave_instance@v1@fmi@cse@@@std@@@2@@std@@@std@@QEAAAEAV?$allocator@V?$weak_ptr@Vslave_instance@v1@fmi@cse@@@std@@@2@XZ
	?_Getal@?$_Vector_alloc@U?$_Vec_base_types@V?$weak_ptr@Vslave_instance@v1@fmi@cse@@@std@@V?$allocator@V?$weak_ptr@Vslave_instance@v1@fmi@cse@@@std@@@2@@std@@@std@@QEBAAEBV?$allocator@V?$weak_ptr@Vslave_instance@v1@fmi@cse@@@std@@@2@XZ
	?_Getal@?$_Vector_alloc@U?$_Vec_base_types@V?$weak_ptr@Vslave_instance@v2@fmi@cse@@@std@@V?$allocator@V?$weak_ptr@Vslave_instance@v2@fmi@cse@@@std@@@2@@std@@@std@@QEAAAEAV?$allocator@V?$weak_ptr@Vslave_instance@v2@fmi@cse@@@std@@@2@XZ
	?_Getal@?$_Vector_alloc@U?$_Vec_base_types@V?$weak_ptr@Vslave_instance@v2@fmi@cse@@@std@@V?$allocator@V?$weak_ptr@Vslave_instance@v2@fmi@cse@@@std@@@2@@std@@@std@@QEBAAEBV?$allocator@V?$weak_ptr@Vslave_instance@v2@fmi@cse@@@std@@@2@XZ
	?_Getcomp@?$_Tree_comp_alloc@V?$_Tmap_traits@V?$basic_string@DU?$char_traits@D@std@@V?$allocator@D@2@@std@@V?$weak_ptr@Vfmu@fmi@cse@@@2@U?$less@V?$basic_string@DU?$char_traits@D@std@@V?$allocator@D@2@@std@@@2@V?$allocator@U?$pair@$$CBV?$basic_string@DU?$char_traits@D@std@@V?$allocator@D@2@@std@@V?$weak_ptr@Vfmu@fmi@cse@@@2@@std@@@2@$0A@@std@@@std@@QEAAAEAU?$less@V?$basic_string@DU?$char_traits@D@std@@V?$allocator@D@2@@std@@@2@XZ
	?_Getcomp@?$_Tree_comp_alloc@V?$_Tmap_traits@V?$basic_string@DU?$char_traits@D@std@@V?$allocator@D@2@@std@@V?$weak_ptr@Vfmu@fmi@cse@@@2@U?$less@V?$basic_string@DU?$char_traits@D@std@@V?$allocator@D@2@@std@@@2@V?$allocator@U?$pair@$$CBV?$basic_string@DU?$char_traits@D@std@@V?$allocator@D@2@@std@@V?$weak_ptr@Vfmu@fmi@cse@@@2@@std@@@2@$0A@@std@@@std@@QEBAAEBU?$less@V?$basic_string@DU?$char_traits@D@std@@V?$allocator@D@2@@std@@@2@XZ
	?_Getcomp@?$_Tree_comp_alloc@V?$_Tmap_traits@Vpath@filesystem@std@@V?$weak_ptr@Vfmu@fmi@cse@@@3@U?$less@Vpath@filesystem@std@@@3@V?$allocator@U?$pair@$$CBVpath@filesystem@std@@V?$weak_ptr@Vfmu@fmi@cse@@@3@@std@@@3@$0A@@std@@@std@@QEAAAEAU?$less@Vpath@filesystem@std@@@2@XZ
	?_Getcomp@?$_Tree_comp_alloc@V?$_Tmap_traits@Vpath@filesystem@std@@V?$weak_ptr@Vfmu@fmi@cse@@@3@U?$less@Vpath@filesystem@std@@@3@V?$allocator@U?$pair@$$CBVpath@filesystem@std@@V?$weak_ptr@Vfmu@fmi@cse@@@3@@std@@@3@$0A@@std@@@std@@QEBAAEBU?$less@Vpath@filesystem@std@@@2@XZ
	?_Getcont@_Iterator_base12@std@@QEBAPEBU_Container_base12@2@XZ
	?_Getfacet@locale@std@@QEBAPEBVfacet@12@_K@Z
	?_Gethash@?$_Uhash_compare@V?$basic_string@DU?$char_traits@D@std@@V?$allocator@D@2@@std@@U?$hash@V?$basic_string@DU?$char_traits@D@std@@V?$allocator@D@2@@std@@@2@U?$equal_to@V?$basic_string@DU?$char_traits@D@std@@V?$allocator@D@2@@std@@@2@@std@@QEBAAEBU?$hash@V?$basic_string@DU?$char_traits@D@std@@V?$allocator@D@2@@std@@@2@XZ
	?_Getkeyeq@?$_Uhash_compare@V?$basic_string@DU?$char_traits@D@std@@V?$allocator@D@2@@std@@U?$hash@V?$basic_string@DU?$char_traits@D@std@@V?$allocator@D@2@@std@@@2@U?$equal_to@V?$basic_string@DU?$char_traits@D@std@@V?$allocator@D@2@@std@@@2@@std@@QEBAAEBU?$equal_to@V?$basic_string@DU?$char_traits@D@std@@V?$allocator@D@2@@std@@@2@XZ
	?_Getpfirst@?$_Tree_comp_alloc@V?$_Tmap_traits@V?$basic_string@DU?$char_traits@D@std@@V?$allocator@D@2@@std@@V?$weak_ptr@Vfmu@fmi@cse@@@2@U?$less@V?$basic_string@DU?$char_traits@D@std@@V?$allocator@D@2@@std@@@2@V?$allocator@U?$pair@$$CBV?$basic_string@DU?$char_traits@D@std@@V?$allocator@D@2@@std@@V?$weak_ptr@Vfmu@fmi@cse@@@2@@std@@@2@$0A@@std@@@std@@QEBAPEAPEAU_Iterator_base12@2@XZ
	?_Getpfirst@?$_Tree_comp_alloc@V?$_Tmap_traits@Vpath@filesystem@std@@V?$weak_ptr@Vfmu@fmi@cse@@@3@U?$less@Vpath@filesystem@std@@@3@V?$allocator@U?$pair@$$CBVpath@filesystem@std@@V?$weak_ptr@Vfmu@fmi@cse@@@3@@std@@@3@$0A@@std@@@std@@QEBAPEAPEAU_Iterator_base12@2@XZ
	?_Getpfirst@?$_Vector_alloc@U?$_Vec_base_types@DV?$allocator@D@std@@@std@@@std@@QEBAPEAPEAU_Iterator_base12@2@XZ
	?_Getpfirst@?$_Vector_alloc@U?$_Vec_base_types@Uvariable_description@cse@@V?$allocator@Uvariable_description@cse@@@std@@@std@@@std@@QEBAPEAPEAU_Iterator_base12@2@XZ
	?_Getpfirst@?$_Vector_alloc@U?$_Vec_base_types@V?$weak_ptr@Vslave_instance@v1@fmi@cse@@@std@@V?$allocator@V?$weak_ptr@Vslave_instance@v1@fmi@cse@@@std@@@2@@std@@@std@@QEBAPEAPEAU_Iterator_base12@2@XZ
	?_Getpfirst@?$_Vector_alloc@U?$_Vec_base_types@V?$weak_ptr@Vslave_instance@v2@fmi@cse@@@std@@V?$allocator@V?$weak_ptr@Vslave_instance@v2@fmi@cse@@@std@@@2@@std@@@std@@QEBAPEAPEAU_Iterator_base12@2@XZ
	?_Getpfirst@_Container_base12@std@@QEBAPEAPEAU_Iterator_base12@2@XZ
	?_Getpnext@_Iterator_base12@std@@QEAAPEAPEAU12@XZ
	?_Getptr@?$_Ref_count_obj@U_Dir_enum_impl@filesystem@std@@@std@@QEAAPEAU_Dir_enum_impl@filesystem@2@XZ
	?_Getstate@?$basic_stringbuf@DU?$char_traits@D@std@@V?$allocator@D@2@@std@@CAHH@Z
	?_Has_drive_letter_prefix@filesystem@std@@YA_NQEB_W0@Z
	?_Has_unused_capacity@?$vector@DV?$allocator@D@std@@@std@@AEBA_NXZ
	?_Has_unused_capacity@?$vector@Uvariable_description@cse@@V?$allocator@Uvariable_description@cse@@@std@@@std@@AEBA_NXZ
	?_Has_unused_capacity@?$vector@V?$weak_ptr@Vslave_instance@v1@fmi@cse@@@std@@V?$allocator@V?$weak_ptr@Vslave_instance@v1@fmi@cse@@@std@@@2@@std@@AEBA_NXZ
	?_Has_unused_capacity@?$vector@V?$weak_ptr@Vslave_instance@v2@fmi@cse@@@std@@V?$allocator@V?$weak_ptr@Vslave_instance@v2@fmi@cse@@@std@@@2@@std@@AEBA_NXZ
	?_Hash_bytes@std@@YA_KPEBE_K@Z
	?_Inc@?$istreambuf_iterator@DU?$char_traits@D@std@@@std@@AEAAXXZ
	?_Incref@_Ref_count_base@std@@QEAAXXZ
	?_Incref_nz@_Ref_count_base@std@@QEAA_NXZ
	?_Incwref@_Ref_count_base@std@@QEAAXXZ
	?_Init@?$basic_filebuf@DU?$char_traits@D@std@@@std@@IEAAXPEAU_iobuf@@W4_Initfl@12@@Z
	?_Initcvt@?$basic_filebuf@DU?$char_traits@D@std@@@std@@IEAAXAEBV?$codecvt@DDU_Mbstatet@@@2@@Z
	?_Is_dot_or_dotdot@filesystem@std@@YA_NAEBU__std_fs_find_data@@@Z
	?_Is_drive_prefix@filesystem@std@@YA_NQEB_W@Z
	?_Is_file_not_found@filesystem@std@@YA_NW4__std_win_error@@@Z
	?_Key@?$_Tree@V?$_Tmap_traits@V?$basic_string@DU?$char_traits@D@std@@V?$allocator@D@2@@std@@V?$weak_ptr@Vfmu@fmi@cse@@@2@U?$less@V?$basic_string@DU?$char_traits@D@std@@V?$allocator@D@2@@std@@@2@V?$allocator@U?$pair@$$CBV?$basic_string@DU?$char_traits@D@std@@V?$allocator@D@2@@std@@V?$weak_ptr@Vfmu@fmi@cse@@@2@@std@@@2@$0A@@std@@@std@@IEBAAEBV?$basic_string@DU?$char_traits@D@std@@V?$allocator@D@2@@2@PEAU?$_Tree_node@U?$pair@$$CBV?$basic_string@DU?$char_traits@D@std@@V?$allocator@D@2@@std@@V?$weak_ptr@Vfmu@fmi@cse@@@2@@std@@PEAX@2@@Z
	?_Key@?$_Tree@V?$_Tmap_traits@Vpath@filesystem@std@@V?$weak_ptr@Vfmu@fmi@cse@@@3@U?$less@Vpath@filesystem@std@@@3@V?$allocator@U?$pair@$$CBVpath@filesystem@std@@V?$weak_ptr@Vfmu@fmi@cse@@@3@@std@@@3@$0A@@std@@@std@@IEBAAEBVpath@filesystem@2@PEAU?$_Tree_node@U?$pair@$$CBVpath@filesystem@std@@V?$weak_ptr@Vfmu@fmi@cse@@@3@@std@@PEAX@2@@Z
	?_Kfn@?$_Tree@V?$_Tmap_traits@V?$basic_string@DU?$char_traits@D@std@@V?$allocator@D@2@@std@@V?$weak_ptr@Vfmu@fmi@cse@@@2@U?$less@V?$basic_string@DU?$char_traits@D@std@@V?$allocator@D@2@@std@@@2@V?$allocator@U?$pair@$$CBV?$basic_string@DU?$char_traits@D@std@@V?$allocator@D@2@@std@@V?$weak_ptr@Vfmu@fmi@cse@@@2@@std@@@2@$0A@@std@@@std@@IEBAAEBV?$basic_string@DU?$char_traits@D@std@@V?$allocator@D@2@@2@AEBU?$pair@$$CBV?$basic_string@DU?$char_traits@D@std@@V?$allocator@D@2@@std@@V?$weak_ptr@Vfmu@fmi@cse@@@2@@2@@Z
	?_Kfn@?$_Tree@V?$_Tmap_traits@Vpath@filesystem@std@@V?$weak_ptr@Vfmu@fmi@cse@@@3@U?$less@Vpath@filesystem@std@@@3@V?$allocator@U?$pair@$$CBVpath@filesystem@std@@V?$weak_ptr@Vfmu@fmi@cse@@@3@@std@@@3@$0A@@std@@@std@@IEBAAEBVpath@filesystem@2@AEBU?$pair@$$CBVpath@filesystem@std@@V?$weak_ptr@Vfmu@fmi@cse@@@3@@2@@Z
	?_Large_string_engaged@?$_String_val@U?$_Simple_types@D@std@@@std@@QEBA_NXZ
	?_Large_string_engaged@?$_String_val@U?$_Simple_types@_W@std@@@std@@QEBA_NXZ
	?_Last_write_time@filesystem@std@@YA?AW4__std_win_error@@AEBVpath@12@AEAV?$time_point@U_File_time_clock@filesystem@std@@V?$duration@_JU?$ratio@$00$0JIJGIA@@std@@@chrono@3@@chrono@2@@Z
	?_Lmost@?$_Tree_val@U?$_Tree_simple_types@U?$pair@$$CBV?$basic_string@DU?$char_traits@D@std@@V?$allocator@D@2@@std@@V?$weak_ptr@Vfmu@fmi@cse@@@2@@std@@@std@@@std@@QEBAAEAPEAU?$_Tree_node@U?$pair@$$CBV?$basic_string@DU?$char_traits@D@std@@V?$allocator@D@2@@std@@V?$weak_ptr@Vfmu@fmi@cse@@@2@@std@@PEAX@2@XZ
	?_Lmost@?$_Tree_val@U?$_Tree_simple_types@U?$pair@$$CBVpath@filesystem@std@@V?$weak_ptr@Vfmu@fmi@cse@@@3@@std@@@std@@@std@@QEBAAEAPEAU?$_Tree_node@U?$pair@$$CBVpath@filesystem@std@@V?$weak_ptr@Vfmu@fmi@cse@@@3@@std@@PEAX@2@XZ
	?_Lock@?$basic_filebuf@DU?$char_traits@D@std@@@std@@UEAAXXZ
	?_Lrotate@?$_Tree_val@U?$_Tree_simple_types@U?$pair@$$CBV?$basic_string@DU?$char_traits@D@std@@V?$allocator@D@2@@std@@V?$weak_ptr@Vfmu@fmi@cse@@@2@@std@@@std@@@std@@QEAAXPEAU?$_Tree_node@U?$pair@$$CBV?$basic_string@DU?$char_traits@D@std@@V?$allocator@D@2@@std@@V?$weak_ptr@Vfmu@fmi@cse@@@2@@std@@PEAX@2@@Z
	?_Lrotate@?$_Tree_val@U?$_Tree_simple_types@U?$pair@$$CBVpath@filesystem@std@@V?$weak_ptr@Vfmu@fmi@cse@@@3@@std@@@std@@@std@@QEAAXPEAU?$_Tree_node@U?$pair@$$CBVpath@filesystem@std@@V?$weak_ptr@Vfmu@fmi@cse@@@3@@std@@PEAX@2@@Z
	?_Make_ec@filesystem@std@@YA?AVerror_code@2@W4__std_win_error@@@Z
	?_Makestr@_System_error@std@@CA?AV?$basic_string@DU?$char_traits@D@std@@V?$allocator@D@2@@2@Verror_code@2@V32@@Z
	?_Maklocwcs@std@@YAPEA_WPEB_W@Z
	?_Max@?$_Tree_val@U?$_Tree_simple_types@U?$pair@$$CBV?$basic_string@DU?$char_traits@D@std@@V?$allocator@D@2@@std@@V?$weak_ptr@Vfmu@fmi@cse@@@2@@std@@@std@@@std@@SAPEAU?$_Tree_node@U?$pair@$$CBV?$basic_string@DU?$char_traits@D@std@@V?$allocator@D@2@@std@@V?$weak_ptr@Vfmu@fmi@cse@@@2@@std@@PEAX@2@PEAU32@@Z
	?_Max@?$_Tree_val@U?$_Tree_simple_types@U?$pair@$$CBVpath@filesystem@std@@V?$weak_ptr@Vfmu@fmi@cse@@@3@@std@@@std@@@std@@SAPEAU?$_Tree_node@U?$pair@$$CBVpath@filesystem@std@@V?$weak_ptr@Vfmu@fmi@cse@@@3@@std@@PEAX@2@PEAU32@@Z
	?_Min@?$_Tree_val@U?$_Tree_simple_types@U?$pair@$$CBV?$basic_string@DU?$char_traits@D@std@@V?$allocator@D@2@@std@@V?$weak_ptr@Vfmu@fmi@cse@@@2@@std@@@std@@@std@@SAPEAU?$_Tree_node@U?$pair@$$CBV?$basic_string@DU?$char_traits@D@std@@V?$allocator@D@2@@std@@V?$weak_ptr@Vfmu@fmi@cse@@@2@@std@@PEAX@2@PEAU32@@Z
	?_Min@?$_Tree_val@U?$_Tree_simple_types@U?$pair@$$CBVpath@filesystem@std@@V?$weak_ptr@Vfmu@fmi@cse@@@3@@std@@@std@@@std@@SAPEAU?$_Tree_node@U?$pair@$$CBVpath@filesystem@std@@V?$weak_ptr@Vfmu@fmi@cse@@@3@@std@@PEAX@2@PEAU32@@Z
	?_Move_alloc@?$_String_alloc@U?$_String_base_types@DV?$allocator@D@std@@@std@@@std@@QEAAXAEAV?$allocator@D@2@@Z
	?_Move_alloc@?$_String_alloc@U?$_String_base_types@_WV?$allocator@_W@std@@@std@@@std@@QEAAXAEAV?$allocator@_W@2@@Z
	?_Mtx_lockX@std@@YAHPEAU_Mtx_internal_imp_t@@@Z
	?_Mtx_unlockX@std@@YAHPEAU_Mtx_internal_imp_t@@@Z
	?_Myend@?$_Vector_alloc@U?$_Vec_base_types@DV?$allocator@D@std@@@std@@@std@@QEAAAEAPEADXZ
	?_Myend@?$_Vector_alloc@U?$_Vec_base_types@DV?$allocator@D@std@@@std@@@std@@QEBAAEBQEADXZ
	?_Myend@?$_Vector_alloc@U?$_Vec_base_types@HV?$allocator@H@std@@@std@@@std@@QEAAAEAPEAHXZ
	?_Myend@?$_Vector_alloc@U?$_Vec_base_types@HV?$allocator@H@std@@@std@@@std@@QEBAAEBQEAHXZ
	?_Myend@?$_Vector_alloc@U?$_Vec_base_types@PEBDV?$allocator@PEBD@std@@@std@@@std@@QEAAAEAPEAPEBDXZ
	?_Myend@?$_Vector_alloc@U?$_Vec_base_types@PEBDV?$allocator@PEBD@std@@@std@@@std@@QEBAAEBQEAPEBDXZ
	?_Myend@?$_Vector_alloc@U?$_Vec_base_types@Uvariable_description@cse@@V?$allocator@Uvariable_description@cse@@@std@@@std@@@std@@QEAAAEAPEAUvariable_description@cse@@XZ
	?_Myend@?$_Vector_alloc@U?$_Vec_base_types@Uvariable_description@cse@@V?$allocator@Uvariable_description@cse@@@std@@@std@@@std@@QEBAAEBQEAUvariable_description@cse@@XZ
	?_Myend@?$_Vector_alloc@U?$_Vec_base_types@V?$weak_ptr@Vslave_instance@v1@fmi@cse@@@std@@V?$allocator@V?$weak_ptr@Vslave_instance@v1@fmi@cse@@@std@@@2@@std@@@std@@QEAAAEAPEAV?$weak_ptr@Vslave_instance@v1@fmi@cse@@@2@XZ
	?_Myend@?$_Vector_alloc@U?$_Vec_base_types@V?$weak_ptr@Vslave_instance@v1@fmi@cse@@@std@@V?$allocator@V?$weak_ptr@Vslave_instance@v1@fmi@cse@@@std@@@2@@std@@@std@@QEBAAEBQEAV?$weak_ptr@Vslave_instance@v1@fmi@cse@@@2@XZ
	?_Myend@?$_Vector_alloc@U?$_Vec_base_types@V?$weak_ptr@Vslave_instance@v2@fmi@cse@@@std@@V?$allocator@V?$weak_ptr@Vslave_instance@v2@fmi@cse@@@std@@@2@@std@@@std@@QEAAAEAPEAV?$weak_ptr@Vslave_instance@v2@fmi@cse@@@2@XZ
	?_Myend@?$_Vector_alloc@U?$_Vec_base_types@V?$weak_ptr@Vslave_instance@v2@fmi@cse@@@std@@V?$allocator@V?$weak_ptr@Vslave_instance@v2@fmi@cse@@@std@@@2@@std@@@std@@QEBAAEBQEAV?$weak_ptr@Vslave_instance@v2@fmi@cse@@@2@XZ
	?_Myfirst@?$_Vector_alloc@U?$_Vec_base_types@DV?$allocator@D@std@@@std@@@std@@QEAAAEAPEADXZ
	?_Myfirst@?$_Vector_alloc@U?$_Vec_base_types@DV?$allocator@D@std@@@std@@@std@@QEBAAEBQEADXZ
	?_Myfirst@?$_Vector_alloc@U?$_Vec_base_types@HV?$allocator@H@std@@@std@@@std@@QEAAAEAPEAHXZ
	?_Myfirst@?$_Vector_alloc@U?$_Vec_base_types@HV?$allocator@H@std@@@std@@@std@@QEBAAEBQEAHXZ
	?_Myfirst@?$_Vector_alloc@U?$_Vec_base_types@PEBDV?$allocator@PEBD@std@@@std@@@std@@QEAAAEAPEAPEBDXZ
